Archive member included because of file (symbol)

c:/dave-3.1.10/arm-gcc/bin/../lib/gcc/arm-none-eabi/4.7.4/../../../../arm-none-eabi/lib/armv7e-m\libm.a(lib_a-w_pow.o)
                              TSL2561.o (pow)
c:/dave-3.1.10/arm-gcc/bin/../lib/gcc/arm-none-eabi/4.7.4/../../../../arm-none-eabi/lib/armv7e-m\libm.a(lib_a-e_pow.o)
                              c:/dave-3.1.10/arm-gcc/bin/../lib/gcc/arm-none-eabi/4.7.4/../../../../arm-none-eabi/lib/armv7e-m\libm.a(lib_a-w_pow.o) (__ieee754_pow)
c:/dave-3.1.10/arm-gcc/bin/../lib/gcc/arm-none-eabi/4.7.4/../../../../arm-none-eabi/lib/armv7e-m\libm.a(lib_a-e_sqrt.o)
                              c:/dave-3.1.10/arm-gcc/bin/../lib/gcc/arm-none-eabi/4.7.4/../../../../arm-none-eabi/lib/armv7e-m\libm.a(lib_a-e_pow.o) (__ieee754_sqrt)
c:/dave-3.1.10/arm-gcc/bin/../lib/gcc/arm-none-eabi/4.7.4/../../../../arm-none-eabi/lib/armv7e-m\libm.a(lib_a-s_fabs.o)
                              c:/dave-3.1.10/arm-gcc/bin/../lib/gcc/arm-none-eabi/4.7.4/../../../../arm-none-eabi/lib/armv7e-m\libm.a(lib_a-e_pow.o) (fabs)
c:/dave-3.1.10/arm-gcc/bin/../lib/gcc/arm-none-eabi/4.7.4/../../../../arm-none-eabi/lib/armv7e-m\libm.a(lib_a-s_finite.o)
                              c:/dave-3.1.10/arm-gcc/bin/../lib/gcc/arm-none-eabi/4.7.4/../../../../arm-none-eabi/lib/armv7e-m\libm.a(lib_a-w_pow.o) (finite)
c:/dave-3.1.10/arm-gcc/bin/../lib/gcc/arm-none-eabi/4.7.4/../../../../arm-none-eabi/lib/armv7e-m\libm.a(lib_a-s_fpclassify.o)
                              c:/dave-3.1.10/arm-gcc/bin/../lib/gcc/arm-none-eabi/4.7.4/../../../../arm-none-eabi/lib/armv7e-m\libm.a(lib_a-w_pow.o) (__fpclassifyd)
c:/dave-3.1.10/arm-gcc/bin/../lib/gcc/arm-none-eabi/4.7.4/../../../../arm-none-eabi/lib/armv7e-m\libm.a(lib_a-s_lib_ver.o)
                              c:/dave-3.1.10/arm-gcc/bin/../lib/gcc/arm-none-eabi/4.7.4/../../../../arm-none-eabi/lib/armv7e-m\libm.a(lib_a-w_pow.o) (__fdlib_version)
c:/dave-3.1.10/arm-gcc/bin/../lib/gcc/arm-none-eabi/4.7.4/../../../../arm-none-eabi/lib/armv7e-m\libm.a(lib_a-s_matherr.o)
                              c:/dave-3.1.10/arm-gcc/bin/../lib/gcc/arm-none-eabi/4.7.4/../../../../arm-none-eabi/lib/armv7e-m\libm.a(lib_a-w_pow.o) (matherr)
c:/dave-3.1.10/arm-gcc/bin/../lib/gcc/arm-none-eabi/4.7.4/../../../../arm-none-eabi/lib/armv7e-m\libm.a(lib_a-s_nan.o)
                              c:/dave-3.1.10/arm-gcc/bin/../lib/gcc/arm-none-eabi/4.7.4/../../../../arm-none-eabi/lib/armv7e-m\libm.a(lib_a-e_pow.o) (nan)
c:/dave-3.1.10/arm-gcc/bin/../lib/gcc/arm-none-eabi/4.7.4/../../../../arm-none-eabi/lib/armv7e-m\libm.a(lib_a-s_rint.o)
                              c:/dave-3.1.10/arm-gcc/bin/../lib/gcc/arm-none-eabi/4.7.4/../../../../arm-none-eabi/lib/armv7e-m\libm.a(lib_a-w_pow.o) (rint)
c:/dave-3.1.10/arm-gcc/bin/../lib/gcc/arm-none-eabi/4.7.4/../../../../arm-none-eabi/lib/armv7e-m\libm.a(lib_a-s_scalbn.o)
                              c:/dave-3.1.10/arm-gcc/bin/../lib/gcc/arm-none-eabi/4.7.4/../../../../arm-none-eabi/lib/armv7e-m\libm.a(lib_a-e_pow.o) (scalbn)
c:/dave-3.1.10/arm-gcc/bin/../lib/gcc/arm-none-eabi/4.7.4/../../../../arm-none-eabi/lib/armv7e-m\libm.a(lib_a-s_copysign.o)
                              c:/dave-3.1.10/arm-gcc/bin/../lib/gcc/arm-none-eabi/4.7.4/../../../../arm-none-eabi/lib/armv7e-m\libm.a(lib_a-s_scalbn.o) (copysign)
c:/dave-3.1.10/arm-gcc/bin/../lib/gcc/arm-none-eabi/4.7.4/armv7e-m\libgcc.a(_arm_addsubdf3.o)
                              HTU21D.o (__aeabi_dsub)
c:/dave-3.1.10/arm-gcc/bin/../lib/gcc/arm-none-eabi/4.7.4/armv7e-m\libgcc.a(_arm_muldivdf3.o)
                              HTU21D.o (__aeabi_dmul)
c:/dave-3.1.10/arm-gcc/bin/../lib/gcc/arm-none-eabi/4.7.4/armv7e-m\libgcc.a(_arm_cmpdf2.o)
                              c:/dave-3.1.10/arm-gcc/bin/../lib/gcc/arm-none-eabi/4.7.4/../../../../arm-none-eabi/lib/armv7e-m\libm.a(lib_a-w_pow.o) (__aeabi_dcmpeq)
c:/dave-3.1.10/arm-gcc/bin/../lib/gcc/arm-none-eabi/4.7.4/armv7e-m\libgcc.a(_arm_fixdfsi.o)
                              LSM9DS1_Driver.o (__aeabi_d2iz)
c:/dave-3.1.10/arm-gcc/bin/../lib/gcc/arm-none-eabi/4.7.4/armv7e-m\libgcc.a(_arm_truncdfsf2.o)
                              HTU21D.o (__aeabi_d2f)
c:/dave-3.1.10/arm-gcc/bin/../lib/gcc/arm-none-eabi/4.7.4/../../../../arm-none-eabi/lib/armv7e-m\libg.a(lib_a-errno.o)
                              c:/dave-3.1.10/arm-gcc/bin/../lib/gcc/arm-none-eabi/4.7.4/../../../../arm-none-eabi/lib/armv7e-m\libm.a(lib_a-w_pow.o) (__errno)
c:/dave-3.1.10/arm-gcc/bin/../lib/gcc/arm-none-eabi/4.7.4/../../../../arm-none-eabi/lib/armv7e-m\libg.a(lib_a-impure.o)
                              c:/dave-3.1.10/arm-gcc/bin/../lib/gcc/arm-none-eabi/4.7.4/../../../../arm-none-eabi/lib/armv7e-m\libg.a(lib_a-errno.o) (_impure_ptr)
c:/dave-3.1.10/arm-gcc/bin/../lib/gcc/arm-none-eabi/4.7.4/../../../../arm-none-eabi/lib/armv7e-m\libg.a(lib_a-init.o)
                              Startup/startup_XMC4500.o (__libc_init_array)
c:/dave-3.1.10/arm-gcc/bin/../lib/gcc/arm-none-eabi/4.7.4/../../../../arm-none-eabi/lib/armv7e-m\libg.a(lib_a-malloc.o)
                              BluetoothDriver.o (malloc)
c:/dave-3.1.10/arm-gcc/bin/../lib/gcc/arm-none-eabi/4.7.4/../../../../arm-none-eabi/lib/armv7e-m\libg.a(lib_a-mallocr.o)
                              c:/dave-3.1.10/arm-gcc/bin/../lib/gcc/arm-none-eabi/4.7.4/../../../../arm-none-eabi/lib/armv7e-m\libg.a(lib_a-malloc.o) (_malloc_r)
c:/dave-3.1.10/arm-gcc/bin/../lib/gcc/arm-none-eabi/4.7.4/../../../../arm-none-eabi/lib/armv7e-m\libg.a(lib_a-memcpy.o)
                              BluetoothDriver.o (memcpy)
c:/dave-3.1.10/arm-gcc/bin/../lib/gcc/arm-none-eabi/4.7.4/../../../../arm-none-eabi/lib/armv7e-m\libg.a(lib_a-mlock.o)
                              c:/dave-3.1.10/arm-gcc/bin/../lib/gcc/arm-none-eabi/4.7.4/../../../../arm-none-eabi/lib/armv7e-m\libg.a(lib_a-mallocr.o) (__malloc_lock)
c:/dave-3.1.10/arm-gcc/bin/../lib/gcc/arm-none-eabi/4.7.4/../../../../arm-none-eabi/lib/armv7e-m\libg.a(lib_a-sbrkr.o)
                              c:/dave-3.1.10/arm-gcc/bin/../lib/gcc/arm-none-eabi/4.7.4/../../../../arm-none-eabi/lib/armv7e-m\libg.a(lib_a-mallocr.o) (_sbrk_r)
c:/dave-3.1.10/arm-gcc/bin/../lib/gcc/arm-none-eabi/4.7.4/../../../../arm-none-eabi/lib/armv7e-m\libg.a(lib_a-sprintf.o)
                              SendMeasurementsToBt.o (sprintf)
c:/dave-3.1.10/arm-gcc/bin/../lib/gcc/arm-none-eabi/4.7.4/../../../../arm-none-eabi/lib/armv7e-m\libg.a(lib_a-strchr.o)
                              BluetoothDriver.o (strchr)
c:/dave-3.1.10/arm-gcc/bin/../lib/gcc/arm-none-eabi/4.7.4/../../../../arm-none-eabi/lib/armv7e-m\libg.a(lib_a-strcmp.o)
                              BluetoothDriver.o (strcmp)
c:/dave-3.1.10/arm-gcc/bin/../lib/gcc/arm-none-eabi/4.7.4/../../../../arm-none-eabi/lib/armv7e-m\libg.a(lib_a-strlen.o)
                              BluetoothDriver.o (strlen)
c:/dave-3.1.10/arm-gcc/bin/../lib/gcc/arm-none-eabi/4.7.4/../../../../arm-none-eabi/lib/armv7e-m\libg.a(lib_a-strstr.o)
                              BluetoothDriver.o (strstr)
c:/dave-3.1.10/arm-gcc/bin/../lib/gcc/arm-none-eabi/4.7.4/../../../../arm-none-eabi/lib/armv7e-m\libg.a(lib_a-svfprintf.o)
                              c:/dave-3.1.10/arm-gcc/bin/../lib/gcc/arm-none-eabi/4.7.4/../../../../arm-none-eabi/lib/armv7e-m\libg.a(lib_a-sprintf.o) (_svfprintf_r)
c:/dave-3.1.10/arm-gcc/bin/../lib/gcc/arm-none-eabi/4.7.4/../../../../arm-none-eabi/lib/armv7e-m\libg.a(lib_a-dtoa.o)
                              c:/dave-3.1.10/arm-gcc/bin/../lib/gcc/arm-none-eabi/4.7.4/../../../../arm-none-eabi/lib/armv7e-m\libg.a(lib_a-svfprintf.o) (_dtoa_r)
c:/dave-3.1.10/arm-gcc/bin/../lib/gcc/arm-none-eabi/4.7.4/../../../../arm-none-eabi/lib/armv7e-m\libg.a(lib_a-freer.o)
                              c:/dave-3.1.10/arm-gcc/bin/../lib/gcc/arm-none-eabi/4.7.4/../../../../arm-none-eabi/lib/armv7e-m\libg.a(lib_a-malloc.o) (_free_r)
c:/dave-3.1.10/arm-gcc/bin/../lib/gcc/arm-none-eabi/4.7.4/../../../../arm-none-eabi/lib/armv7e-m\libg.a(lib_a-locale.o)
                              c:/dave-3.1.10/arm-gcc/bin/../lib/gcc/arm-none-eabi/4.7.4/../../../../arm-none-eabi/lib/armv7e-m\libg.a(lib_a-svfprintf.o) (_localeconv_r)
c:/dave-3.1.10/arm-gcc/bin/../lib/gcc/arm-none-eabi/4.7.4/../../../../arm-none-eabi/lib/armv7e-m\libg.a(lib_a-memchr.o)
                              c:/dave-3.1.10/arm-gcc/bin/../lib/gcc/arm-none-eabi/4.7.4/../../../../arm-none-eabi/lib/armv7e-m\libg.a(lib_a-strstr.o) (memchr)
c:/dave-3.1.10/arm-gcc/bin/../lib/gcc/arm-none-eabi/4.7.4/../../../../arm-none-eabi/lib/armv7e-m\libg.a(lib_a-memcmp.o)
                              c:/dave-3.1.10/arm-gcc/bin/../lib/gcc/arm-none-eabi/4.7.4/../../../../arm-none-eabi/lib/armv7e-m\libg.a(lib_a-strstr.o) (memcmp)
c:/dave-3.1.10/arm-gcc/bin/../lib/gcc/arm-none-eabi/4.7.4/../../../../arm-none-eabi/lib/armv7e-m\libg.a(lib_a-mprec.o)
                              c:/dave-3.1.10/arm-gcc/bin/../lib/gcc/arm-none-eabi/4.7.4/../../../../arm-none-eabi/lib/armv7e-m\libg.a(lib_a-dtoa.o) (_Balloc)
c:/dave-3.1.10/arm-gcc/bin/../lib/gcc/arm-none-eabi/4.7.4/../../../../arm-none-eabi/lib/armv7e-m\libg.a(lib_a-reent.o)
                              c:/dave-3.1.10/arm-gcc/bin/../lib/gcc/arm-none-eabi/4.7.4/../../../../arm-none-eabi/lib/armv7e-m\libg.a(lib_a-sbrkr.o) (errno)
c:/dave-3.1.10/arm-gcc/bin/../lib/gcc/arm-none-eabi/4.7.4/../../../../arm-none-eabi/lib/armv7e-m\libg.a(lib_a-svfiprintf.o)
                              c:/dave-3.1.10/arm-gcc/bin/../lib/gcc/arm-none-eabi/4.7.4/../../../../arm-none-eabi/lib/armv7e-m\libg.a(lib_a-svfprintf.o) (__ssprint_r)
c:/dave-3.1.10/arm-gcc/bin/../lib/gcc/arm-none-eabi/4.7.4/../../../../arm-none-eabi/lib/armv7e-m\libg.a(lib_a-callocr.o)
                              c:/dave-3.1.10/arm-gcc/bin/../lib/gcc/arm-none-eabi/4.7.4/../../../../arm-none-eabi/lib/armv7e-m\libg.a(lib_a-mprec.o) (_calloc_r)
c:/dave-3.1.10/arm-gcc/bin/../lib/gcc/arm-none-eabi/4.7.4/../../../../arm-none-eabi/lib/armv7e-m\libg.a(lib_a-memmove.o)
                              c:/dave-3.1.10/arm-gcc/bin/../lib/gcc/arm-none-eabi/4.7.4/../../../../arm-none-eabi/lib/armv7e-m\libg.a(lib_a-svfiprintf.o) (memmove)
c:/dave-3.1.10/arm-gcc/bin/../lib/gcc/arm-none-eabi/4.7.4/../../../../arm-none-eabi/lib/armv7e-m\libg.a(lib_a-memset.o)
                              c:/dave-3.1.10/arm-gcc/bin/../lib/gcc/arm-none-eabi/4.7.4/../../../../arm-none-eabi/lib/armv7e-m\libg.a(lib_a-callocr.o) (memset)
c:/dave-3.1.10/arm-gcc/bin/../lib/gcc/arm-none-eabi/4.7.4/../../../../arm-none-eabi/lib/armv7e-m\libg.a(lib_a-reallocr.o)
                              c:/dave-3.1.10/arm-gcc/bin/../lib/gcc/arm-none-eabi/4.7.4/../../../../arm-none-eabi/lib/armv7e-m\libg.a(lib_a-svfiprintf.o) (_realloc_r)
c:/dave-3.1.10/arm-gcc/bin/../lib/gcc/arm-none-eabi/4.7.4/armv7e-m\libgcc.a(_aeabi_uldivmod.o)
                              c:/dave-3.1.10/arm-gcc/bin/../lib/gcc/arm-none-eabi/4.7.4/../../../../arm-none-eabi/lib/armv7e-m\libg.a(lib_a-svfprintf.o) (__aeabi_uldivmod)
c:/dave-3.1.10/arm-gcc/bin/../lib/gcc/arm-none-eabi/4.7.4/armv7e-m\libgcc.a(bpabi.o)
                              c:/dave-3.1.10/arm-gcc/bin/../lib/gcc/arm-none-eabi/4.7.4/armv7e-m\libgcc.a(_aeabi_uldivmod.o) (__gnu_uldivmod_helper)
c:/dave-3.1.10/arm-gcc/bin/../lib/gcc/arm-none-eabi/4.7.4/armv7e-m\libgcc.a(_dvmd_tls.o)
                              c:/dave-3.1.10/arm-gcc/bin/../lib/gcc/arm-none-eabi/4.7.4/armv7e-m\libgcc.a(_aeabi_uldivmod.o) (__aeabi_ldiv0)
c:/dave-3.1.10/arm-gcc/bin/../lib/gcc/arm-none-eabi/4.7.4/armv7e-m\libgcc.a(_divdi3.o)
                              c:/dave-3.1.10/arm-gcc/bin/../lib/gcc/arm-none-eabi/4.7.4/armv7e-m\libgcc.a(bpabi.o) (__divdi3)
c:/dave-3.1.10/arm-gcc/bin/../lib/gcc/arm-none-eabi/4.7.4/armv7e-m\libgcc.a(_udivdi3.o)
                              c:/dave-3.1.10/arm-gcc/bin/../lib/gcc/arm-none-eabi/4.7.4/armv7e-m\libgcc.a(bpabi.o) (__udivdi3)

Allocating common symbols
Common symbol       size              file

magY                0x14              SendMeasurementsToBt.o
aBias               0xc               LSM9DS1_Driver.o
initCommandsAnswer  0x3c0             BluetoothDriver.o
mBiasRaw            0x6               LSM9DS1_Driver.o
accelOsX            0x64              LSM9DS1_Driver.o
StatusReadBytes     0x4               LSM9DS1_Driver.o
TimerTbl            0x400             Dave/Generated/src/SYSTM001/SYSTM001.o
errno               0x4               c:/dave-3.1.10/arm-gcc/bin/../lib/gcc/arm-none-eabi/4.7.4/../../../../arm-none-eabi/lib/armv7e-m\libg.a(lib_a-reent.o)
settings            0x28              LSM9DS1_Driver.o
TimerIdSentMsg      0x4               SendMeasurementsToBt.o
_i2c_address        0x1               TSL2561.o
_autoCalc           0x1               LSM9DS1_Driver.o
zAxisf              0x1e              SendMeasurementsToBt.o
Status              0x4               LSM9DS1_Driver.o
accZ                0x14              SendMeasurementsToBt.o
gy                  0x2               LSM9DS1_Driver.o
ms                  0x4               Main.o
az                  0x2               LSM9DS1_Driver.o
temperature         0x2               LSM9DS1_Driver.o
yAxis               0xa               SendMeasurementsToBt.o
WriteTimerId        0x4               LSM9DS1_Driver.o
my                  0x2               LSM9DS1_Driver.o
magZ                0x14              SendMeasurementsToBt.o
copiedData          0x4b0             SendMeasurementsToBt.o
xAxis               0xa               SendMeasurementsToBt.o
ax                  0x2               LSM9DS1_Driver.o
aRes                0x4               LSM9DS1_Driver.o
humidity            0x1e              SendMeasurementsToBt.o
_mAddress           0x1               LSM9DS1_Driver.o
accelOsY            0x64              LSM9DS1_Driver.o
gyrZ                0x14              SendMeasurementsToBt.o
_xgAddress          0x1               LSM9DS1_Driver.o
TimerIdReadBytes    0x4               LSM9DS1_Driver.o
xAxisf              0x1e              SendMeasurementsToBt.o
gBiasRaw            0x6               LSM9DS1_Driver.o
pomiaryAccel        0x4b0             LSM9DS1_Driver.o
aBiasRaw            0x6               LSM9DS1_Driver.o
WriteTimerStatus    0x4               LSM9DS1_Driver.o
TimerRdHumid        0x4               HTU21D.o
time                0x1               Main.o
adrAndData          0x17              LSM9DS1_Driver.o
gain                0x4               Main.o
gz                  0x2               LSM9DS1_Driver.o
gyrX                0x14              SendMeasurementsToBt.o
accelOsZ            0x64              LSM9DS1_Driver.o
gRes                0x4               LSM9DS1_Driver.o
mz                  0x2               LSM9DS1_Driver.o
TimerRdTmp          0x4               HTU21D.o
yAxisf              0x1e              SendMeasurementsToBt.o
_error              0x1               TSL2561.o
turnedOnSentTimer   0x4               SendMeasurementsToBt.o
gyrY                0x14              SendMeasurementsToBt.o
gBias               0xc               LSM9DS1_Driver.o
mRes                0x4               LSM9DS1_Driver.o
json_data           0x12c             SendMeasurementsToBt.o
accY                0x14              SendMeasurementsToBt.o
gx                  0x2               LSM9DS1_Driver.o
device              0x14              BluetoothDriver.o
ay                  0x2               LSM9DS1_Driver.o
magX                0x14              SendMeasurementsToBt.o
zAxis               0xa               SendMeasurementsToBt.o
mx                  0x2               LSM9DS1_Driver.o
accX                0x14              SendMeasurementsToBt.o
luminosity          0x8               TSL2561.o
TimerId             0x4               LSM9DS1_Driver.o
mBias               0xc               LSM9DS1_Driver.o

Discarded input sections

 .group         0x00000000        0x8 BluetoothDriver.o
 .group         0x00000000        0x8 BluetoothDriver.o
 .group         0x00000000        0x8 BluetoothDriver.o
 .group         0x00000000        0x8 BluetoothDriver.o
 .group         0x00000000        0x8 BluetoothDriver.o
 .group         0x00000000        0x8 BluetoothDriver.o
 .group         0x00000000        0x8 BluetoothDriver.o
 .group         0x00000000        0x8 BluetoothDriver.o
 .group         0x00000000        0x8 BluetoothDriver.o
 .group         0x00000000        0x8 BluetoothDriver.o
 .group         0x00000000        0x8 BluetoothDriver.o
 .group         0x00000000        0x8 BluetoothDriver.o
 .group         0x00000000        0x8 BluetoothDriver.o
 .group         0x00000000        0x8 BluetoothDriver.o
 .group         0x00000000        0x8 BluetoothDriver.o
 .group         0x00000000        0x8 BluetoothDriver.o
 .group         0x00000000        0x8 BluetoothDriver.o
 .group         0x00000000        0x8 BluetoothDriver.o
 .group         0x00000000        0x8 BluetoothDriver.o
 .group         0x00000000        0x8 BluetoothDriver.o
 .group         0x00000000        0x8 BluetoothDriver.o
 .group         0x00000000        0x8 BluetoothDriver.o
 .group         0x00000000        0x8 BluetoothDriver.o
 .group         0x00000000        0x8 BluetoothDriver.o
 .group         0x00000000        0x8 BluetoothDriver.o
 .group         0x00000000        0x8 BluetoothDriver.o
 .group         0x00000000        0x8 BluetoothDriver.o
 .group         0x00000000        0x8 BluetoothDriver.o
 .group         0x00000000        0x8 BluetoothDriver.o
 .group         0x00000000        0x8 BluetoothDriver.o
 .group         0x00000000        0x8 BluetoothDriver.o
 .group         0x00000000        0x8 BluetoothDriver.o
 .group         0x00000000        0x8 BluetoothDriver.o
 .group         0x00000000        0x8 BluetoothDriver.o
 .group         0x00000000        0x8 BluetoothDriver.o
 .group         0x00000000        0x8 BluetoothDriver.o
 .group         0x00000000        0x8 BluetoothDriver.o
 .group         0x00000000        0x8 BluetoothDriver.o
 .group         0x00000000        0x8 BluetoothDriver.o
 .comment       0x00000000       0x71 BluetoothDriver.o
 .group         0x00000000        0x8 CleanArray.o
 .debug_macro   0x00000000      0x814 CleanArray.o
 .comment       0x00000000       0x71 CleanArray.o
 .group         0x00000000        0x8 FIFO_functions.o
 .group         0x00000000        0x8 FIFO_functions.o
 .group         0x00000000        0x8 FIFO_functions.o
 .group         0x00000000        0x8 FIFO_functions.o
 .group         0x00000000        0x8 FIFO_functions.o
 .group         0x00000000        0x8 FIFO_functions.o
 .group         0x00000000        0x8 FIFO_functions.o
 .group         0x00000000        0x8 FIFO_functions.o
 .group         0x00000000        0x8 FIFO_functions.o
 .group         0x00000000        0x8 FIFO_functions.o
 .group         0x00000000        0x8 FIFO_functions.o
 .group         0x00000000        0x8 FIFO_functions.o
 .group         0x00000000        0x8 FIFO_functions.o
 .group         0x00000000        0x8 FIFO_functions.o
 .group         0x00000000        0x8 FIFO_functions.o
 .group         0x00000000        0x8 FIFO_functions.o
 .group         0x00000000        0x8 FIFO_functions.o
 .group         0x00000000        0x8 FIFO_functions.o
 .group         0x00000000        0x8 FIFO_functions.o
 .group         0x00000000        0x8 FIFO_functions.o
 .group         0x00000000        0x8 FIFO_functions.o
 .group         0x00000000        0x8 FIFO_functions.o
 .group         0x00000000        0x8 FIFO_functions.o
 .group         0x00000000        0x8 FIFO_functions.o
 .group         0x00000000        0x8 FIFO_functions.o
 .group         0x00000000        0x8 FIFO_functions.o
 .group         0x00000000        0x8 FIFO_functions.o
 .group         0x00000000        0x8 FIFO_functions.o
 .group         0x00000000        0x8 FIFO_functions.o
 .debug_macro   0x00000000      0x814 FIFO_functions.o
 .debug_macro   0x00000000       0x2d FIFO_functions.o
 .debug_macro   0x00000000       0x3b FIFO_functions.o
 .debug_macro   0x00000000       0x3a FIFO_functions.o
 .debug_macro   0x00000000       0x10 FIFO_functions.o
 .debug_macro   0x00000000       0x2e FIFO_functions.o
 .debug_macro   0x00000000       0xa3 FIFO_functions.o
 .debug_macro   0x00000000      0x20e FIFO_functions.o
 .debug_macro   0x00000000       0x2d FIFO_functions.o
 .debug_macro   0x00000000       0x42 FIFO_functions.o
 .debug_macro   0x00000000      0xd39 FIFO_functions.o
 .debug_macro   0x00000000       0x70 FIFO_functions.o
 .debug_macro   0x00000000    0x150f5 FIFO_functions.o
 .debug_macro   0x00000000      0x16c FIFO_functions.o
 .debug_macro   0x00000000       0x22 FIFO_functions.o
 .debug_macro   0x00000000      0x54a FIFO_functions.o
 .debug_macro   0x00000000       0x64 FIFO_functions.o
 .debug_macro   0x00000000       0x46 FIFO_functions.o
 .debug_macro   0x00000000      0x160 FIFO_functions.o
 .debug_macro   0x00000000      0x130 FIFO_functions.o
 .debug_macro   0x00000000       0x7f FIFO_functions.o
 .debug_macro   0x00000000       0xb4 FIFO_functions.o
 .debug_macro   0x00000000       0xb5 FIFO_functions.o
 .debug_macro   0x00000000       0x49 FIFO_functions.o
 .debug_macro   0x00000000       0x2e FIFO_functions.o
 .debug_macro   0x00000000       0x2d FIFO_functions.o
 .debug_macro   0x00000000       0x28 FIFO_functions.o
 .debug_macro   0x00000000       0x28 FIFO_functions.o
 .debug_macro   0x00000000       0x2e FIFO_functions.o
 .comment       0x00000000       0x71 FIFO_functions.o
 .group         0x00000000        0x8 HTU21D.o
 .group         0x00000000        0x8 HTU21D.o
 .group         0x00000000        0x8 HTU21D.o
 .group         0x00000000        0x8 HTU21D.o
 .group         0x00000000        0x8 HTU21D.o
 .group         0x00000000        0x8 HTU21D.o
 .group         0x00000000        0x8 HTU21D.o
 .group         0x00000000        0x8 HTU21D.o
 .group         0x00000000        0x8 HTU21D.o
 .group         0x00000000        0x8 HTU21D.o
 .group         0x00000000        0x8 HTU21D.o
 .group         0x00000000        0x8 HTU21D.o
 .group         0x00000000        0x8 HTU21D.o
 .group         0x00000000        0x8 HTU21D.o
 .group         0x00000000        0x8 HTU21D.o
 .group         0x00000000        0x8 HTU21D.o
 .group         0x00000000        0x8 HTU21D.o
 .group         0x00000000        0x8 HTU21D.o
 .group         0x00000000        0x8 HTU21D.o
 .group         0x00000000        0x8 HTU21D.o
 .group         0x00000000        0x8 HTU21D.o
 .group         0x00000000        0x8 HTU21D.o
 .group         0x00000000        0x8 HTU21D.o
 .group         0x00000000        0x8 HTU21D.o
 .group         0x00000000        0x8 HTU21D.o
 .group         0x00000000        0x8 HTU21D.o
 .group         0x00000000        0x8 HTU21D.o
 .group         0x00000000        0x8 HTU21D.o
 .group         0x00000000        0x8 HTU21D.o
 .group         0x00000000        0x8 HTU21D.o
 .debug_macro   0x00000000      0x814 HTU21D.o
 .debug_macro   0x00000000       0x2d HTU21D.o
 .debug_macro   0x00000000       0x3b HTU21D.o
 .debug_macro   0x00000000       0x3a HTU21D.o
 .debug_macro   0x00000000       0x10 HTU21D.o
 .debug_macro   0x00000000       0x2e HTU21D.o
 .debug_macro   0x00000000       0xa3 HTU21D.o
 .debug_macro   0x00000000      0x20e HTU21D.o
 .debug_macro   0x00000000       0x2d HTU21D.o
 .debug_macro   0x00000000       0x42 HTU21D.o
 .debug_macro   0x00000000      0xd39 HTU21D.o
 .debug_macro   0x00000000       0x70 HTU21D.o
 .debug_macro   0x00000000    0x150f5 HTU21D.o
 .debug_macro   0x00000000      0x16c HTU21D.o
 .debug_macro   0x00000000       0x22 HTU21D.o
 .debug_macro   0x00000000      0x54a HTU21D.o
 .debug_macro   0x00000000       0x64 HTU21D.o
 .debug_macro   0x00000000       0x46 HTU21D.o
 .debug_macro   0x00000000      0x160 HTU21D.o
 .debug_macro   0x00000000      0x130 HTU21D.o
 .debug_macro   0x00000000       0x7f HTU21D.o
 .debug_macro   0x00000000       0xb4 HTU21D.o
 .debug_macro   0x00000000       0xb5 HTU21D.o
 .debug_macro   0x00000000       0x49 HTU21D.o
 .debug_macro   0x00000000       0x2e HTU21D.o
 .debug_macro   0x00000000       0x2d HTU21D.o
 .debug_macro   0x00000000       0x28 HTU21D.o
 .debug_macro   0x00000000       0x28 HTU21D.o
 .debug_macro   0x00000000       0x2e HTU21D.o
 .comment       0x00000000       0x71 HTU21D.o
 .group         0x00000000        0x8 LSM9DS1_Driver.o
 .group         0x00000000        0x8 LSM9DS1_Driver.o
 .group         0x00000000        0x8 LSM9DS1_Driver.o
 .group         0x00000000        0x8 LSM9DS1_Driver.o
 .group         0x00000000        0x8 LSM9DS1_Driver.o
 .group         0x00000000        0x8 LSM9DS1_Driver.o
 .group         0x00000000        0x8 LSM9DS1_Driver.o
 .group         0x00000000        0x8 LSM9DS1_Driver.o
 .group         0x00000000        0x8 LSM9DS1_Driver.o
 .group         0x00000000        0x8 LSM9DS1_Driver.o
 .group         0x00000000        0x8 LSM9DS1_Driver.o
 .group         0x00000000        0x8 LSM9DS1_Driver.o
 .group         0x00000000        0x8 LSM9DS1_Driver.o
 .group         0x00000000        0x8 LSM9DS1_Driver.o
 .group         0x00000000        0x8 LSM9DS1_Driver.o
 .group         0x00000000        0x8 LSM9DS1_Driver.o
 .group         0x00000000        0x8 LSM9DS1_Driver.o
 .group         0x00000000        0x8 LSM9DS1_Driver.o
 .group         0x00000000        0x8 LSM9DS1_Driver.o
 .group         0x00000000        0x8 LSM9DS1_Driver.o
 .group         0x00000000        0x8 LSM9DS1_Driver.o
 .group         0x00000000        0x8 LSM9DS1_Driver.o
 .group         0x00000000        0x8 LSM9DS1_Driver.o
 .group         0x00000000        0x8 LSM9DS1_Driver.o
 .group         0x00000000        0x8 LSM9DS1_Driver.o
 .group         0x00000000        0x8 LSM9DS1_Driver.o
 .group         0x00000000        0x8 LSM9DS1_Driver.o
 .group         0x00000000        0x8 LSM9DS1_Driver.o
 .group         0x00000000        0x8 LSM9DS1_Driver.o
 .group         0x00000000        0x8 LSM9DS1_Driver.o
 .group         0x00000000        0x8 LSM9DS1_Driver.o
 .group         0x00000000        0x8 LSM9DS1_Driver.o
 .group         0x00000000        0x8 LSM9DS1_Driver.o
 .group         0x00000000        0x8 LSM9DS1_Driver.o
 .group         0x00000000        0x8 LSM9DS1_Driver.o
 .group         0x00000000        0x8 LSM9DS1_Driver.o
 .group         0x00000000        0x8 LSM9DS1_Driver.o
 .group         0x00000000        0x8 LSM9DS1_Driver.o
 .group         0x00000000        0x8 LSM9DS1_Driver.o
 .group         0x00000000        0x8 LSM9DS1_Driver.o
 .group         0x00000000        0x8 LSM9DS1_Driver.o
 .group         0x00000000        0x8 LSM9DS1_Driver.o
 .group         0x00000000        0x8 LSM9DS1_Driver.o
 .group         0x00000000        0x8 LSM9DS1_Driver.o
 .group         0x00000000        0x8 LSM9DS1_Driver.o
 .group         0x00000000        0x8 LSM9DS1_Driver.o
 .group         0x00000000        0x8 LSM9DS1_Driver.o
 .group         0x00000000        0x8 LSM9DS1_Driver.o
 .group         0x00000000        0x8 LSM9DS1_Driver.o
 .group         0x00000000        0x8 LSM9DS1_Driver.o
 .group         0x00000000        0x8 LSM9DS1_Driver.o
 .group         0x00000000        0x8 LSM9DS1_Driver.o
 .debug_macro   0x00000000      0x814 LSM9DS1_Driver.o
 .debug_macro   0x00000000       0x3a LSM9DS1_Driver.o
 .debug_macro   0x00000000       0x10 LSM9DS1_Driver.o
 .debug_macro   0x00000000       0x2e LSM9DS1_Driver.o
 .debug_macro   0x00000000       0xa3 LSM9DS1_Driver.o
 .debug_macro   0x00000000      0x20e LSM9DS1_Driver.o
 .debug_macro   0x00000000       0x2d LSM9DS1_Driver.o
 .debug_macro   0x00000000       0x3b LSM9DS1_Driver.o
 .debug_macro   0x00000000       0x2d LSM9DS1_Driver.o
 .debug_macro   0x00000000       0x42 LSM9DS1_Driver.o
 .debug_macro   0x00000000      0xd39 LSM9DS1_Driver.o
 .debug_macro   0x00000000       0x70 LSM9DS1_Driver.o
 .debug_macro   0x00000000    0x150f5 LSM9DS1_Driver.o
 .debug_macro   0x00000000      0x16c LSM9DS1_Driver.o
 .debug_macro   0x00000000       0x22 LSM9DS1_Driver.o
 .debug_macro   0x00000000      0x54a LSM9DS1_Driver.o
 .debug_macro   0x00000000       0x64 LSM9DS1_Driver.o
 .debug_macro   0x00000000       0x46 LSM9DS1_Driver.o
 .debug_macro   0x00000000      0x160 LSM9DS1_Driver.o
 .debug_macro   0x00000000      0x130 LSM9DS1_Driver.o
 .debug_macro   0x00000000       0x7f LSM9DS1_Driver.o
 .debug_macro   0x00000000       0xb4 LSM9DS1_Driver.o
 .debug_macro   0x00000000       0xb5 LSM9DS1_Driver.o
 .debug_macro   0x00000000       0x49 LSM9DS1_Driver.o
 .debug_macro   0x00000000       0x2e LSM9DS1_Driver.o
 .debug_macro   0x00000000       0x2d LSM9DS1_Driver.o
 .debug_macro   0x00000000       0x28 LSM9DS1_Driver.o
 .debug_macro   0x00000000       0x28 LSM9DS1_Driver.o
 .debug_macro   0x00000000       0x2e LSM9DS1_Driver.o
 .debug_macro   0x00000000       0x35 LSM9DS1_Driver.o
 .debug_macro   0x00000000       0x3a LSM9DS1_Driver.o
 .debug_macro   0x00000000       0x52 LSM9DS1_Driver.o
 .debug_macro   0x00000000       0x43 LSM9DS1_Driver.o
 .debug_macro   0x00000000      0x16d LSM9DS1_Driver.o
 .debug_macro   0x00000000       0x10 LSM9DS1_Driver.o
 .debug_macro   0x00000000       0x1c LSM9DS1_Driver.o
 .debug_macro   0x00000000       0x10 LSM9DS1_Driver.o
 .debug_macro   0x00000000       0x16 LSM9DS1_Driver.o
 .debug_macro   0x00000000       0x23 LSM9DS1_Driver.o
 .comment       0x00000000       0x71 LSM9DS1_Driver.o
 .group         0x00000000        0x8 Main.o
 .group         0x00000000        0x8 Main.o
 .group         0x00000000        0x8 Main.o
 .group         0x00000000        0x8 Main.o
 .group         0x00000000        0x8 Main.o
 .group         0x00000000        0x8 Main.o
 .group         0x00000000        0x8 Main.o
 .group         0x00000000        0x8 Main.o
 .group         0x00000000        0x8 Main.o
 .group         0x00000000        0x8 Main.o
 .group         0x00000000        0x8 Main.o
 .group         0x00000000        0x8 Main.o
 .group         0x00000000        0x8 Main.o
 .group         0x00000000        0x8 Main.o
 .group         0x00000000        0x8 Main.o
 .group         0x00000000        0x8 Main.o
 .group         0x00000000        0x8 Main.o
 .group         0x00000000        0x8 Main.o
 .group         0x00000000        0x8 Main.o
 .group         0x00000000        0x8 Main.o
 .group         0x00000000        0x8 Main.o
 .group         0x00000000        0x8 Main.o
 .group         0x00000000        0x8 Main.o
 .group         0x00000000        0x8 Main.o
 .group         0x00000000        0x8 Main.o
 .group         0x00000000        0x8 Main.o
 .group         0x00000000        0x8 Main.o
 .group         0x00000000        0x8 Main.o
 .group         0x00000000        0x8 Main.o
 .group         0x00000000        0x8 Main.o
 .group         0x00000000        0x8 Main.o
 .group         0x00000000        0x8 Main.o
 .group         0x00000000        0x8 Main.o
 .group         0x00000000        0x8 Main.o
 .group         0x00000000        0x8 Main.o
 .group         0x00000000        0x8 Main.o
 .group         0x00000000        0x8 Main.o
 .group         0x00000000        0x8 Main.o
 .group         0x00000000        0x8 Main.o
 .group         0x00000000        0x8 Main.o
 .group         0x00000000        0x8 Main.o
 .group         0x00000000        0x8 Main.o
 .group         0x00000000        0x8 Main.o
 .group         0x00000000        0x8 Main.o
 .group         0x00000000        0x8 Main.o
 .group         0x00000000        0x8 Main.o
 .group         0x00000000        0x8 Main.o
 .group         0x00000000        0x8 Main.o
 .group         0x00000000        0x8 Main.o
 .group         0x00000000        0x8 Main.o
 .debug_macro   0x00000000      0x814 Main.o
 .debug_macro   0x00000000       0x2d Main.o
 .debug_macro   0x00000000       0x3b Main.o
 .debug_macro   0x00000000       0x3a Main.o
 .debug_macro   0x00000000       0x10 Main.o
 .debug_macro   0x00000000       0x2e Main.o
 .debug_macro   0x00000000       0xa3 Main.o
 .debug_macro   0x00000000      0x20e Main.o
 .debug_macro   0x00000000       0x2d Main.o
 .debug_macro   0x00000000       0x42 Main.o
 .debug_macro   0x00000000      0xd39 Main.o
 .debug_macro   0x00000000       0x70 Main.o
 .debug_macro   0x00000000    0x150f5 Main.o
 .debug_macro   0x00000000      0x16c Main.o
 .debug_macro   0x00000000       0x22 Main.o
 .debug_macro   0x00000000      0x54a Main.o
 .debug_macro   0x00000000       0x64 Main.o
 .debug_macro   0x00000000       0x46 Main.o
 .debug_macro   0x00000000      0x160 Main.o
 .debug_macro   0x00000000      0x130 Main.o
 .debug_macro   0x00000000       0x7f Main.o
 .debug_macro   0x00000000       0xb4 Main.o
 .debug_macro   0x00000000       0xb5 Main.o
 .debug_macro   0x00000000       0x49 Main.o
 .debug_macro   0x00000000       0x2e Main.o
 .debug_macro   0x00000000       0x2d Main.o
 .debug_macro   0x00000000       0x28 Main.o
 .debug_macro   0x00000000       0x28 Main.o
 .debug_macro   0x00000000       0x2e Main.o
 .debug_macro   0x00000000       0x10 Main.o
 .debug_macro   0x00000000       0x35 Main.o
 .debug_macro   0x00000000       0x3a Main.o
 .debug_macro   0x00000000       0x52 Main.o
 .debug_macro   0x00000000       0x43 Main.o
 .debug_macro   0x00000000      0x16d Main.o
 .debug_macro   0x00000000       0x16 Main.o
 .debug_macro   0x00000000       0x23 Main.o
 .debug_macro   0x00000000       0x16 Main.o
 .debug_macro   0x00000000      0x1cc Main.o
 .debug_macro   0x00000000       0x10 Main.o
 .debug_macro   0x00000000       0x10 Main.o
 .debug_macro   0x00000000       0x22 Main.o
 .debug_macro   0x00000000       0x91 Main.o
 .debug_macro   0x00000000       0x16 Main.o
 .debug_macro   0x00000000      0x16d Main.o
 .debug_macro   0x00000000       0x10 Main.o
 .debug_macro   0x00000000       0x1c Main.o
 .debug_macro   0x00000000      0x1da Main.o
 .debug_macro   0x00000000       0x64 Main.o
 .comment       0x00000000       0x71 Main.o
 .group         0x00000000        0x8 SendMeasurementsToBt.o
 .group         0x00000000        0x8 SendMeasurementsToBt.o
 .group         0x00000000        0x8 SendMeasurementsToBt.o
 .group         0x00000000        0x8 SendMeasurementsToBt.o
 .group         0x00000000        0x8 SendMeasurementsToBt.o
 .group         0x00000000        0x8 SendMeasurementsToBt.o
 .group         0x00000000        0x8 SendMeasurementsToBt.o
 .group         0x00000000        0x8 SendMeasurementsToBt.o
 .group         0x00000000        0x8 SendMeasurementsToBt.o
 .group         0x00000000        0x8 SendMeasurementsToBt.o
 .group         0x00000000        0x8 SendMeasurementsToBt.o
 .group         0x00000000        0x8 SendMeasurementsToBt.o
 .group         0x00000000        0x8 SendMeasurementsToBt.o
 .group         0x00000000        0x8 SendMeasurementsToBt.o
 .group         0x00000000        0x8 SendMeasurementsToBt.o
 .group         0x00000000        0x8 SendMeasurementsToBt.o
 .group         0x00000000        0x8 SendMeasurementsToBt.o
 .group         0x00000000        0x8 SendMeasurementsToBt.o
 .group         0x00000000        0x8 SendMeasurementsToBt.o
 .group         0x00000000        0x8 SendMeasurementsToBt.o
 .group         0x00000000        0x8 SendMeasurementsToBt.o
 .group         0x00000000        0x8 SendMeasurementsToBt.o
 .group         0x00000000        0x8 SendMeasurementsToBt.o
 .group         0x00000000        0x8 SendMeasurementsToBt.o
 .group         0x00000000        0x8 SendMeasurementsToBt.o
 .group         0x00000000        0x8 SendMeasurementsToBt.o
 .group         0x00000000        0x8 SendMeasurementsToBt.o
 .group         0x00000000        0x8 SendMeasurementsToBt.o
 .group         0x00000000        0x8 SendMeasurementsToBt.o
 .group         0x00000000        0x8 SendMeasurementsToBt.o
 .group         0x00000000        0x8 SendMeasurementsToBt.o
 .group         0x00000000        0x8 SendMeasurementsToBt.o
 .group         0x00000000        0x8 SendMeasurementsToBt.o
 .group         0x00000000        0x8 SendMeasurementsToBt.o
 .group         0x00000000        0x8 SendMeasurementsToBt.o
 .group         0x00000000        0x8 SendMeasurementsToBt.o
 .group         0x00000000        0x8 SendMeasurementsToBt.o
 .group         0x00000000        0x8 SendMeasurementsToBt.o
 .group         0x00000000        0x8 SendMeasurementsToBt.o
 .group         0x00000000        0x8 SendMeasurementsToBt.o
 .group         0x00000000        0x8 SendMeasurementsToBt.o
 .group         0x00000000        0x8 SendMeasurementsToBt.o
 .group         0x00000000        0x8 SendMeasurementsToBt.o
 .group         0x00000000        0x8 SendMeasurementsToBt.o
 .group         0x00000000        0x8 SendMeasurementsToBt.o
 .group         0x00000000        0x8 SendMeasurementsToBt.o
 .group         0x00000000        0x8 SendMeasurementsToBt.o
 .group         0x00000000        0x8 SendMeasurementsToBt.o
 .group         0x00000000        0x8 SendMeasurementsToBt.o
 .group         0x00000000        0x8 SendMeasurementsToBt.o
 .group         0x00000000        0x8 SendMeasurementsToBt.o
 .debug_macro   0x00000000      0x814 SendMeasurementsToBt.o
 .debug_macro   0x00000000       0x16 SendMeasurementsToBt.o
 .debug_macro   0x00000000      0x1cc SendMeasurementsToBt.o
 .debug_macro   0x00000000       0x3a SendMeasurementsToBt.o
 .debug_macro   0x00000000       0x10 SendMeasurementsToBt.o
 .debug_macro   0x00000000       0x2e SendMeasurementsToBt.o
 .debug_macro   0x00000000       0xa3 SendMeasurementsToBt.o
 .debug_macro   0x00000000      0x20e SendMeasurementsToBt.o
 .debug_macro   0x00000000       0x2d SendMeasurementsToBt.o
 .debug_macro   0x00000000       0x3b SendMeasurementsToBt.o
 .debug_macro   0x00000000       0x2d SendMeasurementsToBt.o
 .debug_macro   0x00000000       0x42 SendMeasurementsToBt.o
 .debug_macro   0x00000000      0xd39 SendMeasurementsToBt.o
 .debug_macro   0x00000000       0x70 SendMeasurementsToBt.o
 .debug_macro   0x00000000    0x150f5 SendMeasurementsToBt.o
 .debug_macro   0x00000000      0x16c SendMeasurementsToBt.o
 .debug_macro   0x00000000       0x22 SendMeasurementsToBt.o
 .debug_macro   0x00000000      0x54a SendMeasurementsToBt.o
 .debug_macro   0x00000000       0x64 SendMeasurementsToBt.o
 .debug_macro   0x00000000       0x46 SendMeasurementsToBt.o
 .debug_macro   0x00000000      0x160 SendMeasurementsToBt.o
 .debug_macro   0x00000000      0x130 SendMeasurementsToBt.o
 .debug_macro   0x00000000       0x7f SendMeasurementsToBt.o
 .debug_macro   0x00000000       0xb4 SendMeasurementsToBt.o
 .debug_macro   0x00000000       0xb5 SendMeasurementsToBt.o
 .debug_macro   0x00000000       0x49 SendMeasurementsToBt.o
 .debug_macro   0x00000000       0x2e SendMeasurementsToBt.o
 .debug_macro   0x00000000       0x2d SendMeasurementsToBt.o
 .debug_macro   0x00000000       0x28 SendMeasurementsToBt.o
 .debug_macro   0x00000000       0x28 SendMeasurementsToBt.o
 .debug_macro   0x00000000       0x2e SendMeasurementsToBt.o
 .debug_macro   0x00000000       0x10 SendMeasurementsToBt.o
 .debug_macro   0x00000000       0x35 SendMeasurementsToBt.o
 .debug_macro   0x00000000       0x10 SendMeasurementsToBt.o
 .debug_macro   0x00000000       0x3a SendMeasurementsToBt.o
 .debug_macro   0x00000000       0x52 SendMeasurementsToBt.o
 .debug_macro   0x00000000       0x43 SendMeasurementsToBt.o
 .debug_macro   0x00000000      0x16d SendMeasurementsToBt.o
 .debug_macro   0x00000000       0x10 SendMeasurementsToBt.o
 .debug_macro   0x00000000       0x22 SendMeasurementsToBt.o
 .debug_macro   0x00000000       0x91 SendMeasurementsToBt.o
 .debug_macro   0x00000000       0x16 SendMeasurementsToBt.o
 .debug_macro   0x00000000      0x16d SendMeasurementsToBt.o
 .debug_macro   0x00000000       0x10 SendMeasurementsToBt.o
 .debug_macro   0x00000000       0x16 SendMeasurementsToBt.o
 .debug_macro   0x00000000       0x23 SendMeasurementsToBt.o
 .debug_macro   0x00000000       0x10 SendMeasurementsToBt.o
 .debug_macro   0x00000000       0x1c SendMeasurementsToBt.o
 .debug_macro   0x00000000      0x1da SendMeasurementsToBt.o
 .debug_macro   0x00000000       0x64 SendMeasurementsToBt.o
 .comment       0x00000000       0x71 SendMeasurementsToBt.o
 .group         0x00000000        0x8 TSL2561.o
 .group         0x00000000        0x8 TSL2561.o
 .group         0x00000000        0x8 TSL2561.o
 .group         0x00000000        0x8 TSL2561.o
 .group         0x00000000        0x8 TSL2561.o
 .group         0x00000000        0x8 TSL2561.o
 .group         0x00000000        0x8 TSL2561.o
 .group         0x00000000        0x8 TSL2561.o
 .group         0x00000000        0x8 TSL2561.o
 .group         0x00000000        0x8 TSL2561.o
 .group         0x00000000        0x8 TSL2561.o
 .group         0x00000000        0x8 TSL2561.o
 .group         0x00000000        0x8 TSL2561.o
 .group         0x00000000        0x8 TSL2561.o
 .group         0x00000000        0x8 TSL2561.o
 .group         0x00000000        0x8 TSL2561.o
 .group         0x00000000        0x8 TSL2561.o
 .group         0x00000000        0x8 TSL2561.o
 .group         0x00000000        0x8 TSL2561.o
 .group         0x00000000        0x8 TSL2561.o
 .group         0x00000000        0x8 TSL2561.o
 .group         0x00000000        0x8 TSL2561.o
 .group         0x00000000        0x8 TSL2561.o
 .group         0x00000000        0x8 TSL2561.o
 .group         0x00000000        0x8 TSL2561.o
 .group         0x00000000        0x8 TSL2561.o
 .group         0x00000000        0x8 TSL2561.o
 .group         0x00000000        0x8 TSL2561.o
 .group         0x00000000        0x8 TSL2561.o
 .group         0x00000000        0x8 TSL2561.o
 .group         0x00000000        0x8 TSL2561.o
 .group         0x00000000        0x8 TSL2561.o
 .group         0x00000000        0x8 TSL2561.o
 .group         0x00000000        0x8 TSL2561.o
 .group         0x00000000        0x8 TSL2561.o
 .group         0x00000000        0x8 TSL2561.o
 .group         0x00000000        0x8 TSL2561.o
 .debug_macro   0x00000000      0x814 TSL2561.o
 .debug_macro   0x00000000       0x3a TSL2561.o
 .debug_macro   0x00000000       0x10 TSL2561.o
 .debug_macro   0x00000000       0x2e TSL2561.o
 .debug_macro   0x00000000       0xa3 TSL2561.o
 .debug_macro   0x00000000      0x20e TSL2561.o
 .debug_macro   0x00000000       0x3a TSL2561.o
 .debug_macro   0x00000000       0x52 TSL2561.o
 .debug_macro   0x00000000      0x16d TSL2561.o
 .debug_macro   0x00000000       0x2d TSL2561.o
 .debug_macro   0x00000000       0x3b TSL2561.o
 .debug_macro   0x00000000       0x2d TSL2561.o
 .debug_macro   0x00000000       0x42 TSL2561.o
 .debug_macro   0x00000000      0xd39 TSL2561.o
 .debug_macro   0x00000000       0x70 TSL2561.o
 .debug_macro   0x00000000    0x150f5 TSL2561.o
 .debug_macro   0x00000000       0x22 TSL2561.o
 .debug_macro   0x00000000      0x54a TSL2561.o
 .debug_macro   0x00000000       0x64 TSL2561.o
 .debug_macro   0x00000000       0x46 TSL2561.o
 .debug_macro   0x00000000      0x160 TSL2561.o
 .debug_macro   0x00000000      0x130 TSL2561.o
 .debug_macro   0x00000000       0x7f TSL2561.o
 .debug_macro   0x00000000       0xb4 TSL2561.o
 .debug_macro   0x00000000       0xb5 TSL2561.o
 .debug_macro   0x00000000       0x49 TSL2561.o
 .debug_macro   0x00000000       0x2e TSL2561.o
 .debug_macro   0x00000000       0x2d TSL2561.o
 .debug_macro   0x00000000       0x28 TSL2561.o
 .debug_macro   0x00000000       0x28 TSL2561.o
 .debug_macro   0x00000000       0x2e TSL2561.o
 .debug_macro   0x00000000      0x1da TSL2561.o
 .debug_macro   0x00000000       0x64 TSL2561.o
 .comment       0x00000000       0x71 TSL2561.o
 .group         0x00000000        0x8 Timer.o
 .group         0x00000000        0x8 Timer.o
 .group         0x00000000        0x8 Timer.o
 .group         0x00000000        0x8 Timer.o
 .group         0x00000000        0x8 Timer.o
 .group         0x00000000        0x8 Timer.o
 .group         0x00000000        0x8 Timer.o
 .group         0x00000000        0x8 Timer.o
 .group         0x00000000        0x8 Timer.o
 .group         0x00000000        0x8 Timer.o
 .group         0x00000000        0x8 Timer.o
 .group         0x00000000        0x8 Timer.o
 .group         0x00000000        0x8 Timer.o
 .group         0x00000000        0x8 Timer.o
 .group         0x00000000        0x8 Timer.o
 .group         0x00000000        0x8 Timer.o
 .group         0x00000000        0x8 Timer.o
 .group         0x00000000        0x8 Timer.o
 .group         0x00000000        0x8 Timer.o
 .group         0x00000000        0x8 Timer.o
 .group         0x00000000        0x8 Timer.o
 .group         0x00000000        0x8 Timer.o
 .group         0x00000000        0x8 Timer.o
 .group         0x00000000        0x8 Timer.o
 .group         0x00000000        0x8 Timer.o
 .group         0x00000000        0x8 Timer.o
 .group         0x00000000        0x8 Timer.o
 .group         0x00000000        0x8 Timer.o
 .group         0x00000000        0x8 Timer.o
 .debug_macro   0x00000000      0x814 Timer.o
 .debug_macro   0x00000000       0x2d Timer.o
 .debug_macro   0x00000000       0x3b Timer.o
 .debug_macro   0x00000000       0x3a Timer.o
 .debug_macro   0x00000000       0x10 Timer.o
 .debug_macro   0x00000000       0x2e Timer.o
 .debug_macro   0x00000000       0xa3 Timer.o
 .debug_macro   0x00000000      0x20e Timer.o
 .debug_macro   0x00000000       0x2d Timer.o
 .debug_macro   0x00000000       0x42 Timer.o
 .debug_macro   0x00000000      0xd39 Timer.o
 .debug_macro   0x00000000       0x70 Timer.o
 .debug_macro   0x00000000    0x150f5 Timer.o
 .debug_macro   0x00000000      0x16c Timer.o
 .debug_macro   0x00000000       0x22 Timer.o
 .debug_macro   0x00000000      0x54a Timer.o
 .debug_macro   0x00000000       0x64 Timer.o
 .debug_macro   0x00000000       0x46 Timer.o
 .debug_macro   0x00000000      0x160 Timer.o
 .debug_macro   0x00000000      0x130 Timer.o
 .debug_macro   0x00000000       0x7f Timer.o
 .debug_macro   0x00000000       0xb4 Timer.o
 .debug_macro   0x00000000       0xb5 Timer.o
 .debug_macro   0x00000000       0x49 Timer.o
 .debug_macro   0x00000000       0x2e Timer.o
 .debug_macro   0x00000000       0x2d Timer.o
 .debug_macro   0x00000000       0x28 Timer.o
 .debug_macro   0x00000000       0x28 Timer.o
 .debug_macro   0x00000000       0x2e Timer.o
 .comment       0x00000000       0x71 Timer.o
 .group         0x00000000        0x8 timerFunctions.o
 .group         0x00000000        0x8 timerFunctions.o
 .group         0x00000000        0x8 timerFunctions.o
 .group         0x00000000        0x8 timerFunctions.o
 .group         0x00000000        0x8 timerFunctions.o
 .group         0x00000000        0x8 timerFunctions.o
 .group         0x00000000        0x8 timerFunctions.o
 .group         0x00000000        0x8 timerFunctions.o
 .group         0x00000000        0x8 timerFunctions.o
 .group         0x00000000        0x8 timerFunctions.o
 .group         0x00000000        0x8 timerFunctions.o
 .group         0x00000000        0x8 timerFunctions.o
 .group         0x00000000        0x8 timerFunctions.o
 .group         0x00000000        0x8 timerFunctions.o
 .group         0x00000000        0x8 timerFunctions.o
 .group         0x00000000        0x8 timerFunctions.o
 .group         0x00000000        0x8 timerFunctions.o
 .group         0x00000000        0x8 timerFunctions.o
 .group         0x00000000        0x8 timerFunctions.o
 .group         0x00000000        0x8 timerFunctions.o
 .group         0x00000000        0x8 timerFunctions.o
 .group         0x00000000        0x8 timerFunctions.o
 .group         0x00000000        0x8 timerFunctions.o
 .group         0x00000000        0x8 timerFunctions.o
 .group         0x00000000        0x8 timerFunctions.o
 .group         0x00000000        0x8 timerFunctions.o
 .group         0x00000000        0x8 timerFunctions.o
 .group         0x00000000        0x8 timerFunctions.o
 .group         0x00000000        0x8 timerFunctions.o
 .debug_macro   0x00000000      0x814 timerFunctions.o
 .debug_macro   0x00000000       0x2d timerFunctions.o
 .debug_macro   0x00000000       0x3b timerFunctions.o
 .debug_macro   0x00000000       0x3a timerFunctions.o
 .debug_macro   0x00000000       0x10 timerFunctions.o
 .debug_macro   0x00000000       0x2e timerFunctions.o
 .debug_macro   0x00000000       0xa3 timerFunctions.o
 .debug_macro   0x00000000      0x20e timerFunctions.o
 .debug_macro   0x00000000       0x2d timerFunctions.o
 .debug_macro   0x00000000       0x42 timerFunctions.o
 .debug_macro   0x00000000      0xd39 timerFunctions.o
 .debug_macro   0x00000000       0x70 timerFunctions.o
 .debug_macro   0x00000000    0x150f5 timerFunctions.o
 .debug_macro   0x00000000      0x16c timerFunctions.o
 .debug_macro   0x00000000       0x22 timerFunctions.o
 .debug_macro   0x00000000      0x54a timerFunctions.o
 .debug_macro   0x00000000       0x64 timerFunctions.o
 .debug_macro   0x00000000       0x46 timerFunctions.o
 .debug_macro   0x00000000      0x160 timerFunctions.o
 .debug_macro   0x00000000      0x130 timerFunctions.o
 .debug_macro   0x00000000       0x7f timerFunctions.o
 .debug_macro   0x00000000       0xb4 timerFunctions.o
 .debug_macro   0x00000000       0xb5 timerFunctions.o
 .debug_macro   0x00000000       0x49 timerFunctions.o
 .debug_macro   0x00000000       0x2e timerFunctions.o
 .debug_macro   0x00000000       0x2d timerFunctions.o
 .debug_macro   0x00000000       0x28 timerFunctions.o
 .debug_macro   0x00000000       0x28 timerFunctions.o
 .debug_macro   0x00000000       0x2e timerFunctions.o
 .comment       0x00000000       0x71 timerFunctions.o
 .group         0x00000000        0x8 Startup/system_XMC4500.o
 .group         0x00000000        0x8 Startup/system_XMC4500.o
 .group         0x00000000        0x8 Startup/system_XMC4500.o
 .group         0x00000000        0x8 Startup/system_XMC4500.o
 .group         0x00000000        0x8 Startup/system_XMC4500.o
 .group         0x00000000        0x8 Startup/system_XMC4500.o
 .group         0x00000000        0x8 Startup/system_XMC4500.o
 .group         0x00000000        0x8 Startup/system_XMC4500.o
 .group         0x00000000        0x8 Startup/system_XMC4500.o
 .group         0x00000000        0x8 Startup/system_XMC4500.o
 .group         0x00000000        0x8 Startup/system_XMC4500.o
 .group         0x00000000        0x8 Startup/system_XMC4500.o
 .group         0x00000000        0x8 Startup/system_XMC4500.o
 .debug_macro   0x00000000      0x814 Startup/system_XMC4500.o
 .debug_macro   0x00000000       0x3a Startup/system_XMC4500.o
 .debug_macro   0x00000000       0x10 Startup/system_XMC4500.o
 .debug_macro   0x00000000       0x2e Startup/system_XMC4500.o
 .debug_macro   0x00000000       0xa3 Startup/system_XMC4500.o
 .debug_macro   0x00000000      0x20e Startup/system_XMC4500.o
 .debug_macro   0x00000000       0x2d Startup/system_XMC4500.o
 .debug_macro   0x00000000       0x3b Startup/system_XMC4500.o
 .debug_macro   0x00000000       0x2d Startup/system_XMC4500.o
 .debug_macro   0x00000000       0x42 Startup/system_XMC4500.o
 .debug_macro   0x00000000      0xd39 Startup/system_XMC4500.o
 .debug_macro   0x00000000    0x150f5 Startup/system_XMC4500.o
 .comment       0x00000000       0x71 Startup/system_XMC4500.o
 .group         0x00000000        0x8 Lib/System_LibcStubs.o
 .group         0x00000000        0x8 Lib/System_LibcStubs.o
 .group         0x00000000        0x8 Lib/System_LibcStubs.o
 .group         0x00000000        0x8 Lib/System_LibcStubs.o
 .group         0x00000000        0x8 Lib/System_LibcStubs.o
 .group         0x00000000        0x8 Lib/System_LibcStubs.o
 .group         0x00000000        0x8 Lib/System_LibcStubs.o
 .group         0x00000000        0x8 Lib/System_LibcStubs.o
 .group         0x00000000        0x8 Lib/System_LibcStubs.o
 .group         0x00000000        0x8 Lib/System_LibcStubs.o
 .group         0x00000000        0x8 Lib/System_LibcStubs.o
 .group         0x00000000        0x8 Lib/System_LibcStubs.o
 .group         0x00000000        0x8 Lib/System_LibcStubs.o
 .group         0x00000000        0x8 Lib/System_LibcStubs.o
 .group         0x00000000        0x8 Lib/System_LibcStubs.o
 .group         0x00000000        0x8 Lib/System_LibcStubs.o
 .group         0x00000000        0x8 Lib/System_LibcStubs.o
 .group         0x00000000        0x8 Lib/System_LibcStubs.o
 .group         0x00000000        0x8 Lib/System_LibcStubs.o
 .group         0x00000000        0x8 Lib/System_LibcStubs.o
 .group         0x00000000        0x8 Lib/System_LibcStubs.o
 .debug_macro   0x00000000      0x814 Lib/System_LibcStubs.o
 .debug_macro   0x00000000       0x3a Lib/System_LibcStubs.o
 .debug_macro   0x00000000       0x10 Lib/System_LibcStubs.o
 .debug_macro   0x00000000       0x2e Lib/System_LibcStubs.o
 .debug_macro   0x00000000       0xa3 Lib/System_LibcStubs.o
 .debug_macro   0x00000000       0x3a Lib/System_LibcStubs.o
 .debug_macro   0x00000000       0x52 Lib/System_LibcStubs.o
 .debug_macro   0x00000000       0x19 Lib/System_LibcStubs.o
 .debug_macro   0x00000000      0x16d Lib/System_LibcStubs.o
 .debug_macro   0x00000000       0x89 Lib/System_LibcStubs.o
 .debug_macro   0x00000000       0x10 Lib/System_LibcStubs.o
 .debug_macro   0x00000000       0xf5 Lib/System_LibcStubs.o
 .debug_macro   0x00000000       0x22 Lib/System_LibcStubs.o
 .debug_macro   0x00000000       0x91 Lib/System_LibcStubs.o
 .debug_macro   0x00000000       0x35 Lib/System_LibcStubs.o
 .comment       0x00000000       0x71 Lib/System_LibcStubs.o
 .group         0x00000000        0x8 Dave/Generated/src/UART001/UART001.o
 .group         0x00000000        0x8 Dave/Generated/src/UART001/UART001.o
 .group         0x00000000        0x8 Dave/Generated/src/UART001/UART001.o
 .group         0x00000000        0x8 Dave/Generated/src/UART001/UART001.o
 .group         0x00000000        0x8 Dave/Generated/src/UART001/UART001.o
 .group         0x00000000        0x8 Dave/Generated/src/UART001/UART001.o
 .group         0x00000000        0x8 Dave/Generated/src/UART001/UART001.o
 .group         0x00000000        0x8 Dave/Generated/src/UART001/UART001.o
 .group         0x00000000        0x8 Dave/Generated/src/UART001/UART001.o
 .group         0x00000000        0x8 Dave/Generated/src/UART001/UART001.o
 .group         0x00000000        0x8 Dave/Generated/src/UART001/UART001.o
 .group         0x00000000        0x8 Dave/Generated/src/UART001/UART001.o
 .group         0x00000000        0x8 Dave/Generated/src/UART001/UART001.o
 .group         0x00000000        0x8 Dave/Generated/src/UART001/UART001.o
 .group         0x00000000        0x8 Dave/Generated/src/UART001/UART001.o
 .group         0x00000000        0x8 Dave/Generated/src/UART001/UART001.o
 .group         0x00000000        0x8 Dave/Generated/src/UART001/UART001.o
 .group         0x00000000        0x8 Dave/Generated/src/UART001/UART001.o
 .debug_macro   0x00000000      0x814 Dave/Generated/src/UART001/UART001.o
 .debug_macro   0x00000000      0x130 Dave/Generated/src/UART001/UART001.o
 .debug_macro   0x00000000       0x2d Dave/Generated/src/UART001/UART001.o
 .debug_macro   0x00000000       0x3b Dave/Generated/src/UART001/UART001.o
 .debug_macro   0x00000000       0x3a Dave/Generated/src/UART001/UART001.o
 .debug_macro   0x00000000       0x10 Dave/Generated/src/UART001/UART001.o
 .debug_macro   0x00000000       0x2e Dave/Generated/src/UART001/UART001.o
 .debug_macro   0x00000000       0xa3 Dave/Generated/src/UART001/UART001.o
 .debug_macro   0x00000000      0x20e Dave/Generated/src/UART001/UART001.o
 .debug_macro   0x00000000       0x2d Dave/Generated/src/UART001/UART001.o
 .debug_macro   0x00000000       0x42 Dave/Generated/src/UART001/UART001.o
 .debug_macro   0x00000000      0xd39 Dave/Generated/src/UART001/UART001.o
 .debug_macro   0x00000000       0x70 Dave/Generated/src/UART001/UART001.o
 .debug_macro   0x00000000    0x150f5 Dave/Generated/src/UART001/UART001.o
 .debug_macro   0x00000000      0x16c Dave/Generated/src/UART001/UART001.o
 .debug_macro   0x00000000       0x22 Dave/Generated/src/UART001/UART001.o
 .debug_macro   0x00000000       0x2e Dave/Generated/src/UART001/UART001.o
 .comment       0x00000000       0x71 Dave/Generated/src/UART001/UART001.o
 .group         0x00000000        0x8 Dave/Generated/src/UART001/UART001_Conf.o
 .group         0x00000000        0x8 Dave/Generated/src/UART001/UART001_Conf.o
 .group         0x00000000        0x8 Dave/Generated/src/UART001/UART001_Conf.o
 .group         0x00000000        0x8 Dave/Generated/src/UART001/UART001_Conf.o
 .group         0x00000000        0x8 Dave/Generated/src/UART001/UART001_Conf.o
 .group         0x00000000        0x8 Dave/Generated/src/UART001/UART001_Conf.o
 .group         0x00000000        0x8 Dave/Generated/src/UART001/UART001_Conf.o
 .group         0x00000000        0x8 Dave/Generated/src/UART001/UART001_Conf.o
 .group         0x00000000        0x8 Dave/Generated/src/UART001/UART001_Conf.o
 .group         0x00000000        0x8 Dave/Generated/src/UART001/UART001_Conf.o
 .group         0x00000000        0x8 Dave/Generated/src/UART001/UART001_Conf.o
 .group         0x00000000        0x8 Dave/Generated/src/UART001/UART001_Conf.o
 .group         0x00000000        0x8 Dave/Generated/src/UART001/UART001_Conf.o
 .group         0x00000000        0x8 Dave/Generated/src/UART001/UART001_Conf.o
 .group         0x00000000        0x8 Dave/Generated/src/UART001/UART001_Conf.o
 .group         0x00000000        0x8 Dave/Generated/src/UART001/UART001_Conf.o
 .group         0x00000000        0x8 Dave/Generated/src/UART001/UART001_Conf.o
 .group         0x00000000        0x8 Dave/Generated/src/UART001/UART001_Conf.o
 .debug_macro   0x00000000      0x814 Dave/Generated/src/UART001/UART001_Conf.o
 .debug_macro   0x00000000      0x130 Dave/Generated/src/UART001/UART001_Conf.o
 .debug_macro   0x00000000       0x2d Dave/Generated/src/UART001/UART001_Conf.o
 .debug_macro   0x00000000       0x3b Dave/Generated/src/UART001/UART001_Conf.o
 .debug_macro   0x00000000       0x3a Dave/Generated/src/UART001/UART001_Conf.o
 .debug_macro   0x00000000       0x10 Dave/Generated/src/UART001/UART001_Conf.o
 .debug_macro   0x00000000       0x2e Dave/Generated/src/UART001/UART001_Conf.o
 .debug_macro   0x00000000       0xa3 Dave/Generated/src/UART001/UART001_Conf.o
 .debug_macro   0x00000000      0x20e Dave/Generated/src/UART001/UART001_Conf.o
 .debug_macro   0x00000000       0x2d Dave/Generated/src/UART001/UART001_Conf.o
 .debug_macro   0x00000000       0x42 Dave/Generated/src/UART001/UART001_Conf.o
 .debug_macro   0x00000000      0xd39 Dave/Generated/src/UART001/UART001_Conf.o
 .debug_macro   0x00000000       0x70 Dave/Generated/src/UART001/UART001_Conf.o
 .debug_macro   0x00000000    0x150f5 Dave/Generated/src/UART001/UART001_Conf.o
 .debug_macro   0x00000000       0xb0 Dave/Generated/src/UART001/UART001_Conf.o
 .debug_macro   0x00000000      0x16c Dave/Generated/src/UART001/UART001_Conf.o
 .debug_macro   0x00000000       0x22 Dave/Generated/src/UART001/UART001_Conf.o
 .debug_macro   0x00000000       0x2e Dave/Generated/src/UART001/UART001_Conf.o
 .comment       0x00000000       0x71 Dave/Generated/src/UART001/UART001_Conf.o
 .group         0x00000000        0x8 Dave/Generated/src/SYSTM001/SYSTM001.o
 .group         0x00000000        0x8 Dave/Generated/src/SYSTM001/SYSTM001.o
 .group         0x00000000        0x8 Dave/Generated/src/SYSTM001/SYSTM001.o
 .group         0x00000000        0x8 Dave/Generated/src/SYSTM001/SYSTM001.o
 .group         0x00000000        0x8 Dave/Generated/src/SYSTM001/SYSTM001.o
 .group         0x00000000        0x8 Dave/Generated/src/SYSTM001/SYSTM001.o
 .group         0x00000000        0x8 Dave/Generated/src/SYSTM001/SYSTM001.o
 .group         0x00000000        0x8 Dave/Generated/src/SYSTM001/SYSTM001.o
 .group         0x00000000        0x8 Dave/Generated/src/SYSTM001/SYSTM001.o
 .group         0x00000000        0x8 Dave/Generated/src/SYSTM001/SYSTM001.o
 .group         0x00000000        0x8 Dave/Generated/src/SYSTM001/SYSTM001.o
 .group         0x00000000        0x8 Dave/Generated/src/SYSTM001/SYSTM001.o
 .group         0x00000000        0x8 Dave/Generated/src/SYSTM001/SYSTM001.o
 .group         0x00000000        0x8 Dave/Generated/src/SYSTM001/SYSTM001.o
 .group         0x00000000        0x8 Dave/Generated/src/SYSTM001/SYSTM001.o
 .group         0x00000000        0x8 Dave/Generated/src/SYSTM001/SYSTM001.o
 .group         0x00000000        0x8 Dave/Generated/src/SYSTM001/SYSTM001.o
 .group         0x00000000        0x8 Dave/Generated/src/SYSTM001/SYSTM001.o
 .group         0x00000000        0x8 Dave/Generated/src/SYSTM001/SYSTM001.o
 .group         0x00000000        0x8 Dave/Generated/src/SYSTM001/SYSTM001.o
 .group         0x00000000        0x8 Dave/Generated/src/SYSTM001/SYSTM001.o
 .group         0x00000000        0x8 Dave/Generated/src/SYSTM001/SYSTM001.o
 .group         0x00000000        0x8 Dave/Generated/src/SYSTM001/SYSTM001.o
 .group         0x00000000        0x8 Dave/Generated/src/SYSTM001/SYSTM001.o
 .group         0x00000000        0x8 Dave/Generated/src/SYSTM001/SYSTM001.o
 .group         0x00000000        0x8 Dave/Generated/src/SYSTM001/SYSTM001.o
 .group         0x00000000        0x8 Dave/Generated/src/SYSTM001/SYSTM001.o
 .group         0x00000000        0x8 Dave/Generated/src/SYSTM001/SYSTM001.o
 .group         0x00000000        0x8 Dave/Generated/src/SYSTM001/SYSTM001.o
 .debug_macro   0x00000000      0x814 Dave/Generated/src/SYSTM001/SYSTM001.o
 .debug_macro   0x00000000       0x2d Dave/Generated/src/SYSTM001/SYSTM001.o
 .debug_macro   0x00000000       0x3b Dave/Generated/src/SYSTM001/SYSTM001.o
 .debug_macro   0x00000000       0x3a Dave/Generated/src/SYSTM001/SYSTM001.o
 .debug_macro   0x00000000       0x10 Dave/Generated/src/SYSTM001/SYSTM001.o
 .debug_macro   0x00000000       0x2e Dave/Generated/src/SYSTM001/SYSTM001.o
 .debug_macro   0x00000000       0xa3 Dave/Generated/src/SYSTM001/SYSTM001.o
 .debug_macro   0x00000000      0x20e Dave/Generated/src/SYSTM001/SYSTM001.o
 .debug_macro   0x00000000       0x2d Dave/Generated/src/SYSTM001/SYSTM001.o
 .debug_macro   0x00000000       0x42 Dave/Generated/src/SYSTM001/SYSTM001.o
 .debug_macro   0x00000000      0xd39 Dave/Generated/src/SYSTM001/SYSTM001.o
 .debug_macro   0x00000000       0x70 Dave/Generated/src/SYSTM001/SYSTM001.o
 .debug_macro   0x00000000    0x150f5 Dave/Generated/src/SYSTM001/SYSTM001.o
 .debug_macro   0x00000000      0x16c Dave/Generated/src/SYSTM001/SYSTM001.o
 .debug_macro   0x00000000       0x22 Dave/Generated/src/SYSTM001/SYSTM001.o
 .debug_macro   0x00000000      0x54a Dave/Generated/src/SYSTM001/SYSTM001.o
 .debug_macro   0x00000000       0x64 Dave/Generated/src/SYSTM001/SYSTM001.o
 .debug_macro   0x00000000       0x46 Dave/Generated/src/SYSTM001/SYSTM001.o
 .debug_macro   0x00000000      0x160 Dave/Generated/src/SYSTM001/SYSTM001.o
 .debug_macro   0x00000000      0x130 Dave/Generated/src/SYSTM001/SYSTM001.o
 .debug_macro   0x00000000       0x7f Dave/Generated/src/SYSTM001/SYSTM001.o
 .debug_macro   0x00000000       0xb4 Dave/Generated/src/SYSTM001/SYSTM001.o
 .debug_macro   0x00000000       0xb5 Dave/Generated/src/SYSTM001/SYSTM001.o
 .debug_macro   0x00000000       0x49 Dave/Generated/src/SYSTM001/SYSTM001.o
 .debug_macro   0x00000000       0x2e Dave/Generated/src/SYSTM001/SYSTM001.o
 .debug_macro   0x00000000       0x2d Dave/Generated/src/SYSTM001/SYSTM001.o
 .debug_macro   0x00000000       0x28 Dave/Generated/src/SYSTM001/SYSTM001.o
 .debug_macro   0x00000000       0x28 Dave/Generated/src/SYSTM001/SYSTM001.o
 .debug_macro   0x00000000       0x2e Dave/Generated/src/SYSTM001/SYSTM001.o
 .comment       0x00000000       0x71 Dave/Generated/src/SYSTM001/SYSTM001.o
 .group         0x00000000        0x8 Dave/Generated/src/RESET001/RESET001.o
 .group         0x00000000        0x8 Dave/Generated/src/RESET001/RESET001.o
 .group         0x00000000        0x8 Dave/Generated/src/RESET001/RESET001.o
 .group         0x00000000        0x8 Dave/Generated/src/RESET001/RESET001.o
 .group         0x00000000        0x8 Dave/Generated/src/RESET001/RESET001.o
 .group         0x00000000        0x8 Dave/Generated/src/RESET001/RESET001.o
 .group         0x00000000        0x8 Dave/Generated/src/RESET001/RESET001.o
 .group         0x00000000        0x8 Dave/Generated/src/RESET001/RESET001.o
 .group         0x00000000        0x8 Dave/Generated/src/RESET001/RESET001.o
 .group         0x00000000        0x8 Dave/Generated/src/RESET001/RESET001.o
 .group         0x00000000        0x8 Dave/Generated/src/RESET001/RESET001.o
 .group         0x00000000        0x8 Dave/Generated/src/RESET001/RESET001.o
 .group         0x00000000        0x8 Dave/Generated/src/RESET001/RESET001.o
 .group         0x00000000        0x8 Dave/Generated/src/RESET001/RESET001.o
 .group         0x00000000        0x8 Dave/Generated/src/RESET001/RESET001.o
 .group         0x00000000        0x8 Dave/Generated/src/RESET001/RESET001.o
 .debug_macro   0x00000000      0x814 Dave/Generated/src/RESET001/RESET001.o
 .debug_macro   0x00000000      0x130 Dave/Generated/src/RESET001/RESET001.o
 .debug_macro   0x00000000       0x3a Dave/Generated/src/RESET001/RESET001.o
 .debug_macro   0x00000000       0x10 Dave/Generated/src/RESET001/RESET001.o
 .debug_macro   0x00000000       0x2e Dave/Generated/src/RESET001/RESET001.o
 .debug_macro   0x00000000       0xa3 Dave/Generated/src/RESET001/RESET001.o
 .debug_macro   0x00000000      0x20e Dave/Generated/src/RESET001/RESET001.o
 .debug_macro   0x00000000      0x16c Dave/Generated/src/RESET001/RESET001.o
 .debug_macro   0x00000000       0x22 Dave/Generated/src/RESET001/RESET001.o
 .debug_macro   0x00000000       0x2d Dave/Generated/src/RESET001/RESET001.o
 .debug_macro   0x00000000       0x3b Dave/Generated/src/RESET001/RESET001.o
 .debug_macro   0x00000000       0x2d Dave/Generated/src/RESET001/RESET001.o
 .debug_macro   0x00000000       0x42 Dave/Generated/src/RESET001/RESET001.o
 .debug_macro   0x00000000      0xd39 Dave/Generated/src/RESET001/RESET001.o
 .debug_macro   0x00000000       0x70 Dave/Generated/src/RESET001/RESET001.o
 .debug_macro   0x00000000    0x150f5 Dave/Generated/src/RESET001/RESET001.o
 .comment       0x00000000       0x71 Dave/Generated/src/RESET001/RESET001.o
 .group         0x00000000        0x8 Dave/Generated/src/NVIC002/NVIC002.o
 .group         0x00000000        0x8 Dave/Generated/src/NVIC002/NVIC002.o
 .group         0x00000000        0x8 Dave/Generated/src/NVIC002/NVIC002.o
 .group         0x00000000        0x8 Dave/Generated/src/NVIC002/NVIC002.o
 .group         0x00000000        0x8 Dave/Generated/src/NVIC002/NVIC002.o
 .group         0x00000000        0x8 Dave/Generated/src/NVIC002/NVIC002.o
 .group         0x00000000        0x8 Dave/Generated/src/NVIC002/NVIC002.o
 .group         0x00000000        0x8 Dave/Generated/src/NVIC002/NVIC002.o
 .group         0x00000000        0x8 Dave/Generated/src/NVIC002/NVIC002.o
 .group         0x00000000        0x8 Dave/Generated/src/NVIC002/NVIC002.o
 .group         0x00000000        0x8 Dave/Generated/src/NVIC002/NVIC002.o
 .group         0x00000000        0x8 Dave/Generated/src/NVIC002/NVIC002.o
 .group         0x00000000        0x8 Dave/Generated/src/NVIC002/NVIC002.o
 .group         0x00000000        0x8 Dave/Generated/src/NVIC002/NVIC002.o
 .group         0x00000000        0x8 Dave/Generated/src/NVIC002/NVIC002.o
 .debug_macro   0x00000000      0x814 Dave/Generated/src/NVIC002/NVIC002.o
 .debug_macro   0x00000000      0x130 Dave/Generated/src/NVIC002/NVIC002.o
 .debug_macro   0x00000000       0x2d Dave/Generated/src/NVIC002/NVIC002.o
 .debug_macro   0x00000000       0x3b Dave/Generated/src/NVIC002/NVIC002.o
 .debug_macro   0x00000000       0x3a Dave/Generated/src/NVIC002/NVIC002.o
 .debug_macro   0x00000000       0x10 Dave/Generated/src/NVIC002/NVIC002.o
 .debug_macro   0x00000000       0x2e Dave/Generated/src/NVIC002/NVIC002.o
 .debug_macro   0x00000000       0xa3 Dave/Generated/src/NVIC002/NVIC002.o
 .debug_macro   0x00000000      0x20e Dave/Generated/src/NVIC002/NVIC002.o
 .debug_macro   0x00000000       0x2d Dave/Generated/src/NVIC002/NVIC002.o
 .debug_macro   0x00000000       0x42 Dave/Generated/src/NVIC002/NVIC002.o
 .debug_macro   0x00000000      0xd39 Dave/Generated/src/NVIC002/NVIC002.o
 .debug_macro   0x00000000       0x70 Dave/Generated/src/NVIC002/NVIC002.o
 .debug_macro   0x00000000    0x150f5 Dave/Generated/src/NVIC002/NVIC002.o
 .debug_macro   0x00000000       0x28 Dave/Generated/src/NVIC002/NVIC002.o
 .comment       0x00000000       0x71 Dave/Generated/src/NVIC002/NVIC002.o
 .group         0x00000000        0x8 Dave/Generated/src/NVIC002/NVIC002_Conf.o
 .group         0x00000000        0x8 Dave/Generated/src/NVIC002/NVIC002_Conf.o
 .group         0x00000000        0x8 Dave/Generated/src/NVIC002/NVIC002_Conf.o
 .group         0x00000000        0x8 Dave/Generated/src/NVIC002/NVIC002_Conf.o
 .group         0x00000000        0x8 Dave/Generated/src/NVIC002/NVIC002_Conf.o
 .group         0x00000000        0x8 Dave/Generated/src/NVIC002/NVIC002_Conf.o
 .group         0x00000000        0x8 Dave/Generated/src/NVIC002/NVIC002_Conf.o
 .group         0x00000000        0x8 Dave/Generated/src/NVIC002/NVIC002_Conf.o
 .group         0x00000000        0x8 Dave/Generated/src/NVIC002/NVIC002_Conf.o
 .group         0x00000000        0x8 Dave/Generated/src/NVIC002/NVIC002_Conf.o
 .group         0x00000000        0x8 Dave/Generated/src/NVIC002/NVIC002_Conf.o
 .group         0x00000000        0x8 Dave/Generated/src/NVIC002/NVIC002_Conf.o
 .group         0x00000000        0x8 Dave/Generated/src/NVIC002/NVIC002_Conf.o
 .group         0x00000000        0x8 Dave/Generated/src/NVIC002/NVIC002_Conf.o
 .group         0x00000000        0x8 Dave/Generated/src/NVIC002/NVIC002_Conf.o
 .debug_macro   0x00000000      0x814 Dave/Generated/src/NVIC002/NVIC002_Conf.o
 .debug_macro   0x00000000      0x130 Dave/Generated/src/NVIC002/NVIC002_Conf.o
 .debug_macro   0x00000000       0x2d Dave/Generated/src/NVIC002/NVIC002_Conf.o
 .debug_macro   0x00000000       0x3b Dave/Generated/src/NVIC002/NVIC002_Conf.o
 .debug_macro   0x00000000       0x3a Dave/Generated/src/NVIC002/NVIC002_Conf.o
 .debug_macro   0x00000000       0x10 Dave/Generated/src/NVIC002/NVIC002_Conf.o
 .debug_macro   0x00000000       0x2e Dave/Generated/src/NVIC002/NVIC002_Conf.o
 .debug_macro   0x00000000       0xa3 Dave/Generated/src/NVIC002/NVIC002_Conf.o
 .debug_macro   0x00000000      0x20e Dave/Generated/src/NVIC002/NVIC002_Conf.o
 .debug_macro   0x00000000       0x2d Dave/Generated/src/NVIC002/NVIC002_Conf.o
 .debug_macro   0x00000000       0x42 Dave/Generated/src/NVIC002/NVIC002_Conf.o
 .debug_macro   0x00000000      0xd39 Dave/Generated/src/NVIC002/NVIC002_Conf.o
 .debug_macro   0x00000000       0x70 Dave/Generated/src/NVIC002/NVIC002_Conf.o
 .debug_macro   0x00000000    0x150f5 Dave/Generated/src/NVIC002/NVIC002_Conf.o
 .debug_macro   0x00000000       0x28 Dave/Generated/src/NVIC002/NVIC002_Conf.o
 .comment       0x00000000       0x71 Dave/Generated/src/NVIC002/NVIC002_Conf.o
 .group         0x00000000        0x8 Dave/Generated/src/LIBS/CCU8PWMLIB.o
 .group         0x00000000        0x8 Dave/Generated/src/LIBS/CCU8PWMLIB.o
 .group         0x00000000        0x8 Dave/Generated/src/LIBS/CCU8PWMLIB.o
 .group         0x00000000        0x8 Dave/Generated/src/LIBS/CCU8PWMLIB.o
 .group         0x00000000        0x8 Dave/Generated/src/LIBS/CCU8PWMLIB.o
 .group         0x00000000        0x8 Dave/Generated/src/LIBS/CCU8PWMLIB.o
 .group         0x00000000        0x8 Dave/Generated/src/LIBS/CCU8PWMLIB.o
 .group         0x00000000        0x8 Dave/Generated/src/LIBS/CCU8PWMLIB.o
 .group         0x00000000        0x8 Dave/Generated/src/LIBS/CCU8PWMLIB.o
 .group         0x00000000        0x8 Dave/Generated/src/LIBS/CCU8PWMLIB.o
 .group         0x00000000        0x8 Dave/Generated/src/LIBS/CCU8PWMLIB.o
 .group         0x00000000        0x8 Dave/Generated/src/LIBS/CCU8PWMLIB.o
 .group         0x00000000        0x8 Dave/Generated/src/LIBS/CCU8PWMLIB.o
 .group         0x00000000        0x8 Dave/Generated/src/LIBS/CCU8PWMLIB.o
 .group         0x00000000        0x8 Dave/Generated/src/LIBS/CCU8PWMLIB.o
 .group         0x00000000        0x8 Dave/Generated/src/LIBS/CCU8PWMLIB.o
 .group         0x00000000        0x8 Dave/Generated/src/LIBS/CCU8PWMLIB.o
 .group         0x00000000        0x8 Dave/Generated/src/LIBS/CCU8PWMLIB.o
 .group         0x00000000        0x8 Dave/Generated/src/LIBS/CCU8PWMLIB.o
 .group         0x00000000        0x8 Dave/Generated/src/LIBS/CCU8PWMLIB.o
 .group         0x00000000        0x8 Dave/Generated/src/LIBS/CCU8PWMLIB.o
 .group         0x00000000        0x8 Dave/Generated/src/LIBS/CCU8PWMLIB.o
 .group         0x00000000        0x8 Dave/Generated/src/LIBS/CCU8PWMLIB.o
 .group         0x00000000        0x8 Dave/Generated/src/LIBS/CCU8PWMLIB.o
 .group         0x00000000        0x8 Dave/Generated/src/LIBS/CCU8PWMLIB.o
 .group         0x00000000        0x8 Dave/Generated/src/LIBS/CCU8PWMLIB.o
 .group         0x00000000        0x8 Dave/Generated/src/LIBS/CCU8PWMLIB.o
 .group         0x00000000        0x8 Dave/Generated/src/LIBS/CCU8PWMLIB.o
 .group         0x00000000        0x8 Dave/Generated/src/LIBS/CCU8PWMLIB.o
 .debug_macro   0x00000000      0x814 Dave/Generated/src/LIBS/CCU8PWMLIB.o
 .debug_macro   0x00000000       0x2d Dave/Generated/src/LIBS/CCU8PWMLIB.o
 .debug_macro   0x00000000       0x3b Dave/Generated/src/LIBS/CCU8PWMLIB.o
 .debug_macro   0x00000000       0x3a Dave/Generated/src/LIBS/CCU8PWMLIB.o
 .debug_macro   0x00000000       0x10 Dave/Generated/src/LIBS/CCU8PWMLIB.o
 .debug_macro   0x00000000       0x2e Dave/Generated/src/LIBS/CCU8PWMLIB.o
 .debug_macro   0x00000000       0xa3 Dave/Generated/src/LIBS/CCU8PWMLIB.o
 .debug_macro   0x00000000      0x20e Dave/Generated/src/LIBS/CCU8PWMLIB.o
 .debug_macro   0x00000000       0x2d Dave/Generated/src/LIBS/CCU8PWMLIB.o
 .debug_macro   0x00000000       0x42 Dave/Generated/src/LIBS/CCU8PWMLIB.o
 .debug_macro   0x00000000      0xd39 Dave/Generated/src/LIBS/CCU8PWMLIB.o
 .debug_macro   0x00000000       0x70 Dave/Generated/src/LIBS/CCU8PWMLIB.o
 .debug_macro   0x00000000    0x150f5 Dave/Generated/src/LIBS/CCU8PWMLIB.o
 .debug_macro   0x00000000      0x16c Dave/Generated/src/LIBS/CCU8PWMLIB.o
 .debug_macro   0x00000000       0x22 Dave/Generated/src/LIBS/CCU8PWMLIB.o
 .debug_macro   0x00000000      0x54a Dave/Generated/src/LIBS/CCU8PWMLIB.o
 .debug_macro   0x00000000       0x64 Dave/Generated/src/LIBS/CCU8PWMLIB.o
 .debug_macro   0x00000000       0x46 Dave/Generated/src/LIBS/CCU8PWMLIB.o
 .debug_macro   0x00000000      0x160 Dave/Generated/src/LIBS/CCU8PWMLIB.o
 .debug_macro   0x00000000      0x130 Dave/Generated/src/LIBS/CCU8PWMLIB.o
 .debug_macro   0x00000000       0x7f Dave/Generated/src/LIBS/CCU8PWMLIB.o
 .debug_macro   0x00000000       0xb4 Dave/Generated/src/LIBS/CCU8PWMLIB.o
 .debug_macro   0x00000000       0xb5 Dave/Generated/src/LIBS/CCU8PWMLIB.o
 .debug_macro   0x00000000       0x49 Dave/Generated/src/LIBS/CCU8PWMLIB.o
 .debug_macro   0x00000000       0x2e Dave/Generated/src/LIBS/CCU8PWMLIB.o
 .debug_macro   0x00000000       0x2d Dave/Generated/src/LIBS/CCU8PWMLIB.o
 .debug_macro   0x00000000       0x28 Dave/Generated/src/LIBS/CCU8PWMLIB.o
 .debug_macro   0x00000000       0x28 Dave/Generated/src/LIBS/CCU8PWMLIB.o
 .debug_macro   0x00000000       0x2e Dave/Generated/src/LIBS/CCU8PWMLIB.o
 .comment       0x00000000       0x71 Dave/Generated/src/LIBS/CCU8PWMLIB.o
 .group         0x00000000        0x8 Dave/Generated/src/LIBS/MOTORLIB.o
 .group         0x00000000        0x8 Dave/Generated/src/LIBS/MOTORLIB.o
 .group         0x00000000        0x8 Dave/Generated/src/LIBS/MOTORLIB.o
 .group         0x00000000        0x8 Dave/Generated/src/LIBS/MOTORLIB.o
 .group         0x00000000        0x8 Dave/Generated/src/LIBS/MOTORLIB.o
 .group         0x00000000        0x8 Dave/Generated/src/LIBS/MOTORLIB.o
 .group         0x00000000        0x8 Dave/Generated/src/LIBS/MOTORLIB.o
 .group         0x00000000        0x8 Dave/Generated/src/LIBS/MOTORLIB.o
 .group         0x00000000        0x8 Dave/Generated/src/LIBS/MOTORLIB.o
 .group         0x00000000        0x8 Dave/Generated/src/LIBS/MOTORLIB.o
 .group         0x00000000        0x8 Dave/Generated/src/LIBS/MOTORLIB.o
 .group         0x00000000        0x8 Dave/Generated/src/LIBS/MOTORLIB.o
 .group         0x00000000        0x8 Dave/Generated/src/LIBS/MOTORLIB.o
 .group         0x00000000        0x8 Dave/Generated/src/LIBS/MOTORLIB.o
 .group         0x00000000        0x8 Dave/Generated/src/LIBS/MOTORLIB.o
 .group         0x00000000        0x8 Dave/Generated/src/LIBS/MOTORLIB.o
 .group         0x00000000        0x8 Dave/Generated/src/LIBS/MOTORLIB.o
 .group         0x00000000        0x8 Dave/Generated/src/LIBS/MOTORLIB.o
 .group         0x00000000        0x8 Dave/Generated/src/LIBS/MOTORLIB.o
 .group         0x00000000        0x8 Dave/Generated/src/LIBS/MOTORLIB.o
 .group         0x00000000        0x8 Dave/Generated/src/LIBS/MOTORLIB.o
 .group         0x00000000        0x8 Dave/Generated/src/LIBS/MOTORLIB.o
 .group         0x00000000        0x8 Dave/Generated/src/LIBS/MOTORLIB.o
 .group         0x00000000        0x8 Dave/Generated/src/LIBS/MOTORLIB.o
 .group         0x00000000        0x8 Dave/Generated/src/LIBS/MOTORLIB.o
 .group         0x00000000        0x8 Dave/Generated/src/LIBS/MOTORLIB.o
 .group         0x00000000        0x8 Dave/Generated/src/LIBS/MOTORLIB.o
 .group         0x00000000        0x8 Dave/Generated/src/LIBS/MOTORLIB.o
 .group         0x00000000        0x8 Dave/Generated/src/LIBS/MOTORLIB.o
 .debug_macro   0x00000000      0x814 Dave/Generated/src/LIBS/MOTORLIB.o
 .debug_macro   0x00000000       0x2d Dave/Generated/src/LIBS/MOTORLIB.o
 .debug_macro   0x00000000       0x3b Dave/Generated/src/LIBS/MOTORLIB.o
 .debug_macro   0x00000000       0x3a Dave/Generated/src/LIBS/MOTORLIB.o
 .debug_macro   0x00000000       0x10 Dave/Generated/src/LIBS/MOTORLIB.o
 .debug_macro   0x00000000       0x2e Dave/Generated/src/LIBS/MOTORLIB.o
 .debug_macro   0x00000000       0xa3 Dave/Generated/src/LIBS/MOTORLIB.o
 .debug_macro   0x00000000      0x20e Dave/Generated/src/LIBS/MOTORLIB.o
 .debug_macro   0x00000000       0x2d Dave/Generated/src/LIBS/MOTORLIB.o
 .debug_macro   0x00000000       0x42 Dave/Generated/src/LIBS/MOTORLIB.o
 .debug_macro   0x00000000      0xd39 Dave/Generated/src/LIBS/MOTORLIB.o
 .debug_macro   0x00000000       0x70 Dave/Generated/src/LIBS/MOTORLIB.o
 .debug_macro   0x00000000    0x150f5 Dave/Generated/src/LIBS/MOTORLIB.o
 .debug_macro   0x00000000      0x16c Dave/Generated/src/LIBS/MOTORLIB.o
 .debug_macro   0x00000000       0x22 Dave/Generated/src/LIBS/MOTORLIB.o
 .debug_macro   0x00000000      0x54a Dave/Generated/src/LIBS/MOTORLIB.o
 .debug_macro   0x00000000       0x64 Dave/Generated/src/LIBS/MOTORLIB.o
 .debug_macro   0x00000000       0x46 Dave/Generated/src/LIBS/MOTORLIB.o
 .debug_macro   0x00000000      0x160 Dave/Generated/src/LIBS/MOTORLIB.o
 .debug_macro   0x00000000      0x130 Dave/Generated/src/LIBS/MOTORLIB.o
 .debug_macro   0x00000000       0x7f Dave/Generated/src/LIBS/MOTORLIB.o
 .debug_macro   0x00000000       0xb4 Dave/Generated/src/LIBS/MOTORLIB.o
 .debug_macro   0x00000000       0xb5 Dave/Generated/src/LIBS/MOTORLIB.o
 .debug_macro   0x00000000       0x49 Dave/Generated/src/LIBS/MOTORLIB.o
 .debug_macro   0x00000000       0x2e Dave/Generated/src/LIBS/MOTORLIB.o
 .debug_macro   0x00000000       0x2d Dave/Generated/src/LIBS/MOTORLIB.o
 .debug_macro   0x00000000       0x28 Dave/Generated/src/LIBS/MOTORLIB.o
 .debug_macro   0x00000000       0x28 Dave/Generated/src/LIBS/MOTORLIB.o
 .debug_macro   0x00000000       0x2e Dave/Generated/src/LIBS/MOTORLIB.o
 .comment       0x00000000       0x71 Dave/Generated/src/LIBS/MOTORLIB.o
 .group         0x00000000        0x8 Dave/Generated/src/IO004/IO004.o
 .group         0x00000000        0x8 Dave/Generated/src/IO004/IO004.o
 .group         0x00000000        0x8 Dave/Generated/src/IO004/IO004.o
 .group         0x00000000        0x8 Dave/Generated/src/IO004/IO004.o
 .group         0x00000000        0x8 Dave/Generated/src/IO004/IO004.o
 .group         0x00000000        0x8 Dave/Generated/src/IO004/IO004.o
 .group         0x00000000        0x8 Dave/Generated/src/IO004/IO004.o
 .group         0x00000000        0x8 Dave/Generated/src/IO004/IO004.o
 .group         0x00000000        0x8 Dave/Generated/src/IO004/IO004.o
 .group         0x00000000        0x8 Dave/Generated/src/IO004/IO004.o
 .group         0x00000000        0x8 Dave/Generated/src/IO004/IO004.o
 .group         0x00000000        0x8 Dave/Generated/src/IO004/IO004.o
 .group         0x00000000        0x8 Dave/Generated/src/IO004/IO004.o
 .group         0x00000000        0x8 Dave/Generated/src/IO004/IO004.o
 .group         0x00000000        0x8 Dave/Generated/src/IO004/IO004.o
 .group         0x00000000        0x8 Dave/Generated/src/IO004/IO004.o
 .group         0x00000000        0x8 Dave/Generated/src/IO004/IO004.o
 .group         0x00000000        0x8 Dave/Generated/src/IO004/IO004.o
 .group         0x00000000        0x8 Dave/Generated/src/IO004/IO004.o
 .group         0x00000000        0x8 Dave/Generated/src/IO004/IO004.o
 .group         0x00000000        0x8 Dave/Generated/src/IO004/IO004.o
 .group         0x00000000        0x8 Dave/Generated/src/IO004/IO004.o
 .group         0x00000000        0x8 Dave/Generated/src/IO004/IO004.o
 .group         0x00000000        0x8 Dave/Generated/src/IO004/IO004.o
 .group         0x00000000        0x8 Dave/Generated/src/IO004/IO004.o
 .group         0x00000000        0x8 Dave/Generated/src/IO004/IO004.o
 .group         0x00000000        0x8 Dave/Generated/src/IO004/IO004.o
 .group         0x00000000        0x8 Dave/Generated/src/IO004/IO004.o
 .group         0x00000000        0x8 Dave/Generated/src/IO004/IO004.o
 .debug_macro   0x00000000      0x814 Dave/Generated/src/IO004/IO004.o
 .debug_macro   0x00000000       0x2d Dave/Generated/src/IO004/IO004.o
 .debug_macro   0x00000000       0x3b Dave/Generated/src/IO004/IO004.o
 .debug_macro   0x00000000       0x3a Dave/Generated/src/IO004/IO004.o
 .debug_macro   0x00000000       0x10 Dave/Generated/src/IO004/IO004.o
 .debug_macro   0x00000000       0x2e Dave/Generated/src/IO004/IO004.o
 .debug_macro   0x00000000       0xa3 Dave/Generated/src/IO004/IO004.o
 .debug_macro   0x00000000      0x20e Dave/Generated/src/IO004/IO004.o
 .debug_macro   0x00000000       0x2d Dave/Generated/src/IO004/IO004.o
 .debug_macro   0x00000000       0x42 Dave/Generated/src/IO004/IO004.o
 .debug_macro   0x00000000      0xd39 Dave/Generated/src/IO004/IO004.o
 .debug_macro   0x00000000       0x70 Dave/Generated/src/IO004/IO004.o
 .debug_macro   0x00000000    0x150f5 Dave/Generated/src/IO004/IO004.o
 .debug_macro   0x00000000      0x16c Dave/Generated/src/IO004/IO004.o
 .debug_macro   0x00000000       0x22 Dave/Generated/src/IO004/IO004.o
 .debug_macro   0x00000000      0x54a Dave/Generated/src/IO004/IO004.o
 .debug_macro   0x00000000       0x64 Dave/Generated/src/IO004/IO004.o
 .debug_macro   0x00000000       0x46 Dave/Generated/src/IO004/IO004.o
 .debug_macro   0x00000000      0x160 Dave/Generated/src/IO004/IO004.o
 .debug_macro   0x00000000      0x130 Dave/Generated/src/IO004/IO004.o
 .debug_macro   0x00000000       0x7f Dave/Generated/src/IO004/IO004.o
 .debug_macro   0x00000000       0xb4 Dave/Generated/src/IO004/IO004.o
 .debug_macro   0x00000000       0xb5 Dave/Generated/src/IO004/IO004.o
 .debug_macro   0x00000000       0x49 Dave/Generated/src/IO004/IO004.o
 .debug_macro   0x00000000       0x2e Dave/Generated/src/IO004/IO004.o
 .debug_macro   0x00000000       0x2d Dave/Generated/src/IO004/IO004.o
 .debug_macro   0x00000000       0x28 Dave/Generated/src/IO004/IO004.o
 .debug_macro   0x00000000       0x28 Dave/Generated/src/IO004/IO004.o
 .debug_macro   0x00000000       0x2e Dave/Generated/src/IO004/IO004.o
 .comment       0x00000000       0x71 Dave/Generated/src/IO004/IO004.o
 .group         0x00000000        0x8 Dave/Generated/src/IO004/IO004_Conf.o
 .group         0x00000000        0x8 Dave/Generated/src/IO004/IO004_Conf.o
 .group         0x00000000        0x8 Dave/Generated/src/IO004/IO004_Conf.o
 .group         0x00000000        0x8 Dave/Generated/src/IO004/IO004_Conf.o
 .group         0x00000000        0x8 Dave/Generated/src/IO004/IO004_Conf.o
 .group         0x00000000        0x8 Dave/Generated/src/IO004/IO004_Conf.o
 .group         0x00000000        0x8 Dave/Generated/src/IO004/IO004_Conf.o
 .group         0x00000000        0x8 Dave/Generated/src/IO004/IO004_Conf.o
 .group         0x00000000        0x8 Dave/Generated/src/IO004/IO004_Conf.o
 .group         0x00000000        0x8 Dave/Generated/src/IO004/IO004_Conf.o
 .group         0x00000000        0x8 Dave/Generated/src/IO004/IO004_Conf.o
 .group         0x00000000        0x8 Dave/Generated/src/IO004/IO004_Conf.o
 .group         0x00000000        0x8 Dave/Generated/src/IO004/IO004_Conf.o
 .group         0x00000000        0x8 Dave/Generated/src/IO004/IO004_Conf.o
 .group         0x00000000        0x8 Dave/Generated/src/IO004/IO004_Conf.o
 .group         0x00000000        0x8 Dave/Generated/src/IO004/IO004_Conf.o
 .group         0x00000000        0x8 Dave/Generated/src/IO004/IO004_Conf.o
 .group         0x00000000        0x8 Dave/Generated/src/IO004/IO004_Conf.o
 .group         0x00000000        0x8 Dave/Generated/src/IO004/IO004_Conf.o
 .group         0x00000000        0x8 Dave/Generated/src/IO004/IO004_Conf.o
 .group         0x00000000        0x8 Dave/Generated/src/IO004/IO004_Conf.o
 .group         0x00000000        0x8 Dave/Generated/src/IO004/IO004_Conf.o
 .group         0x00000000        0x8 Dave/Generated/src/IO004/IO004_Conf.o
 .group         0x00000000        0x8 Dave/Generated/src/IO004/IO004_Conf.o
 .group         0x00000000        0x8 Dave/Generated/src/IO004/IO004_Conf.o
 .group         0x00000000        0x8 Dave/Generated/src/IO004/IO004_Conf.o
 .group         0x00000000        0x8 Dave/Generated/src/IO004/IO004_Conf.o
 .group         0x00000000        0x8 Dave/Generated/src/IO004/IO004_Conf.o
 .group         0x00000000        0x8 Dave/Generated/src/IO004/IO004_Conf.o
 .debug_macro   0x00000000      0x814 Dave/Generated/src/IO004/IO004_Conf.o
 .debug_macro   0x00000000       0x2d Dave/Generated/src/IO004/IO004_Conf.o
 .debug_macro   0x00000000       0x3b Dave/Generated/src/IO004/IO004_Conf.o
 .debug_macro   0x00000000       0x3a Dave/Generated/src/IO004/IO004_Conf.o
 .debug_macro   0x00000000       0x10 Dave/Generated/src/IO004/IO004_Conf.o
 .debug_macro   0x00000000       0x2e Dave/Generated/src/IO004/IO004_Conf.o
 .debug_macro   0x00000000       0xa3 Dave/Generated/src/IO004/IO004_Conf.o
 .debug_macro   0x00000000      0x20e Dave/Generated/src/IO004/IO004_Conf.o
 .debug_macro   0x00000000       0x2d Dave/Generated/src/IO004/IO004_Conf.o
 .debug_macro   0x00000000       0x42 Dave/Generated/src/IO004/IO004_Conf.o
 .debug_macro   0x00000000      0xd39 Dave/Generated/src/IO004/IO004_Conf.o
 .debug_macro   0x00000000       0x70 Dave/Generated/src/IO004/IO004_Conf.o
 .debug_macro   0x00000000    0x150f5 Dave/Generated/src/IO004/IO004_Conf.o
 .debug_macro   0x00000000      0x16c Dave/Generated/src/IO004/IO004_Conf.o
 .debug_macro   0x00000000       0x22 Dave/Generated/src/IO004/IO004_Conf.o
 .debug_macro   0x00000000      0x54a Dave/Generated/src/IO004/IO004_Conf.o
 .debug_macro   0x00000000       0x64 Dave/Generated/src/IO004/IO004_Conf.o
 .debug_macro   0x00000000       0x46 Dave/Generated/src/IO004/IO004_Conf.o
 .debug_macro   0x00000000      0x160 Dave/Generated/src/IO004/IO004_Conf.o
 .debug_macro   0x00000000      0x130 Dave/Generated/src/IO004/IO004_Conf.o
 .debug_macro   0x00000000       0x7f Dave/Generated/src/IO004/IO004_Conf.o
 .debug_macro   0x00000000       0xb4 Dave/Generated/src/IO004/IO004_Conf.o
 .debug_macro   0x00000000       0xb5 Dave/Generated/src/IO004/IO004_Conf.o
 .debug_macro   0x00000000       0x49 Dave/Generated/src/IO004/IO004_Conf.o
 .debug_macro   0x00000000       0x2e Dave/Generated/src/IO004/IO004_Conf.o
 .debug_macro   0x00000000       0x2d Dave/Generated/src/IO004/IO004_Conf.o
 .debug_macro   0x00000000       0x28 Dave/Generated/src/IO004/IO004_Conf.o
 .debug_macro   0x00000000       0x28 Dave/Generated/src/IO004/IO004_Conf.o
 .debug_macro   0x00000000       0x2e Dave/Generated/src/IO004/IO004_Conf.o
 .comment       0x00000000       0x71 Dave/Generated/src/IO004/IO004_Conf.o
 .group         0x00000000        0x8 Dave/Generated/src/I2C001/I2C001.o
 .group         0x00000000        0x8 Dave/Generated/src/I2C001/I2C001.o
 .group         0x00000000        0x8 Dave/Generated/src/I2C001/I2C001.o
 .group         0x00000000        0x8 Dave/Generated/src/I2C001/I2C001.o
 .group         0x00000000        0x8 Dave/Generated/src/I2C001/I2C001.o
 .group         0x00000000        0x8 Dave/Generated/src/I2C001/I2C001.o
 .group         0x00000000        0x8 Dave/Generated/src/I2C001/I2C001.o
 .group         0x00000000        0x8 Dave/Generated/src/I2C001/I2C001.o
 .group         0x00000000        0x8 Dave/Generated/src/I2C001/I2C001.o
 .group         0x00000000        0x8 Dave/Generated/src/I2C001/I2C001.o
 .group         0x00000000        0x8 Dave/Generated/src/I2C001/I2C001.o
 .group         0x00000000        0x8 Dave/Generated/src/I2C001/I2C001.o
 .group         0x00000000        0x8 Dave/Generated/src/I2C001/I2C001.o
 .group         0x00000000        0x8 Dave/Generated/src/I2C001/I2C001.o
 .group         0x00000000        0x8 Dave/Generated/src/I2C001/I2C001.o
 .group         0x00000000        0x8 Dave/Generated/src/I2C001/I2C001.o
 .group         0x00000000        0x8 Dave/Generated/src/I2C001/I2C001.o
 .group         0x00000000        0x8 Dave/Generated/src/I2C001/I2C001.o
 .group         0x00000000        0x8 Dave/Generated/src/I2C001/I2C001.o
 .group         0x00000000        0x8 Dave/Generated/src/I2C001/I2C001.o
 .group         0x00000000        0x8 Dave/Generated/src/I2C001/I2C001.o
 .group         0x00000000        0x8 Dave/Generated/src/I2C001/I2C001.o
 .group         0x00000000        0x8 Dave/Generated/src/I2C001/I2C001.o
 .group         0x00000000        0x8 Dave/Generated/src/I2C001/I2C001.o
 .group         0x00000000        0x8 Dave/Generated/src/I2C001/I2C001.o
 .group         0x00000000        0x8 Dave/Generated/src/I2C001/I2C001.o
 .group         0x00000000        0x8 Dave/Generated/src/I2C001/I2C001.o
 .group         0x00000000        0x8 Dave/Generated/src/I2C001/I2C001.o
 .group         0x00000000        0x8 Dave/Generated/src/I2C001/I2C001.o
 .debug_macro   0x00000000      0x814 Dave/Generated/src/I2C001/I2C001.o
 .debug_macro   0x00000000       0x2d Dave/Generated/src/I2C001/I2C001.o
 .debug_macro   0x00000000       0x3b Dave/Generated/src/I2C001/I2C001.o
 .debug_macro   0x00000000       0x3a Dave/Generated/src/I2C001/I2C001.o
 .debug_macro   0x00000000       0x10 Dave/Generated/src/I2C001/I2C001.o
 .debug_macro   0x00000000       0x2e Dave/Generated/src/I2C001/I2C001.o
 .debug_macro   0x00000000       0xa3 Dave/Generated/src/I2C001/I2C001.o
 .debug_macro   0x00000000      0x20e Dave/Generated/src/I2C001/I2C001.o
 .debug_macro   0x00000000       0x2d Dave/Generated/src/I2C001/I2C001.o
 .debug_macro   0x00000000       0x42 Dave/Generated/src/I2C001/I2C001.o
 .debug_macro   0x00000000      0xd39 Dave/Generated/src/I2C001/I2C001.o
 .debug_macro   0x00000000       0x70 Dave/Generated/src/I2C001/I2C001.o
 .debug_macro   0x00000000    0x150f5 Dave/Generated/src/I2C001/I2C001.o
 .debug_macro   0x00000000      0x16c Dave/Generated/src/I2C001/I2C001.o
 .debug_macro   0x00000000       0x22 Dave/Generated/src/I2C001/I2C001.o
 .debug_macro   0x00000000      0x54a Dave/Generated/src/I2C001/I2C001.o
 .debug_macro   0x00000000       0x64 Dave/Generated/src/I2C001/I2C001.o
 .debug_macro   0x00000000       0x46 Dave/Generated/src/I2C001/I2C001.o
 .debug_macro   0x00000000      0x160 Dave/Generated/src/I2C001/I2C001.o
 .debug_macro   0x00000000      0x130 Dave/Generated/src/I2C001/I2C001.o
 .debug_macro   0x00000000       0x7f Dave/Generated/src/I2C001/I2C001.o
 .debug_macro   0x00000000       0xb4 Dave/Generated/src/I2C001/I2C001.o
 .debug_macro   0x00000000       0xb5 Dave/Generated/src/I2C001/I2C001.o
 .debug_macro   0x00000000       0x49 Dave/Generated/src/I2C001/I2C001.o
 .debug_macro   0x00000000       0x2e Dave/Generated/src/I2C001/I2C001.o
 .debug_macro   0x00000000       0x2d Dave/Generated/src/I2C001/I2C001.o
 .debug_macro   0x00000000       0x28 Dave/Generated/src/I2C001/I2C001.o
 .debug_macro   0x00000000       0x28 Dave/Generated/src/I2C001/I2C001.o
 .debug_macro   0x00000000       0x2e Dave/Generated/src/I2C001/I2C001.o
 .comment       0x00000000       0x71 Dave/Generated/src/I2C001/I2C001.o
 .group         0x00000000        0x8 Dave/Generated/src/I2C001/I2C001_Conf.o
 .group         0x00000000        0x8 Dave/Generated/src/I2C001/I2C001_Conf.o
 .group         0x00000000        0x8 Dave/Generated/src/I2C001/I2C001_Conf.o
 .group         0x00000000        0x8 Dave/Generated/src/I2C001/I2C001_Conf.o
 .group         0x00000000        0x8 Dave/Generated/src/I2C001/I2C001_Conf.o
 .group         0x00000000        0x8 Dave/Generated/src/I2C001/I2C001_Conf.o
 .group         0x00000000        0x8 Dave/Generated/src/I2C001/I2C001_Conf.o
 .group         0x00000000        0x8 Dave/Generated/src/I2C001/I2C001_Conf.o
 .group         0x00000000        0x8 Dave/Generated/src/I2C001/I2C001_Conf.o
 .group         0x00000000        0x8 Dave/Generated/src/I2C001/I2C001_Conf.o
 .group         0x00000000        0x8 Dave/Generated/src/I2C001/I2C001_Conf.o
 .group         0x00000000        0x8 Dave/Generated/src/I2C001/I2C001_Conf.o
 .group         0x00000000        0x8 Dave/Generated/src/I2C001/I2C001_Conf.o
 .group         0x00000000        0x8 Dave/Generated/src/I2C001/I2C001_Conf.o
 .group         0x00000000        0x8 Dave/Generated/src/I2C001/I2C001_Conf.o
 .group         0x00000000        0x8 Dave/Generated/src/I2C001/I2C001_Conf.o
 .group         0x00000000        0x8 Dave/Generated/src/I2C001/I2C001_Conf.o
 .group         0x00000000        0x8 Dave/Generated/src/I2C001/I2C001_Conf.o
 .group         0x00000000        0x8 Dave/Generated/src/I2C001/I2C001_Conf.o
 .group         0x00000000        0x8 Dave/Generated/src/I2C001/I2C001_Conf.o
 .group         0x00000000        0x8 Dave/Generated/src/I2C001/I2C001_Conf.o
 .group         0x00000000        0x8 Dave/Generated/src/I2C001/I2C001_Conf.o
 .group         0x00000000        0x8 Dave/Generated/src/I2C001/I2C001_Conf.o
 .group         0x00000000        0x8 Dave/Generated/src/I2C001/I2C001_Conf.o
 .group         0x00000000        0x8 Dave/Generated/src/I2C001/I2C001_Conf.o
 .group         0x00000000        0x8 Dave/Generated/src/I2C001/I2C001_Conf.o
 .group         0x00000000        0x8 Dave/Generated/src/I2C001/I2C001_Conf.o
 .group         0x00000000        0x8 Dave/Generated/src/I2C001/I2C001_Conf.o
 .group         0x00000000        0x8 Dave/Generated/src/I2C001/I2C001_Conf.o
 .debug_macro   0x00000000      0x814 Dave/Generated/src/I2C001/I2C001_Conf.o
 .debug_macro   0x00000000       0x2d Dave/Generated/src/I2C001/I2C001_Conf.o
 .debug_macro   0x00000000       0x3b Dave/Generated/src/I2C001/I2C001_Conf.o
 .debug_macro   0x00000000       0x3a Dave/Generated/src/I2C001/I2C001_Conf.o
 .debug_macro   0x00000000       0x10 Dave/Generated/src/I2C001/I2C001_Conf.o
 .debug_macro   0x00000000       0x2e Dave/Generated/src/I2C001/I2C001_Conf.o
 .debug_macro   0x00000000       0xa3 Dave/Generated/src/I2C001/I2C001_Conf.o
 .debug_macro   0x00000000      0x20e Dave/Generated/src/I2C001/I2C001_Conf.o
 .debug_macro   0x00000000       0x2d Dave/Generated/src/I2C001/I2C001_Conf.o
 .debug_macro   0x00000000       0x42 Dave/Generated/src/I2C001/I2C001_Conf.o
 .debug_macro   0x00000000      0xd39 Dave/Generated/src/I2C001/I2C001_Conf.o
 .debug_macro   0x00000000       0x70 Dave/Generated/src/I2C001/I2C001_Conf.o
 .debug_macro   0x00000000    0x150f5 Dave/Generated/src/I2C001/I2C001_Conf.o
 .debug_macro   0x00000000      0x16c Dave/Generated/src/I2C001/I2C001_Conf.o
 .debug_macro   0x00000000       0x22 Dave/Generated/src/I2C001/I2C001_Conf.o
 .debug_macro   0x00000000      0x54a Dave/Generated/src/I2C001/I2C001_Conf.o
 .debug_macro   0x00000000       0x64 Dave/Generated/src/I2C001/I2C001_Conf.o
 .debug_macro   0x00000000       0x46 Dave/Generated/src/I2C001/I2C001_Conf.o
 .debug_macro   0x00000000      0x160 Dave/Generated/src/I2C001/I2C001_Conf.o
 .debug_macro   0x00000000      0x130 Dave/Generated/src/I2C001/I2C001_Conf.o
 .debug_macro   0x00000000       0x7f Dave/Generated/src/I2C001/I2C001_Conf.o
 .debug_macro   0x00000000       0xb4 Dave/Generated/src/I2C001/I2C001_Conf.o
 .debug_macro   0x00000000       0xb5 Dave/Generated/src/I2C001/I2C001_Conf.o
 .debug_macro   0x00000000       0x49 Dave/Generated/src/I2C001/I2C001_Conf.o
 .debug_macro   0x00000000       0x2e Dave/Generated/src/I2C001/I2C001_Conf.o
 .debug_macro   0x00000000       0x2d Dave/Generated/src/I2C001/I2C001_Conf.o
 .debug_macro   0x00000000       0x28 Dave/Generated/src/I2C001/I2C001_Conf.o
 .debug_macro   0x00000000       0x28 Dave/Generated/src/I2C001/I2C001_Conf.o
 .debug_macro   0x00000000       0x2e Dave/Generated/src/I2C001/I2C001_Conf.o
 .comment       0x00000000       0x71 Dave/Generated/src/I2C001/I2C001_Conf.o
 .group         0x00000000        0x8 Dave/Generated/src/DAVESupport/DAVE3.o
 .group         0x00000000        0x8 Dave/Generated/src/DAVESupport/DAVE3.o
 .group         0x00000000        0x8 Dave/Generated/src/DAVESupport/DAVE3.o
 .group         0x00000000        0x8 Dave/Generated/src/DAVESupport/DAVE3.o
 .group         0x00000000        0x8 Dave/Generated/src/DAVESupport/DAVE3.o
 .group         0x00000000        0x8 Dave/Generated/src/DAVESupport/DAVE3.o
 .group         0x00000000        0x8 Dave/Generated/src/DAVESupport/DAVE3.o
 .group         0x00000000        0x8 Dave/Generated/src/DAVESupport/DAVE3.o
 .group         0x00000000        0x8 Dave/Generated/src/DAVESupport/DAVE3.o
 .group         0x00000000        0x8 Dave/Generated/src/DAVESupport/DAVE3.o
 .group         0x00000000        0x8 Dave/Generated/src/DAVESupport/DAVE3.o
 .group         0x00000000        0x8 Dave/Generated/src/DAVESupport/DAVE3.o
 .group         0x00000000        0x8 Dave/Generated/src/DAVESupport/DAVE3.o
 .group         0x00000000        0x8 Dave/Generated/src/DAVESupport/DAVE3.o
 .group         0x00000000        0x8 Dave/Generated/src/DAVESupport/DAVE3.o
 .group         0x00000000        0x8 Dave/Generated/src/DAVESupport/DAVE3.o
 .group         0x00000000        0x8 Dave/Generated/src/DAVESupport/DAVE3.o
 .group         0x00000000        0x8 Dave/Generated/src/DAVESupport/DAVE3.o
 .group         0x00000000        0x8 Dave/Generated/src/DAVESupport/DAVE3.o
 .group         0x00000000        0x8 Dave/Generated/src/DAVESupport/DAVE3.o
 .group         0x00000000        0x8 Dave/Generated/src/DAVESupport/DAVE3.o
 .group         0x00000000        0x8 Dave/Generated/src/DAVESupport/DAVE3.o
 .group         0x00000000        0x8 Dave/Generated/src/DAVESupport/DAVE3.o
 .group         0x00000000        0x8 Dave/Generated/src/DAVESupport/DAVE3.o
 .group         0x00000000        0x8 Dave/Generated/src/DAVESupport/DAVE3.o
 .group         0x00000000        0x8 Dave/Generated/src/DAVESupport/DAVE3.o
 .group         0x00000000        0x8 Dave/Generated/src/DAVESupport/DAVE3.o
 .group         0x00000000        0x8 Dave/Generated/src/DAVESupport/DAVE3.o
 .group         0x00000000        0x8 Dave/Generated/src/DAVESupport/DAVE3.o
 .debug_macro   0x00000000      0x814 Dave/Generated/src/DAVESupport/DAVE3.o
 .debug_macro   0x00000000       0x2d Dave/Generated/src/DAVESupport/DAVE3.o
 .debug_macro   0x00000000       0x3b Dave/Generated/src/DAVESupport/DAVE3.o
 .debug_macro   0x00000000       0x3a Dave/Generated/src/DAVESupport/DAVE3.o
 .debug_macro   0x00000000       0x10 Dave/Generated/src/DAVESupport/DAVE3.o
 .debug_macro   0x00000000       0x2e Dave/Generated/src/DAVESupport/DAVE3.o
 .debug_macro   0x00000000       0xa3 Dave/Generated/src/DAVESupport/DAVE3.o
 .debug_macro   0x00000000      0x20e Dave/Generated/src/DAVESupport/DAVE3.o
 .debug_macro   0x00000000       0x2d Dave/Generated/src/DAVESupport/DAVE3.o
 .debug_macro   0x00000000       0x42 Dave/Generated/src/DAVESupport/DAVE3.o
 .debug_macro   0x00000000      0xd39 Dave/Generated/src/DAVESupport/DAVE3.o
 .debug_macro   0x00000000       0x70 Dave/Generated/src/DAVESupport/DAVE3.o
 .debug_macro   0x00000000    0x150f5 Dave/Generated/src/DAVESupport/DAVE3.o
 .debug_macro   0x00000000      0x16c Dave/Generated/src/DAVESupport/DAVE3.o
 .debug_macro   0x00000000       0x22 Dave/Generated/src/DAVESupport/DAVE3.o
 .debug_macro   0x00000000      0x54a Dave/Generated/src/DAVESupport/DAVE3.o
 .debug_macro   0x00000000       0x64 Dave/Generated/src/DAVESupport/DAVE3.o
 .debug_macro   0x00000000       0x46 Dave/Generated/src/DAVESupport/DAVE3.o
 .debug_macro   0x00000000      0x160 Dave/Generated/src/DAVESupport/DAVE3.o
 .debug_macro   0x00000000      0x130 Dave/Generated/src/DAVESupport/DAVE3.o
 .debug_macro   0x00000000       0x7f Dave/Generated/src/DAVESupport/DAVE3.o
 .debug_macro   0x00000000       0xb4 Dave/Generated/src/DAVESupport/DAVE3.o
 .debug_macro   0x00000000       0xb5 Dave/Generated/src/DAVESupport/DAVE3.o
 .debug_macro   0x00000000       0x49 Dave/Generated/src/DAVESupport/DAVE3.o
 .debug_macro   0x00000000       0x2e Dave/Generated/src/DAVESupport/DAVE3.o
 .debug_macro   0x00000000       0x2d Dave/Generated/src/DAVESupport/DAVE3.o
 .debug_macro   0x00000000       0x28 Dave/Generated/src/DAVESupport/DAVE3.o
 .debug_macro   0x00000000       0x28 Dave/Generated/src/DAVESupport/DAVE3.o
 .debug_macro   0x00000000       0x2e Dave/Generated/src/DAVESupport/DAVE3.o
 .comment       0x00000000       0x71 Dave/Generated/src/DAVESupport/DAVE3.o
 .group         0x00000000        0x8 Dave/Generated/src/DAVESupport/MULTIPLEXER.o
 .group         0x00000000        0x8 Dave/Generated/src/DAVESupport/MULTIPLEXER.o
 .group         0x00000000        0x8 Dave/Generated/src/DAVESupport/MULTIPLEXER.o
 .group         0x00000000        0x8 Dave/Generated/src/DAVESupport/MULTIPLEXER.o
 .group         0x00000000        0x8 Dave/Generated/src/DAVESupport/MULTIPLEXER.o
 .group         0x00000000        0x8 Dave/Generated/src/DAVESupport/MULTIPLEXER.o
 .group         0x00000000        0x8 Dave/Generated/src/DAVESupport/MULTIPLEXER.o
 .group         0x00000000        0x8 Dave/Generated/src/DAVESupport/MULTIPLEXER.o
 .group         0x00000000        0x8 Dave/Generated/src/DAVESupport/MULTIPLEXER.o
 .group         0x00000000        0x8 Dave/Generated/src/DAVESupport/MULTIPLEXER.o
 .group         0x00000000        0x8 Dave/Generated/src/DAVESupport/MULTIPLEXER.o
 .group         0x00000000        0x8 Dave/Generated/src/DAVESupport/MULTIPLEXER.o
 .group         0x00000000        0x8 Dave/Generated/src/DAVESupport/MULTIPLEXER.o
 .group         0x00000000        0x8 Dave/Generated/src/DAVESupport/MULTIPLEXER.o
 .group         0x00000000        0x8 Dave/Generated/src/DAVESupport/MULTIPLEXER.o
 .group         0x00000000        0x8 Dave/Generated/src/DAVESupport/MULTIPLEXER.o
 .group         0x00000000        0x8 Dave/Generated/src/DAVESupport/MULTIPLEXER.o
 .group         0x00000000        0x8 Dave/Generated/src/DAVESupport/MULTIPLEXER.o
 .group         0x00000000        0x8 Dave/Generated/src/DAVESupport/MULTIPLEXER.o
 .group         0x00000000        0x8 Dave/Generated/src/DAVESupport/MULTIPLEXER.o
 .group         0x00000000        0x8 Dave/Generated/src/DAVESupport/MULTIPLEXER.o
 .group         0x00000000        0x8 Dave/Generated/src/DAVESupport/MULTIPLEXER.o
 .group         0x00000000        0x8 Dave/Generated/src/DAVESupport/MULTIPLEXER.o
 .group         0x00000000        0x8 Dave/Generated/src/DAVESupport/MULTIPLEXER.o
 .group         0x00000000        0x8 Dave/Generated/src/DAVESupport/MULTIPLEXER.o
 .group         0x00000000        0x8 Dave/Generated/src/DAVESupport/MULTIPLEXER.o
 .group         0x00000000        0x8 Dave/Generated/src/DAVESupport/MULTIPLEXER.o
 .group         0x00000000        0x8 Dave/Generated/src/DAVESupport/MULTIPLEXER.o
 .group         0x00000000        0x8 Dave/Generated/src/DAVESupport/MULTIPLEXER.o
 .debug_macro   0x00000000      0x814 Dave/Generated/src/DAVESupport/MULTIPLEXER.o
 .debug_macro   0x00000000       0x2d Dave/Generated/src/DAVESupport/MULTIPLEXER.o
 .debug_macro   0x00000000       0x3b Dave/Generated/src/DAVESupport/MULTIPLEXER.o
 .debug_macro   0x00000000       0x3a Dave/Generated/src/DAVESupport/MULTIPLEXER.o
 .debug_macro   0x00000000       0x10 Dave/Generated/src/DAVESupport/MULTIPLEXER.o
 .debug_macro   0x00000000       0x2e Dave/Generated/src/DAVESupport/MULTIPLEXER.o
 .debug_macro   0x00000000       0xa3 Dave/Generated/src/DAVESupport/MULTIPLEXER.o
 .debug_macro   0x00000000      0x20e Dave/Generated/src/DAVESupport/MULTIPLEXER.o
 .debug_macro   0x00000000       0x2d Dave/Generated/src/DAVESupport/MULTIPLEXER.o
 .debug_macro   0x00000000       0x42 Dave/Generated/src/DAVESupport/MULTIPLEXER.o
 .debug_macro   0x00000000      0xd39 Dave/Generated/src/DAVESupport/MULTIPLEXER.o
 .debug_macro   0x00000000       0x70 Dave/Generated/src/DAVESupport/MULTIPLEXER.o
 .debug_macro   0x00000000    0x150f5 Dave/Generated/src/DAVESupport/MULTIPLEXER.o
 .debug_macro   0x00000000      0x16c Dave/Generated/src/DAVESupport/MULTIPLEXER.o
 .debug_macro   0x00000000       0x22 Dave/Generated/src/DAVESupport/MULTIPLEXER.o
 .debug_macro   0x00000000      0x54a Dave/Generated/src/DAVESupport/MULTIPLEXER.o
 .debug_macro   0x00000000       0x64 Dave/Generated/src/DAVESupport/MULTIPLEXER.o
 .debug_macro   0x00000000       0x46 Dave/Generated/src/DAVESupport/MULTIPLEXER.o
 .debug_macro   0x00000000      0x160 Dave/Generated/src/DAVESupport/MULTIPLEXER.o
 .debug_macro   0x00000000      0x130 Dave/Generated/src/DAVESupport/MULTIPLEXER.o
 .debug_macro   0x00000000       0x7f Dave/Generated/src/DAVESupport/MULTIPLEXER.o
 .debug_macro   0x00000000       0xb4 Dave/Generated/src/DAVESupport/MULTIPLEXER.o
 .debug_macro   0x00000000       0xb5 Dave/Generated/src/DAVESupport/MULTIPLEXER.o
 .debug_macro   0x00000000       0x49 Dave/Generated/src/DAVESupport/MULTIPLEXER.o
 .debug_macro   0x00000000       0x2e Dave/Generated/src/DAVESupport/MULTIPLEXER.o
 .debug_macro   0x00000000       0x2d Dave/Generated/src/DAVESupport/MULTIPLEXER.o
 .debug_macro   0x00000000       0x28 Dave/Generated/src/DAVESupport/MULTIPLEXER.o
 .debug_macro   0x00000000       0x28 Dave/Generated/src/DAVESupport/MULTIPLEXER.o
 .debug_macro   0x00000000       0x2e Dave/Generated/src/DAVESupport/MULTIPLEXER.o
 .comment       0x00000000       0x71 Dave/Generated/src/DAVESupport/MULTIPLEXER.o
 .group         0x00000000        0x8 Dave/Generated/src/CLK001/CLK001.o
 .group         0x00000000        0x8 Dave/Generated/src/CLK001/CLK001.o
 .group         0x00000000        0x8 Dave/Generated/src/CLK001/CLK001.o
 .group         0x00000000        0x8 Dave/Generated/src/CLK001/CLK001.o
 .group         0x00000000        0x8 Dave/Generated/src/CLK001/CLK001.o
 .group         0x00000000        0x8 Dave/Generated/src/CLK001/CLK001.o
 .group         0x00000000        0x8 Dave/Generated/src/CLK001/CLK001.o
 .group         0x00000000        0x8 Dave/Generated/src/CLK001/CLK001.o
 .group         0x00000000        0x8 Dave/Generated/src/CLK001/CLK001.o
 .group         0x00000000        0x8 Dave/Generated/src/CLK001/CLK001.o
 .group         0x00000000        0x8 Dave/Generated/src/CLK001/CLK001.o
 .group         0x00000000        0x8 Dave/Generated/src/CLK001/CLK001.o
 .group         0x00000000        0x8 Dave/Generated/src/CLK001/CLK001.o
 .group         0x00000000        0x8 Dave/Generated/src/CLK001/CLK001.o
 .group         0x00000000        0x8 Dave/Generated/src/CLK001/CLK001.o
 .group         0x00000000        0x8 Dave/Generated/src/CLK001/CLK001.o
 .debug_macro   0x00000000      0x814 Dave/Generated/src/CLK001/CLK001.o
 .debug_macro   0x00000000      0x130 Dave/Generated/src/CLK001/CLK001.o
 .debug_macro   0x00000000       0x2d Dave/Generated/src/CLK001/CLK001.o
 .debug_macro   0x00000000       0x3b Dave/Generated/src/CLK001/CLK001.o
 .debug_macro   0x00000000       0x3a Dave/Generated/src/CLK001/CLK001.o
 .debug_macro   0x00000000       0x10 Dave/Generated/src/CLK001/CLK001.o
 .debug_macro   0x00000000       0x2e Dave/Generated/src/CLK001/CLK001.o
 .debug_macro   0x00000000       0xa3 Dave/Generated/src/CLK001/CLK001.o
 .debug_macro   0x00000000      0x20e Dave/Generated/src/CLK001/CLK001.o
 .debug_macro   0x00000000       0x2d Dave/Generated/src/CLK001/CLK001.o
 .debug_macro   0x00000000       0x42 Dave/Generated/src/CLK001/CLK001.o
 .debug_macro   0x00000000      0xd39 Dave/Generated/src/CLK001/CLK001.o
 .debug_macro   0x00000000       0x70 Dave/Generated/src/CLK001/CLK001.o
 .debug_macro   0x00000000    0x150f5 Dave/Generated/src/CLK001/CLK001.o
 .debug_macro   0x00000000       0x7f Dave/Generated/src/CLK001/CLK001.o
 .debug_macro   0x00000000       0xb4 Dave/Generated/src/CLK001/CLK001.o
 .comment       0x00000000       0x71 Dave/Generated/src/CLK001/CLK001.o

Memory Configuration

Name             Origin             Length             Attributes
FLASH_1_cached   0x08000000         0x00100000         xr
FLASH_1_uncached 0x0c000000         0x00100000         xr
PSRAM_1          0x10000000         0x00010000         !xr
DSRAM_1_system   0x20000000         0x00010000         !xr
DSRAM_2_comm     0x30000000         0x00008000         !xr
*default*        0x00000000         0xffffffff

Linker script and memory map

LOAD BluetoothDriver.o
LOAD CleanArray.o
LOAD FIFO_functions.o
LOAD HTU21D.o
LOAD LSM9DS1_Driver.o
LOAD Main.o
LOAD SendMeasurementsToBt.o
LOAD TSL2561.o
LOAD Timer.o
LOAD timerFunctions.o
LOAD Startup/startup_XMC4500.o
LOAD Startup/system_XMC4500.o
LOAD Lib/System_LibcStubs.o
LOAD Dave/Generated/src/UART001/UART001.o
LOAD Dave/Generated/src/UART001/UART001_Conf.o
LOAD Dave/Generated/src/SYSTM001/SYSTM001.o
LOAD Dave/Generated/src/RESET001/RESET001.o
LOAD Dave/Generated/src/NVIC002/NVIC002.o
LOAD Dave/Generated/src/NVIC002/NVIC002_Conf.o
LOAD Dave/Generated/src/LIBS/CCU8PWMLIB.o
LOAD Dave/Generated/src/LIBS/MOTORLIB.o
LOAD Dave/Generated/src/IO004/IO004.o
LOAD Dave/Generated/src/IO004/IO004_Conf.o
LOAD Dave/Generated/src/I2C001/I2C001.o
LOAD Dave/Generated/src/I2C001/I2C001_Conf.o
LOAD Dave/Generated/src/DAVESupport/DAVE3.o
LOAD Dave/Generated/src/DAVESupport/MULTIPLEXER.o
LOAD Dave/Generated/src/CLK001/CLK001.o
LOAD c:/dave-3.1.10/arm-gcc/bin/../lib/gcc/arm-none-eabi/4.7.4/../../../../arm-none-eabi/lib/armv7e-m\libm.a
START GROUP
LOAD c:/dave-3.1.10/arm-gcc/bin/../lib/gcc/arm-none-eabi/4.7.4/armv7e-m\libgcc.a
LOAD c:/dave-3.1.10/arm-gcc/bin/../lib/gcc/arm-none-eabi/4.7.4/../../../../arm-none-eabi/lib/armv7e-m\libg.a
LOAD c:/dave-3.1.10/arm-gcc/bin/../lib/gcc/arm-none-eabi/4.7.4/../../../../arm-none-eabi/lib/armv7e-m\libc.a
END GROUP
                0x00000800                stack_size = 0x800

.text           0x08000000    0x13368 load address 0x0c000000
                0x08000000                sText = .
 *(.Xmc4500.reset)
 .Xmc4500.reset
                0x08000000      0x21c Startup/startup_XMC4500.o
                0x08000000                __Xmc4500_interrupt_vector_cortex_m
                0x08000200                __Xmc4500_reset_cortex_m
 *(.Xmc4500.postreset)
 .Xmc4500.postreset
                0x0800021c       0xa8 Startup/startup_XMC4500.o
 *(.XmcStartup)
 .XmcStartup    0x080002c4        0x4 Startup/startup_XMC4500.o
 *(.text .text.* .gnu.linkonce.t.*)
 .text          0x080002c8        0x0 BluetoothDriver.o
 .text.resetConnectionIndicator
                0x080002c8       0x28 BluetoothDriver.o
                0x080002c8                resetConnectionIndicator
 .text.chooseDevice
                0x080002f0      0x470 BluetoothDriver.o
                0x080002f0                chooseDevice
 .text.resetConnection
                0x08000760       0x14 BluetoothDriver.o
                0x08000760                resetConnection
 .text.checkErrorOccurence
                0x08000774       0xe0 BluetoothDriver.o
                0x08000774                checkErrorOccurence
 .text.manageConnection
                0x08000854       0x88 BluetoothDriver.o
                0x08000854                manageConnection
 .text.copyCheckAnswers
                0x080008dc       0xdc BluetoothDriver.o
                0x080008dc                copyCheckAnswers
 .text.copyCommands
                0x080009b8       0xec BluetoothDriver.o
                0x080009b8                copyCommands
 .text.getStatusMainTimer
                0x08000aa4       0x18 BluetoothDriver.o
                0x08000aa4                getStatusMainTimer
 .text.setStatusMainTimer
                0x08000abc       0x20 BluetoothDriver.o
                0x08000abc                setStatusMainTimer
 .text.removeMainTimer
                0x08000adc       0x34 BluetoothDriver.o
                0x08000adc                removeMainTimer
 .text.removeReceiveTimer
                0x08000b10       0x34 BluetoothDriver.o
                0x08000b10                removeReceiveTimer
 .text.createMainTimer
                0x08000b44       0x4c BluetoothDriver.o
                0x08000b44                createMainTimer
 .text.createReceiveTimer
                0x08000b90       0x3c BluetoothDriver.o
                0x08000b90                createReceiveTimer
 .text.timerHandlerInitBluetooth
                0x08000bcc      0x13c BluetoothDriver.o
                0x08000bcc                timerHandlerInitBluetooth
 .text.timerHandlerInitBluetoothReceive
                0x08000d08       0xd8 BluetoothDriver.o
                0x08000d08                timerHandlerInitBluetoothReceive
 .text.RxTimerHandler
                0x08000de0       0x34 BluetoothDriver.o
                0x08000de0                RxTimerHandler
 .text.initBluetooth
                0x08000e14       0x18 BluetoothDriver.o
                0x08000e14                initBluetooth
 .text.send     0x08000e2c       0xd0 BluetoothDriver.o
                0x08000e2c                send
 .text.read     0x08000efc       0xec BluetoothDriver.o
                0x08000efc                read
 .text.askAboutSending
                0x08000fe8       0x28 BluetoothDriver.o
                0x08000fe8                askAboutSending
 .text.stopAskingAboutSending
                0x08001010       0x28 BluetoothDriver.o
                0x08001010                stopAskingAboutSending
 .text.statusRtsFlowControl
                0x08001038       0x2c BluetoothDriver.o
                0x08001038                statusRtsFlowControl
 .text.checkStatusCts
                0x08001064       0x2c BluetoothDriver.o
                0x08001064                checkStatusCts
 .text.checkFunction
                0x08001090       0x2c BluetoothDriver.o
                0x08001090                checkFunction
 .text.connectStatus
                0x080010bc       0x2c BluetoothDriver.o
                0x080010bc                connectStatus
 .text.initFlowControl
                0x080010e8        0xc BluetoothDriver.o
                0x080010e8                initFlowControl
 .text.delayBt  0x080010f4       0x2c BluetoothDriver.o
                0x080010f4                delayBt
 .text          0x08001120        0x0 CleanArray.o
 .text.cleanArray
                0x08001120       0x38 CleanArray.o
                0x08001120                cleanArray
 .text          0x08001158        0x0 FIFO_functions.o
 .text.flushFIFO
                0x08001158       0x28 FIFO_functions.o
                0x08001158                flushFIFO
 .text.clearErrorFlags
                0x08001180       0x70 FIFO_functions.o
                0x08001180                clearErrorFlags
 .text          0x080011f0        0x0 HTU21D.o
 .text.readHumidity
                0x080011f0      0x220 HTU21D.o
                0x080011f0                readHumidity
 .text.readHumidTimerHandler
                0x08001410      0x220 HTU21D.o
                0x08001410                readHumidTimerHandler
 .text.readTemperature
                0x08001630      0x220 HTU21D.o
                0x08001630                readTemperature
 .text.readTmpTimerHandler
                0x08001850      0x250 HTU21D.o
                0x08001850                readTmpTimerHandler
 .text.delay11  0x08001aa0       0x2c HTU21D.o
                0x08001aa0                delay11
 .text.check_crc
                0x08001acc       0x74 HTU21D.o
                0x08001acc                check_crc
 .text          0x08001b40        0x0 LSM9DS1_Driver.o
 .text.getAccelXf
                0x08001b40       0x18 LSM9DS1_Driver.o
                0x08001b40                getAccelXf
 .text.getAccelX
                0x08001b58       0x18 LSM9DS1_Driver.o
                0x08001b58                getAccelX
 .text.getAccelYf
                0x08001b70       0x18 LSM9DS1_Driver.o
                0x08001b70                getAccelYf
 .text.getAccelY
                0x08001b88       0x18 LSM9DS1_Driver.o
                0x08001b88                getAccelY
 .text.getAccelZf
                0x08001ba0       0x18 LSM9DS1_Driver.o
                0x08001ba0                getAccelZf
 .text.getAccelZ
                0x08001bb8       0x18 LSM9DS1_Driver.o
                0x08001bb8                getAccelZ
 .text.getGyroXf
                0x08001bd0       0x18 LSM9DS1_Driver.o
                0x08001bd0                getGyroXf
 .text.getGyroX
                0x08001be8       0x18 LSM9DS1_Driver.o
                0x08001be8                getGyroX
 .text.getGyroYf
                0x08001c00       0x18 LSM9DS1_Driver.o
                0x08001c00                getGyroYf
 .text.getGyroY
                0x08001c18       0x18 LSM9DS1_Driver.o
                0x08001c18                getGyroY
 .text.getGyroZf
                0x08001c30       0x18 LSM9DS1_Driver.o
                0x08001c30                getGyroZf
 .text.getGyroZ
                0x08001c48       0x18 LSM9DS1_Driver.o
                0x08001c48                getGyroZ
 .text.getMagnetXf
                0x08001c60       0x18 LSM9DS1_Driver.o
                0x08001c60                getMagnetXf
 .text.getMagnetX
                0x08001c78       0x18 LSM9DS1_Driver.o
                0x08001c78                getMagnetX
 .text.getMagnetYf
                0x08001c90       0x18 LSM9DS1_Driver.o
                0x08001c90                getMagnetYf
 .text.getMagnetY
                0x08001ca8       0x18 LSM9DS1_Driver.o
                0x08001ca8                getMagnetY
 .text.getMagnetZf
                0x08001cc0       0x18 LSM9DS1_Driver.o
                0x08001cc0                getMagnetZf
 .text.getMagnetZ
                0x08001cd8       0x18 LSM9DS1_Driver.o
                0x08001cd8                getMagnetZ
 .text.startMeasurements
                0x08001cf0       0x40 LSM9DS1_Driver.o
                0x08001cf0                startMeasurements
 .text.startMeasurements1
                0x08001d30       0x40 LSM9DS1_Driver.o
                0x08001d30                startMeasurements1
 .text.resetMeasurements
                0x08001d70       0x28 LSM9DS1_Driver.o
                0x08001d70                resetMeasurements
 .text.readAndSendMeasurements
                0x08001d98      0x6a0 LSM9DS1_Driver.o
                0x08001d98                readAndSendMeasurements
 .text.initAdrAndSubAdr
                0x08002438       0x50 LSM9DS1_Driver.o
                0x08002438                initAdrAndSubAdr
 .text.initLSM9DS1
                0x08002488       0x5c LSM9DS1_Driver.o
                0x08002488                initLSM9DS1
 .text.init     0x080024e4      0x2bc LSM9DS1_Driver.o
                0x080024e4                init
 .text.begin    0x080027a0       0xc4 LSM9DS1_Driver.o
                0x080027a0                begin
 .text.constrainScales
                0x08002864       0xdc LSM9DS1_Driver.o
                0x08002864                constrainScales
 .text.initI2C  0x08002940        0xc LSM9DS1_Driver.o
                0x08002940                initI2C
 .text.initSPI  0x0800294c        0xc LSM9DS1_Driver.o
                0x0800294c                initSPI
 .text.calcgRes
                0x08002958       0x34 LSM9DS1_Driver.o
                0x08002958                calcgRes
 .text.calcaRes
                0x0800298c       0x34 LSM9DS1_Driver.o
                0x0800298c                calcaRes
 .text.calcmRes
                0x080029c0       0xb4 LSM9DS1_Driver.o
                0x080029c0                calcmRes
 .text.delay    0x08002a74       0x34 LSM9DS1_Driver.o
                0x08002a74                delay
 .text.I2CreadByte
                0x08002aa8      0x14c LSM9DS1_Driver.o
                0x08002aa8                I2CreadByte
 .text.USIC2_2_IRQHandler
                0x08002bf4       0x38 LSM9DS1_Driver.o
                0x08002bf4                USIC2_2_IRQHandler
 .text.CCU81_0_IRQHandler
                0x08002c2c       0x68 LSM9DS1_Driver.o
                0x08002c2c                CCU81_0_IRQHandler
 .text.mReadByte
                0x08002c94       0x3c LSM9DS1_Driver.o
                0x08002c94                mReadByte
 .text.xgReadByte
                0x08002cd0       0x3c LSM9DS1_Driver.o
                0x08002cd0                xgReadByte
 .text.initGyro
                0x08002d0c      0x1a4 LSM9DS1_Driver.o
                0x08002d0c                initGyro
 .text.xgWriteByte
                0x08002eb0       0x3c LSM9DS1_Driver.o
                0x08002eb0                xgWriteByte
 .text.I2CwriteByte
                0x08002eec       0xb8 LSM9DS1_Driver.o
                0x08002eec                I2CwriteByte
 .text.initAccel
                0x08002fa4      0x144 LSM9DS1_Driver.o
                0x08002fa4                initAccel
 .text.initMag  0x080030e8      0x140 LSM9DS1_Driver.o
                0x080030e8                initMag
 .text.mWriteByte
                0x08003228       0x40 LSM9DS1_Driver.o
                0x08003228                mWriteByte
 .text.enableFIFO
                0x08003268       0x44 LSM9DS1_Driver.o
                0x08003268                enableFIFO
 .text.setFIFO  0x080032ac       0x40 LSM9DS1_Driver.o
                0x080032ac                setFIFO
 .text.calibrate
                0x080032ec      0x240 LSM9DS1_Driver.o
                0x080032ec                calibrate
 .text.xgReadBytes
                0x0800352c       0x68 LSM9DS1_Driver.o
                0x0800352c                xgReadBytes
 .text.SPIreadBytes
                0x08003594       0x1c LSM9DS1_Driver.o
                0x08003594                SPIreadBytes
 .text.readGyro1
                0x080035b0      0x144 LSM9DS1_Driver.o
                0x080035b0                readGyro1
 .text.readAccel1
                0x080036f4      0x134 LSM9DS1_Driver.o
                0x080036f4                readAccel1
 .text.readAccelToSensor
                0x08003828      0x1dc LSM9DS1_Driver.o
                0x08003828                readAccelToSensor
 .text.I2CreadBytes
                0x08003a04      0x14c LSM9DS1_Driver.o
                0x08003a04                I2CreadBytes
 .text.magAvailable
                0x08003b50       0x38 LSM9DS1_Driver.o
                0x08003b50                magAvailable
 .text.readMag1
                0x08003b88       0xa0 LSM9DS1_Driver.o
                0x08003b88                readMag1
 .text.calibrateMag
                0x08003c28      0x1e4 LSM9DS1_Driver.o
                0x08003c28                calibrateMag
 .text.calcMag  0x08003e0c       0x38 LSM9DS1_Driver.o
                0x08003e0c                calcMag
 .text.magOffset
                0x08003e44       0x64 LSM9DS1_Driver.o
                0x08003e44                magOffset
 .text.accelAvailable
                0x08003ea8       0x24 LSM9DS1_Driver.o
                0x08003ea8                accelAvailable
 .text.gyroAvailable
                0x08003ecc       0x28 LSM9DS1_Driver.o
                0x08003ecc                gyroAvailable
 .text.tempAvailable
                0x08003ef4       0x28 LSM9DS1_Driver.o
                0x08003ef4                tempAvailable
 .text.readAccel
                0x08003f1c       0xa4 LSM9DS1_Driver.o
                0x08003f1c                readAccel
 .text.readMag  0x08003fc0       0x80 LSM9DS1_Driver.o
                0x08003fc0                readMag
 .text.readTemp
                0x08004040       0x84 LSM9DS1_Driver.o
                0x08004040                readTemp
 .text.readGyro
                0x080040c4       0xa4 LSM9DS1_Driver.o
                0x080040c4                readGyro
 .text.calcGyro
                0x08004168       0x38 LSM9DS1_Driver.o
                0x08004168                calcGyro
 .text.calcAccel
                0x080041a0       0x38 LSM9DS1_Driver.o
                0x080041a0                calcAccel
 .text.setGyroScale
                0x080041d8       0x88 LSM9DS1_Driver.o
                0x080041d8                setGyroScale
 .text.setAccelScale
                0x08004260       0x9c LSM9DS1_Driver.o
                0x08004260                setAccelScale
 .text.setMagScale
                0x080042fc       0xa4 LSM9DS1_Driver.o
                0x080042fc                setMagScale
 .text.setGyroODR
                0x080043a0       0x60 LSM9DS1_Driver.o
                0x080043a0                setGyroODR
 .text.setAccelODR
                0x08004400       0x60 LSM9DS1_Driver.o
                0x08004400                setAccelODR
 .text.setMagODR
                0x08004460       0x5c LSM9DS1_Driver.o
                0x08004460                setMagODR
 .text.configInt
                0x080044bc       0x6c LSM9DS1_Driver.o
                0x080044bc                configInt
 .text.configInactivity
                0x08004528       0x50 LSM9DS1_Driver.o
                0x08004528                configInactivity
 .text.getInactivity
                0x08004578       0x28 LSM9DS1_Driver.o
                0x08004578                getInactivity
 .text.configAccelInt
                0x080045a0       0x34 LSM9DS1_Driver.o
                0x080045a0                configAccelInt
 .text.configAccelThs
                0x080045d4       0x4c LSM9DS1_Driver.o
                0x080045d4                configAccelThs
 .text.getAccelIntSrc
                0x08004620       0x34 LSM9DS1_Driver.o
                0x08004620                getAccelIntSrc
 .text.configGyroInt
                0x08004654       0x48 LSM9DS1_Driver.o
                0x08004654                configGyroInt
 .text.configGyroThs
                0x0800469c       0x7c LSM9DS1_Driver.o
                0x0800469c                configGyroThs
 .text.getGyroIntSrc
                0x08004718       0x34 LSM9DS1_Driver.o
                0x08004718                getGyroIntSrc
 .text.configMagInt
                0x0800474c       0x58 LSM9DS1_Driver.o
                0x0800474c                configMagInt
 .text.configMagThs
                0x080047a4       0x38 LSM9DS1_Driver.o
                0x080047a4                configMagThs
 .text.getMagIntSrc
                0x080047dc       0x34 LSM9DS1_Driver.o
                0x080047dc                getMagIntSrc
 .text.sleepGyro
                0x08004810       0x44 LSM9DS1_Driver.o
                0x08004810                sleepGyro
 .text.getFIFOSamples
                0x08004854       0x18 LSM9DS1_Driver.o
                0x08004854                getFIFOSamples
 .text.timerHandlerSendMsg
                0x0800486c       0xd0 LSM9DS1_Driver.o
                0x0800486c                timerHandlerSendMsg
 .text.timerHandlerReceiveOneMeasurementEachSensor
                0x0800493c      0x224 LSM9DS1_Driver.o
                0x0800493c                timerHandlerReceiveOneMeasurementEachSensor
 .text.timerHandlerReceiveOneMeasurementEachSensor1
                0x08004b60      0x250 LSM9DS1_Driver.o
                0x08004b60                timerHandlerReceiveOneMeasurementEachSensor1
 .text.receiveByte
                0x08004db0      0x160 LSM9DS1_Driver.o
                0x08004db0                receiveByte
 .text          0x08004f10        0x0 Main.o
 .text.check    0x08004f10       0xf4 Main.o
                0x08004f10                check
 .text.main     0x08005004       0x7c Main.o
                0x08005004                main
 .text          0x08005080        0x0 SendMeasurementsToBt.o
 .text.sendMeasurementsToBt
                0x08005080      0xb8c SendMeasurementsToBt.o
                0x08005080                sendMeasurementsToBt
 .text.sendMsgLSM9DS1
                0x08005c0c       0x3c SendMeasurementsToBt.o
                0x08005c0c                sendMsgLSM9DS1
 .text.sendTSL2561
                0x08005c48       0x2c SendMeasurementsToBt.o
                0x08005c48                sendTSL2561
 .text.sendMsgHTU21D
                0x08005c74       0x2c SendMeasurementsToBt.o
                0x08005c74                sendMsgHTU21D
 .text.sendAllSensors
                0x08005ca0       0x3c SendMeasurementsToBt.o
                0x08005ca0                sendAllSensors
 .text          0x08005cdc        0x0 TSL2561.o
 .text.USIC1_0_IRQHandler
                0x08005cdc       0x38 TSL2561.o
                0x08005cdc                USIC1_0_IRQHandler
 .text.startMeasurementsTSL2561
                0x08005d14       0x3c TSL2561.o
                0x08005d14                startMeasurementsTSL2561
 .text.stopMeasurementsTSL2561
                0x08005d50       0x28 TSL2561.o
                0x08005d50                stopMeasurementsTSL2561
 .text.timerHandlerReceiveTSL2561
                0x08005d78       0x6c TSL2561.o
                0x08005d78                timerHandlerReceiveTSL2561
 .text.readTSL2561
                0x08005de4       0x68 TSL2561.o
                0x08005de4                readTSL2561
 .text.SFE_TSL2561
                0x08005e4c        0xc TSL2561.o
                0x08005e4c                SFE_TSL2561
 .text.begin1   0x08005e58       0x14 TSL2561.o
                0x08005e58                begin1
 .text.begin11  0x08005e6c       0x28 TSL2561.o
                0x08005e6c                begin11
 .text.setPowerUp
                0x08005e94       0x18 TSL2561.o
                0x08005e94                setPowerUp
 .text.setPowerDown
                0x08005eac       0x18 TSL2561.o
                0x08005eac                setPowerDown
 .text.setTiming
                0x08005ec4       0x80 TSL2561.o
                0x08005ec4                setTiming
 .text.setTiming1
                0x08005f44       0x58 TSL2561.o
                0x08005f44                setTiming1
 .text.manualStart
                0x08005f9c       0x68 TSL2561.o
                0x08005f9c                manualStart
 .text.manualStop
                0x08006004       0x4c TSL2561.o
                0x08006004                manualStop
 .text.getData  0x08006050       0x44 TSL2561.o
                0x08006050                getData
 *fill*         0x08006094        0x4 00
 .text.getLux   0x08006098      0x2f8 TSL2561.o
                0x08006098                getLux
 .text.setInterruptControl
                0x08006390       0x50 TSL2561.o
                0x08006390                setInterruptControl
 .text.setInterruptThreshold
                0x080063e0       0x40 TSL2561.o
                0x080063e0                setInterruptThreshold
 .text.clearInterrupt
                0x08006420       0x10 TSL2561.o
                0x08006420                clearInterrupt
 .text.getID    0x08006430       0x2c TSL2561.o
                0x08006430                getID
 .text.getError
                0x0800645c       0x18 TSL2561.o
                0x0800645c                getError
 .text.readByte
                0x08006474      0x180 TSL2561.o
                0x08006474                readByte
 .text.writeByte
                0x080065f4       0xd0 TSL2561.o
                0x080065f4                writeByte
 .text.readUInt
                0x080066c4      0x1f0 TSL2561.o
                0x080066c4                readUInt
 .text.writeUInt
                0x080068b4       0x40 TSL2561.o
                0x080068b4                writeUInt
 .text.delay2   0x080068f4       0x34 TSL2561.o
                0x080068f4                delay2
 .text.getLuminosity
                0x08006928       0x1c TSL2561.o
                0x08006928                getLuminosity
 .text          0x08006944        0x0 Timer.o
 .text.makeTimer
                0x08006944       0x44 Timer.o
                0x08006944                makeTimer
 .text.removeTimer
                0x08006988       0x44 Timer.o
                0x08006988                removeTimer
 .text          0x080069cc        0x0 timerFunctions.o
 .text          0x080069cc       0xe2 Startup/startup_XMC4500.o
                0x080069cc                NMI_Handler
                0x080069ce                HardFault_Handler
                0x080069d0                MemManage_Handler
                0x080069d2                BusFault_Handler
                0x080069d4                UsageFault_Handler
                0x080069d6                SVC_Handler
                0x080069d8                DebugMon_Handler
                0x080069da                PendSV_Handler
                0x080069de                SCU_0_IRQHandler
                0x080069e0                ERU0_0_IRQHandler
                0x080069e2                ERU0_1_IRQHandler
                0x080069e4                ERU0_2_IRQHandler
                0x080069e6                ERU0_3_IRQHandler
                0x080069e8                ERU1_0_IRQHandler
                0x080069ea                ERU1_1_IRQHandler
                0x080069ec                ERU1_2_IRQHandler
                0x080069ee                ERU1_3_IRQHandler
                0x080069f0                PMU0_0_IRQHandler
                0x080069f2                VADC0_C0_0_IRQHandler
                0x080069f4                VADC0_C0_1_IRQHandler
                0x080069f6                VADC0_C0_2_IRQHandler
                0x080069f8                VADC0_C0_3_IRQHandler
                0x080069fa                VADC0_G0_0_IRQHandler
                0x080069fc                VADC0_G0_1_IRQHandler
                0x080069fe                VADC0_G0_2_IRQHandler
                0x08006a00                VADC0_G0_3_IRQHandler
                0x08006a02                VADC0_G1_0_IRQHandler
                0x08006a04                VADC0_G1_1_IRQHandler
                0x08006a06                VADC0_G1_2_IRQHandler
                0x08006a08                VADC0_G1_3_IRQHandler
                0x08006a0a                VADC0_G2_0_IRQHandler
                0x08006a0c                VADC0_G2_1_IRQHandler
                0x08006a0e                VADC0_G2_2_IRQHandler
                0x08006a10                VADC0_G2_3_IRQHandler
                0x08006a12                VADC0_G3_0_IRQHandler
                0x08006a14                VADC0_G3_1_IRQHandler
                0x08006a16                VADC0_G3_2_IRQHandler
                0x08006a18                VADC0_G3_3_IRQHandler
                0x08006a1a                DSD0_0_IRQHandler
                0x08006a1c                DSD0_1_IRQHandler
                0x08006a1e                DSD0_2_IRQHandler
                0x08006a20                DSD0_3_IRQHandler
                0x08006a22                DSD0_4_IRQHandler
                0x08006a24                DSD0_5_IRQHandler
                0x08006a26                DSD0_6_IRQHandler
                0x08006a28                DSD0_7_IRQHandler
                0x08006a2a                DAC0_0_IRQHandler
                0x08006a2c                DAC0_1_IRQHandler
                0x08006a2e                CCU40_0_IRQHandler
                0x08006a30                CCU40_1_IRQHandler
                0x08006a32                CCU40_2_IRQHandler
                0x08006a34                CCU40_3_IRQHandler
                0x08006a36                CCU41_0_IRQHandler
                0x08006a38                CCU41_1_IRQHandler
                0x08006a3a                CCU41_2_IRQHandler
                0x08006a3c                CCU41_3_IRQHandler
                0x08006a3e                CCU42_0_IRQHandler
                0x08006a40                CCU42_1_IRQHandler
                0x08006a42                CCU42_2_IRQHandler
                0x08006a44                CCU42_3_IRQHandler
                0x08006a46                CCU43_0_IRQHandler
                0x08006a48                CCU43_1_IRQHandler
                0x08006a4a                CCU43_2_IRQHandler
                0x08006a4c                CCU43_3_IRQHandler
                0x08006a4e                CCU80_0_IRQHandler
                0x08006a50                CCU80_1_IRQHandler
                0x08006a52                CCU80_2_IRQHandler
                0x08006a54                CCU80_3_IRQHandler
                0x08006a58                CCU81_1_IRQHandler
                0x08006a5a                CCU81_2_IRQHandler
                0x08006a5c                CCU81_3_IRQHandler
                0x08006a5e                POSIF0_0_IRQHandler
                0x08006a60                POSIF0_1_IRQHandler
                0x08006a62                POSIF1_0_IRQHandler
                0x08006a64                POSIF1_1_IRQHandler
                0x08006a66                CAN0_0_IRQHandler
                0x08006a68                CAN0_1_IRQHandler
                0x08006a6a                CAN0_2_IRQHandler
                0x08006a6c                CAN0_3_IRQHandler
                0x08006a6e                CAN0_4_IRQHandler
                0x08006a70                CAN0_5_IRQHandler
                0x08006a72                CAN0_6_IRQHandler
                0x08006a74                CAN0_7_IRQHandler
                0x08006a76                USIC0_0_IRQHandler
                0x08006a78                USIC0_1_IRQHandler
                0x08006a7a                USIC0_2_IRQHandler
                0x08006a7c                USIC0_3_IRQHandler
                0x08006a7e                USIC0_4_IRQHandler
                0x08006a80                USIC0_5_IRQHandler
                0x08006a84                USIC1_1_IRQHandler
                0x08006a86                USIC1_2_IRQHandler
                0x08006a88                USIC1_3_IRQHandler
                0x08006a8a                USIC1_4_IRQHandler
                0x08006a8c                USIC1_5_IRQHandler
                0x08006a8e                USIC2_0_IRQHandler
                0x08006a90                USIC2_1_IRQHandler
                0x08006a94                USIC2_3_IRQHandler
                0x08006a96                USIC2_4_IRQHandler
                0x08006a98                USIC2_5_IRQHandler
                0x08006a9a                LEDTS0_0_IRQHandler
                0x08006a9c                FCE0_0_IRQHandler
                0x08006a9e                GPDMA0_0_IRQHandler
                0x08006aa0                SDMMC0_0_IRQHandler
                0x08006aa2                USB0_0_IRQHandler
                0x08006aa4                ETH0_0_IRQHandler
                0x08006aa6                GPDMA1_0_IRQHandler
 .text          0x08006aae        0x0 Startup/system_XMC4500.o
 *fill*         0x08006aae        0x2 00
 .text.SystemInit
                0x08006ab0       0x9c Startup/system_XMC4500.o
                0x08006ab0                SystemInit
 .text.SystemCoreClockUpdate
                0x08006b4c      0x148 Startup/system_XMC4500.o
                0x08006b4c                SystemCoreClockUpdate
 .text.SystemClockSetup
                0x08006c94      0x4cc Startup/system_XMC4500.o
 .text          0x08007160        0x0 Lib/System_LibcStubs.o
 .text._open    0x08007160       0x1c Lib/System_LibcStubs.o
                0x08007160                _open
 .text._lseek   0x0800717c       0x1c Lib/System_LibcStubs.o
                0x0800717c                _lseek
 .text._read    0x08007198       0x1c Lib/System_LibcStubs.o
                0x08007198                _read
 .text._write   0x080071b4       0x1c Lib/System_LibcStubs.o
                0x080071b4                _write
 .text._close   0x080071d0       0x10 Lib/System_LibcStubs.o
                0x080071d0                _close
 .text._fstat   0x080071e0       0x28 Lib/System_LibcStubs.o
                0x080071e0                _fstat
 .text._link    0x08007208       0x28 Lib/System_LibcStubs.o
                0x08007208                _link
 .text._unlink  0x08007230       0x18 Lib/System_LibcStubs.o
                0x08007230                _unlink
 .text._sbrk    0x08007248       0xa0 Lib/System_LibcStubs.o
                0x08007248                _sbrk
 .text._times   0x080072e8       0x18 Lib/System_LibcStubs.o
                0x080072e8                _times
 .text._wait    0x08007300       0x18 Lib/System_LibcStubs.o
                0x08007300                _wait
 .text._kill    0x08007318       0x1c Lib/System_LibcStubs.o
                0x08007318                _kill
 .text._fork    0x08007334       0x10 Lib/System_LibcStubs.o
                0x08007334                _fork
 .text._getpid  0x08007344       0x10 Lib/System_LibcStubs.o
                0x08007344                _getpid
 .text._exit    0x08007354        0xc Lib/System_LibcStubs.o
                0x08007354                _exit
 .text._init    0x08007360        0xc Lib/System_LibcStubs.o
                0x08007360                _init
 .text._isatty  0x0800736c       0x18 Lib/System_LibcStubs.o
                0x0800736c                _isatty
 .text          0x08007384        0x0 Dave/Generated/src/UART001/UART001.o
 .text.UART001_lInit
                0x08007384      0x1a8 Dave/Generated/src/UART001/UART001.o
                0x08007384                UART001_lInit
 .text.UART001_lConfigTXPin
                0x0800752c       0xfc Dave/Generated/src/UART001/UART001.o
                0x0800752c                UART001_lConfigTXPin
 .text.UART001_labsRealType
                0x08007628       0x38 Dave/Generated/src/UART001/UART001.o
                0x08007628                UART001_labsRealType
 .text.UART001_lConfigureBaudRate
                0x08007660      0x4e8 Dave/Generated/src/UART001/UART001.o
                0x08007660                UART001_lConfigureBaudRate
 .text.UART001_Init
                0x08007b48       0x6c Dave/Generated/src/UART001/UART001.o
                0x08007b48                UART001_Init
 .text.UART001_DeInit
                0x08007bb4       0x14 Dave/Generated/src/UART001/UART001.o
                0x08007bb4                UART001_DeInit
 .text.UART001_Configure
                0x08007bc8      0x114 Dave/Generated/src/UART001/UART001.o
                0x08007bc8                UART001_Configure
 .text.UART001_ReadDataMultiple
                0x08007cdc       0x80 Dave/Generated/src/UART001/UART001.o
                0x08007cdc                UART001_ReadDataMultiple
 .text.UART001_ReadDataBytes
                0x08007d5c       0x80 Dave/Generated/src/UART001/UART001.o
                0x08007d5c                UART001_ReadDataBytes
 .text.UART001_WriteDataMultiple
                0x08007ddc       0x90 Dave/Generated/src/UART001/UART001.o
                0x08007ddc                UART001_WriteDataMultiple
 .text.UART001_WriteDataBytes
                0x08007e6c       0x90 Dave/Generated/src/UART001/UART001.o
                0x08007e6c                UART001_WriteDataBytes
 .text.UART001_GetFlagStatus
                0x08007efc       0x98 Dave/Generated/src/UART001/UART001.o
                0x08007efc                UART001_GetFlagStatus
 .text.UART001_ClearFlag
                0x08007f94       0x78 Dave/Generated/src/UART001/UART001.o
                0x08007f94                UART001_ClearFlag
 .text          0x0800800c        0x0 Dave/Generated/src/UART001/UART001_Conf.o
 .text          0x0800800c        0x0 Dave/Generated/src/SYSTM001/SYSTM001.o
 .text.NVIC_GetPriorityGrouping
                0x0800800c       0x20 Dave/Generated/src/SYSTM001/SYSTM001.o
 .text.NVIC_SetPriority
                0x0800802c       0x5c Dave/Generated/src/SYSTM001/SYSTM001.o
 .text.NVIC_EncodePriority
                0x08008088       0x78 Dave/Generated/src/SYSTM001/SYSTM001.o
 .text.SysTick_Config
                0x08008100       0x64 Dave/Generated/src/SYSTM001/SYSTM001.o
 .text.SYSTM001_lInsertTimerList
                0x08008164      0x214 Dave/Generated/src/SYSTM001/SYSTM001.o
 .text.SYSTM001_lRemoveTimerList
                0x08008378       0xd8 Dave/Generated/src/SYSTM001/SYSTM001.o
 .text.SYSTM001_lTimerHandler
                0x08008450       0x94 Dave/Generated/src/SYSTM001/SYSTM001.o
 .text.SysTick_Handler
                0x080084e4       0x5c Dave/Generated/src/SYSTM001/SYSTM001.o
                0x080084e4                SysTick_Handler
 .text.SYSTM001_Init
                0x08008540       0x64 Dave/Generated/src/SYSTM001/SYSTM001.o
                0x08008540                SYSTM001_Init
 .text.SYSTM001_CreateTimer
                0x080085a4      0x1a0 Dave/Generated/src/SYSTM001/SYSTM001.o
                0x080085a4                SYSTM001_CreateTimer
 .text.SYSTM001_StartTimer
                0x08008744       0xb4 Dave/Generated/src/SYSTM001/SYSTM001.o
                0x08008744                SYSTM001_StartTimer
 .text.SYSTM001_StopTimer
                0x080087f8       0x90 Dave/Generated/src/SYSTM001/SYSTM001.o
                0x080087f8                SYSTM001_StopTimer
 .text.SYSTM001_DeleteTimer
                0x08008888       0x9c Dave/Generated/src/SYSTM001/SYSTM001.o
                0x08008888                SYSTM001_DeleteTimer
 .text.SYSTM001_GetTime
                0x08008924       0x18 Dave/Generated/src/SYSTM001/SYSTM001.o
                0x08008924                SYSTM001_GetTime
 .text.SYSTM001_GetSysTickCount
                0x0800893c       0x28 Dave/Generated/src/SYSTM001/SYSTM001.o
                0x0800893c                SYSTM001_GetSysTickCount
 .text          0x08008964        0x0 Dave/Generated/src/RESET001/RESET001.o
 .text.RESET001_AssertReset
                0x08008964       0x54 Dave/Generated/src/RESET001/RESET001.o
                0x08008964                RESET001_AssertReset
 .text.RESET001_DeassertReset
                0x080089b8       0x54 Dave/Generated/src/RESET001/RESET001.o
                0x080089b8                RESET001_DeassertReset
 .text.RESET001_GetResetInfo
                0x08008a0c       0x2c Dave/Generated/src/RESET001/RESET001.o
                0x08008a0c                RESET001_GetResetInfo
 .text.RESET001_GetStatus
                0x08008a38       0x7c Dave/Generated/src/RESET001/RESET001.o
                0x08008a38                RESET001_GetStatus
 .text.RESET001_ClearResetInfo
                0x08008ab4       0x28 Dave/Generated/src/RESET001/RESET001.o
                0x08008ab4                RESET001_ClearResetInfo
 .text          0x08008adc        0x0 Dave/Generated/src/NVIC002/NVIC002.o
 .text.NVIC_GetPriorityGrouping
                0x08008adc       0x20 Dave/Generated/src/NVIC002/NVIC002.o
 .text.NVIC_EnableIRQ
                0x08008afc       0x38 Dave/Generated/src/NVIC002/NVIC002.o
 .text.NVIC_SetPriority
                0x08008b34       0x5c Dave/Generated/src/NVIC002/NVIC002.o
 .text.NVIC_EncodePriority
                0x08008b90       0x78 Dave/Generated/src/NVIC002/NVIC002.o
 .text.NVIC002_EnableIRQ
                0x08008c08       0x20 Dave/Generated/src/NVIC002/NVIC002.o
 .text.NVIC002_Init
                0x08008c28       0x38 Dave/Generated/src/NVIC002/NVIC002.o
                0x08008c28                NVIC002_Init
 .text.NVIC002_lInit
                0x08008c60       0x4c Dave/Generated/src/NVIC002/NVIC002.o
 .text          0x08008cac        0x0 Dave/Generated/src/NVIC002/NVIC002_Conf.o
 .text          0x08008cac        0x0 Dave/Generated/src/LIBS/CCU8PWMLIB.o
 .text          0x08008cac        0x0 Dave/Generated/src/LIBS/MOTORLIB.o
 .text          0x08008cac        0x0 Dave/Generated/src/IO004/IO004.o
 .text.IO004_Init
                0x08008cac      0x1f0 Dave/Generated/src/IO004/IO004.o
                0x08008cac                IO004_Init
 .text.IO004_DisableOutputDriver
                0x08008e9c      0x17c Dave/Generated/src/IO004/IO004.o
                0x08008e9c                IO004_DisableOutputDriver
 .text.IO004_EnableOutputDriver
                0x08009018      0x17c Dave/Generated/src/IO004/IO004.o
                0x08009018                IO004_EnableOutputDriver
 .text          0x08009194        0x0 Dave/Generated/src/IO004/IO004_Conf.o
 .text          0x08009194        0x0 Dave/Generated/src/I2C001/I2C001.o
 .text.I2C001_lInit
                0x08009194      0x1bc Dave/Generated/src/I2C001/I2C001.o
                0x08009194                I2C001_lInit
 .text.I2C001_lConfigureBitRate
                0x08009350      0x1a0 Dave/Generated/src/I2C001/I2C001.o
                0x08009350                I2C001_lConfigureBitRate
 .text.I2C001_Init
                0x080094f0      0x27c Dave/Generated/src/I2C001/I2C001.o
                0x080094f0                I2C001_Init
 .text.I2C001_DeInit
                0x0800976c        0xc Dave/Generated/src/I2C001/I2C001.o
                0x0800976c                I2C001_DeInit
 .text.I2C001_Configure
                0x08009778      0x100 Dave/Generated/src/I2C001/I2C001.o
                0x08009778                I2C001_Configure
 .text.I2C001_ReadData
                0x08009878       0x54 Dave/Generated/src/I2C001/I2C001.o
                0x08009878                I2C001_ReadData
 .text.I2C001_WriteData
                0x080098cc       0x6c Dave/Generated/src/I2C001/I2C001.o
                0x080098cc                I2C001_WriteData
 .text.I2C001_GetFlagStatus
                0x08009938       0xc8 Dave/Generated/src/I2C001/I2C001.o
                0x08009938                I2C001_GetFlagStatus
 .text.I2C001_ClearFlag
                0x08009a00       0x84 Dave/Generated/src/I2C001/I2C001.o
                0x08009a00                I2C001_ClearFlag
 .text          0x08009a84        0x0 Dave/Generated/src/I2C001/I2C001_Conf.o
 .text          0x08009a84        0x0 Dave/Generated/src/DAVESupport/DAVE3.o
 .text.NVIC_SetPriorityGrouping
                0x08009a84       0x50 Dave/Generated/src/DAVESupport/DAVE3.o
 .text.DAVE_Init
                0x08009ad4       0x30 Dave/Generated/src/DAVESupport/DAVE3.o
                0x08009ad4                DAVE_Init
 .text.SystemInit_DAVE3
                0x08009b04        0xc Dave/Generated/src/DAVESupport/DAVE3.o
                0x08009b04                SystemInit_DAVE3
 .text          0x08009b10        0x0 Dave/Generated/src/DAVESupport/MULTIPLEXER.o
 .text.DAVE_MUX_Init
                0x08009b10      0x478 Dave/Generated/src/DAVESupport/MULTIPLEXER.o
                0x08009b10                DAVE_MUX_Init
 .text.DAVE_MUX_PreInit
                0x08009f88        0xc Dave/Generated/src/DAVESupport/MULTIPLEXER.o
                0x08009f88                DAVE_MUX_PreInit
 .text          0x08009f94        0x0 Dave/Generated/src/CLK001/CLK001.o
 .text.CLK001_Delay
                0x08009f94       0x34 Dave/Generated/src/CLK001/CLK001.o
 .text.CLK001_SysClk_Valid
                0x08009fc8       0x38 Dave/Generated/src/CLK001/CLK001.o
 .text.CLK001_BackupClkTrim
                0x0800a000       0x94 Dave/Generated/src/CLK001/CLK001.o
 .text.CLK001_SetMainPLLClkSrc
                0x0800a094       0xf0 Dave/Generated/src/CLK001/CLK001.o
 .text.CLK001_ConfigMainPLL
                0x0800a184      0x15c Dave/Generated/src/CLK001/CLK001.o
 .text.CLK001_FreqStepupMainPLL
                0x0800a2e0      0x164 Dave/Generated/src/CLK001/CLK001.o
 .text.CLK001_SysClk_Init
                0x0800a444       0x50 Dave/Generated/src/CLK001/CLK001.o
 .text.CLK001_Init
                0x0800a494       0x30 Dave/Generated/src/CLK001/CLK001.o
                0x0800a494                CLK001_Init
 .text.AllowPLLInitByStartup
                0x0800a4c4       0x10 Dave/Generated/src/CLK001/CLK001.o
                0x0800a4c4                AllowPLLInitByStartup
 .text          0x0800a4d4        0x0 c:/dave-3.1.10/arm-gcc/bin/../lib/gcc/arm-none-eabi/4.7.4/../../../../arm-none-eabi/lib/armv7e-m\libm.a(lib_a-w_pow.o)
 .text.pow      0x0800a4d4      0x310 c:/dave-3.1.10/arm-gcc/bin/../lib/gcc/arm-none-eabi/4.7.4/../../../../arm-none-eabi/lib/armv7e-m\libm.a(lib_a-w_pow.o)
                0x0800a4d4                pow
 .text          0x0800a7e4        0x0 c:/dave-3.1.10/arm-gcc/bin/../lib/gcc/arm-none-eabi/4.7.4/../../../../arm-none-eabi/lib/armv7e-m\libm.a(lib_a-e_pow.o)
 *fill*         0x0800a7e4        0x4 00
 .text.__ieee754_pow
                0x0800a7e8      0xb20 c:/dave-3.1.10/arm-gcc/bin/../lib/gcc/arm-none-eabi/4.7.4/../../../../arm-none-eabi/lib/armv7e-m\libm.a(lib_a-e_pow.o)
                0x0800a7e8                __ieee754_pow
 .text          0x0800b308        0x0 c:/dave-3.1.10/arm-gcc/bin/../lib/gcc/arm-none-eabi/4.7.4/../../../../arm-none-eabi/lib/armv7e-m\libm.a(lib_a-e_sqrt.o)
 .text.__ieee754_sqrt
                0x0800b308      0x208 c:/dave-3.1.10/arm-gcc/bin/../lib/gcc/arm-none-eabi/4.7.4/../../../../arm-none-eabi/lib/armv7e-m\libm.a(lib_a-e_sqrt.o)
                0x0800b308                __ieee754_sqrt
 .text          0x0800b510        0x0 c:/dave-3.1.10/arm-gcc/bin/../lib/gcc/arm-none-eabi/4.7.4/../../../../arm-none-eabi/lib/armv7e-m\libm.a(lib_a-s_fabs.o)
 .text.fabs     0x0800b510        0x8 c:/dave-3.1.10/arm-gcc/bin/../lib/gcc/arm-none-eabi/4.7.4/../../../../arm-none-eabi/lib/armv7e-m\libm.a(lib_a-s_fabs.o)
                0x0800b510                fabs
 .text          0x0800b518        0x0 c:/dave-3.1.10/arm-gcc/bin/../lib/gcc/arm-none-eabi/4.7.4/../../../../arm-none-eabi/lib/armv7e-m\libm.a(lib_a-s_finite.o)
 .text.finite   0x0800b518        0xc c:/dave-3.1.10/arm-gcc/bin/../lib/gcc/arm-none-eabi/4.7.4/../../../../arm-none-eabi/lib/armv7e-m\libm.a(lib_a-s_finite.o)
                0x0800b518                finite
 .text          0x0800b524        0x0 c:/dave-3.1.10/arm-gcc/bin/../lib/gcc/arm-none-eabi/4.7.4/../../../../arm-none-eabi/lib/armv7e-m\libm.a(lib_a-s_fpclassify.o)
 .text.__fpclassifyd
                0x0800b524       0x68 c:/dave-3.1.10/arm-gcc/bin/../lib/gcc/arm-none-eabi/4.7.4/../../../../arm-none-eabi/lib/armv7e-m\libm.a(lib_a-s_fpclassify.o)
                0x0800b524                __fpclassifyd
 .text          0x0800b58c        0x0 c:/dave-3.1.10/arm-gcc/bin/../lib/gcc/arm-none-eabi/4.7.4/../../../../arm-none-eabi/lib/armv7e-m\libm.a(lib_a-s_lib_ver.o)
 .text          0x0800b58c        0x0 c:/dave-3.1.10/arm-gcc/bin/../lib/gcc/arm-none-eabi/4.7.4/../../../../arm-none-eabi/lib/armv7e-m\libm.a(lib_a-s_matherr.o)
 .text.matherr  0x0800b58c        0x4 c:/dave-3.1.10/arm-gcc/bin/../lib/gcc/arm-none-eabi/4.7.4/../../../../arm-none-eabi/lib/armv7e-m\libm.a(lib_a-s_matherr.o)
                0x0800b58c                matherr
 .text          0x0800b590        0x0 c:/dave-3.1.10/arm-gcc/bin/../lib/gcc/arm-none-eabi/4.7.4/../../../../arm-none-eabi/lib/armv7e-m\libm.a(lib_a-s_nan.o)
 .text.nan      0x0800b590        0xc c:/dave-3.1.10/arm-gcc/bin/../lib/gcc/arm-none-eabi/4.7.4/../../../../arm-none-eabi/lib/armv7e-m\libm.a(lib_a-s_nan.o)
                0x0800b590                nan
 .text          0x0800b59c        0x0 c:/dave-3.1.10/arm-gcc/bin/../lib/gcc/arm-none-eabi/4.7.4/../../../../arm-none-eabi/lib/armv7e-m\libm.a(lib_a-s_rint.o)
 .text.rint     0x0800b59c      0x128 c:/dave-3.1.10/arm-gcc/bin/../lib/gcc/arm-none-eabi/4.7.4/../../../../arm-none-eabi/lib/armv7e-m\libm.a(lib_a-s_rint.o)
                0x0800b59c                rint
 .text          0x0800b6c4        0x0 c:/dave-3.1.10/arm-gcc/bin/../lib/gcc/arm-none-eabi/4.7.4/../../../../arm-none-eabi/lib/armv7e-m\libm.a(lib_a-s_scalbn.o)
 *fill*         0x0800b6c4        0x4 00
 .text.scalbn   0x0800b6c8      0x108 c:/dave-3.1.10/arm-gcc/bin/../lib/gcc/arm-none-eabi/4.7.4/../../../../arm-none-eabi/lib/armv7e-m\libm.a(lib_a-s_scalbn.o)
                0x0800b6c8                scalbn
 .text          0x0800b7d0        0x0 c:/dave-3.1.10/arm-gcc/bin/../lib/gcc/arm-none-eabi/4.7.4/../../../../arm-none-eabi/lib/armv7e-m\libm.a(lib_a-s_copysign.o)
 .text.copysign
                0x0800b7d0       0x18 c:/dave-3.1.10/arm-gcc/bin/../lib/gcc/arm-none-eabi/4.7.4/../../../../arm-none-eabi/lib/armv7e-m\libm.a(lib_a-s_copysign.o)
                0x0800b7d0                copysign
 .text          0x0800b7e8      0x370 c:/dave-3.1.10/arm-gcc/bin/../lib/gcc/arm-none-eabi/4.7.4/armv7e-m\libgcc.a(_arm_addsubdf3.o)
                0x0800b7e8                __aeabi_drsub
                0x0800b7f0                __aeabi_dsub
                0x0800b7f0                __subdf3
                0x0800b7f4                __aeabi_dadd
                0x0800b7f4                __adddf3
                0x0800ba6c                __floatunsidf
                0x0800ba6c                __aeabi_ui2d
                0x0800ba8c                __floatsidf
                0x0800ba8c                __aeabi_i2d
                0x0800bab0                __aeabi_f2d
                0x0800bab0                __extendsfdf2
                0x0800baec                __floatundidf
                0x0800baec                __aeabi_ul2d
                0x0800bafc                __floatdidf
                0x0800bafc                __aeabi_l2d
 .text          0x0800bb58      0x424 c:/dave-3.1.10/arm-gcc/bin/../lib/gcc/arm-none-eabi/4.7.4/armv7e-m\libgcc.a(_arm_muldivdf3.o)
                0x0800bb58                __aeabi_dmul
                0x0800bb58                __muldf3
                0x0800bdac                __divdf3
                0x0800bdac                __aeabi_ddiv
 .text          0x0800bf7c      0x110 c:/dave-3.1.10/arm-gcc/bin/../lib/gcc/arm-none-eabi/4.7.4/armv7e-m\libgcc.a(_arm_cmpdf2.o)
                0x0800bf7c                __gtdf2
                0x0800bf7c                __gedf2
                0x0800bf84                __ltdf2
                0x0800bf84                __ledf2
                0x0800bf8c                __nedf2
                0x0800bf8c                __eqdf2
                0x0800bf8c                __cmpdf2
                0x0800c008                __aeabi_cdrcmple
                0x0800c018                __aeabi_cdcmpeq
                0x0800c018                __aeabi_cdcmple
                0x0800c028                __aeabi_dcmpeq
                0x0800c03c                __aeabi_dcmplt
                0x0800c050                __aeabi_dcmple
                0x0800c064                __aeabi_dcmpge
                0x0800c078                __aeabi_dcmpgt
 .text          0x0800c08c       0x50 c:/dave-3.1.10/arm-gcc/bin/../lib/gcc/arm-none-eabi/4.7.4/armv7e-m\libgcc.a(_arm_fixdfsi.o)
                0x0800c08c                __aeabi_d2iz
                0x0800c08c                __fixdfsi
 .text          0x0800c0dc       0xa0 c:/dave-3.1.10/arm-gcc/bin/../lib/gcc/arm-none-eabi/4.7.4/armv7e-m\libgcc.a(_arm_truncdfsf2.o)
                0x0800c0dc                __truncdfsf2
                0x0800c0dc                __aeabi_d2f
 .text          0x0800c17c        0x0 c:/dave-3.1.10/arm-gcc/bin/../lib/gcc/arm-none-eabi/4.7.4/../../../../arm-none-eabi/lib/armv7e-m\libg.a(lib_a-errno.o)
 .text.__errno  0x0800c17c        0xc c:/dave-3.1.10/arm-gcc/bin/../lib/gcc/arm-none-eabi/4.7.4/../../../../arm-none-eabi/lib/armv7e-m\libg.a(lib_a-errno.o)
                0x0800c17c                __errno
 .text          0x0800c188        0x0 c:/dave-3.1.10/arm-gcc/bin/../lib/gcc/arm-none-eabi/4.7.4/../../../../arm-none-eabi/lib/armv7e-m\libg.a(lib_a-impure.o)
 .text          0x0800c188        0x0 c:/dave-3.1.10/arm-gcc/bin/../lib/gcc/arm-none-eabi/4.7.4/../../../../arm-none-eabi/lib/armv7e-m\libg.a(lib_a-init.o)
 .text.__libc_init_array
                0x0800c188       0x94 c:/dave-3.1.10/arm-gcc/bin/../lib/gcc/arm-none-eabi/4.7.4/../../../../arm-none-eabi/lib/armv7e-m\libg.a(lib_a-init.o)
                0x0800c188                __libc_init_array
 .text          0x0800c21c        0x0 c:/dave-3.1.10/arm-gcc/bin/../lib/gcc/arm-none-eabi/4.7.4/../../../../arm-none-eabi/lib/armv7e-m\libg.a(lib_a-malloc.o)
 .text.malloc   0x0800c21c       0x10 c:/dave-3.1.10/arm-gcc/bin/../lib/gcc/arm-none-eabi/4.7.4/../../../../arm-none-eabi/lib/armv7e-m\libg.a(lib_a-malloc.o)
                0x0800c21c                malloc
 .text.free     0x0800c22c       0x10 c:/dave-3.1.10/arm-gcc/bin/../lib/gcc/arm-none-eabi/4.7.4/../../../../arm-none-eabi/lib/armv7e-m\libg.a(lib_a-malloc.o)
                0x0800c22c                free
 .text          0x0800c23c        0x0 c:/dave-3.1.10/arm-gcc/bin/../lib/gcc/arm-none-eabi/4.7.4/../../../../arm-none-eabi/lib/armv7e-m\libg.a(lib_a-mallocr.o)
 .text._malloc_r
                0x0800c23c      0x55c c:/dave-3.1.10/arm-gcc/bin/../lib/gcc/arm-none-eabi/4.7.4/../../../../arm-none-eabi/lib/armv7e-m\libg.a(lib_a-mallocr.o)
                0x0800c23c                _malloc_r
 .text          0x0800c798        0x0 c:/dave-3.1.10/arm-gcc/bin/../lib/gcc/arm-none-eabi/4.7.4/../../../../arm-none-eabi/lib/armv7e-m\libg.a(lib_a-memcpy.o)
 .text.memcpy   0x0800c798      0x144 c:/dave-3.1.10/arm-gcc/bin/../lib/gcc/arm-none-eabi/4.7.4/../../../../arm-none-eabi/lib/armv7e-m\libg.a(lib_a-memcpy.o)
                0x0800c798                memcpy
 .text          0x0800c8dc        0x0 c:/dave-3.1.10/arm-gcc/bin/../lib/gcc/arm-none-eabi/4.7.4/../../../../arm-none-eabi/lib/armv7e-m\libg.a(lib_a-mlock.o)
 .text.__malloc_lock
                0x0800c8dc        0x4 c:/dave-3.1.10/arm-gcc/bin/../lib/gcc/arm-none-eabi/4.7.4/../../../../arm-none-eabi/lib/armv7e-m\libg.a(lib_a-mlock.o)
                0x0800c8dc                __malloc_lock
 .text.__malloc_unlock
                0x0800c8e0        0x4 c:/dave-3.1.10/arm-gcc/bin/../lib/gcc/arm-none-eabi/4.7.4/../../../../arm-none-eabi/lib/armv7e-m\libg.a(lib_a-mlock.o)
                0x0800c8e0                __malloc_unlock
 .text          0x0800c8e4        0x0 c:/dave-3.1.10/arm-gcc/bin/../lib/gcc/arm-none-eabi/4.7.4/../../../../arm-none-eabi/lib/armv7e-m\libg.a(lib_a-sbrkr.o)
 .text._sbrk_r  0x0800c8e4       0x24 c:/dave-3.1.10/arm-gcc/bin/../lib/gcc/arm-none-eabi/4.7.4/../../../../arm-none-eabi/lib/armv7e-m\libg.a(lib_a-sbrkr.o)
                0x0800c8e4                _sbrk_r
 .text          0x0800c908        0x0 c:/dave-3.1.10/arm-gcc/bin/../lib/gcc/arm-none-eabi/4.7.4/../../../../arm-none-eabi/lib/armv7e-m\libg.a(lib_a-sprintf.o)
 .text._sprintf_r
                0x0800c908       0x44 c:/dave-3.1.10/arm-gcc/bin/../lib/gcc/arm-none-eabi/4.7.4/../../../../arm-none-eabi/lib/armv7e-m\libg.a(lib_a-sprintf.o)
                0x0800c908                _sprintf_r
 .text.sprintf  0x0800c94c       0x50 c:/dave-3.1.10/arm-gcc/bin/../lib/gcc/arm-none-eabi/4.7.4/../../../../arm-none-eabi/lib/armv7e-m\libg.a(lib_a-sprintf.o)
                0x0800c94c                sprintf
 .text          0x0800c99c        0x0 c:/dave-3.1.10/arm-gcc/bin/../lib/gcc/arm-none-eabi/4.7.4/../../../../arm-none-eabi/lib/armv7e-m\libg.a(lib_a-strchr.o)
 .text.strchr   0x0800c99c       0xfc c:/dave-3.1.10/arm-gcc/bin/../lib/gcc/arm-none-eabi/4.7.4/../../../../arm-none-eabi/lib/armv7e-m\libg.a(lib_a-strchr.o)
                0x0800c99c                strchr
 .text          0x0800ca98        0x0 c:/dave-3.1.10/arm-gcc/bin/../lib/gcc/arm-none-eabi/4.7.4/../../../../arm-none-eabi/lib/armv7e-m\libg.a(lib_a-strcmp.o)
 .text.strcmp   0x0800ca98       0x80 c:/dave-3.1.10/arm-gcc/bin/../lib/gcc/arm-none-eabi/4.7.4/../../../../arm-none-eabi/lib/armv7e-m\libg.a(lib_a-strcmp.o)
                0x0800ca98                strcmp
 .text.strcmp_unaligned
                0x0800cb18      0x15c c:/dave-3.1.10/arm-gcc/bin/../lib/gcc/arm-none-eabi/4.7.4/../../../../arm-none-eabi/lib/armv7e-m\libg.a(lib_a-strcmp.o)
 .text          0x0800cc74        0x0 c:/dave-3.1.10/arm-gcc/bin/../lib/gcc/arm-none-eabi/4.7.4/../../../../arm-none-eabi/lib/armv7e-m\libg.a(lib_a-strlen.o)
 .text.strlen   0x0800cc74       0x60 c:/dave-3.1.10/arm-gcc/bin/../lib/gcc/arm-none-eabi/4.7.4/../../../../arm-none-eabi/lib/armv7e-m\libg.a(lib_a-strlen.o)
                0x0800cc74                strlen
 .text          0x0800ccd4        0x0 c:/dave-3.1.10/arm-gcc/bin/../lib/gcc/arm-none-eabi/4.7.4/../../../../arm-none-eabi/lib/armv7e-m\libg.a(lib_a-strstr.o)
 .text.critical_factorization
                0x0800ccd4       0xbc c:/dave-3.1.10/arm-gcc/bin/../lib/gcc/arm-none-eabi/4.7.4/../../../../arm-none-eabi/lib/armv7e-m\libg.a(lib_a-strstr.o)
 .text.two_way_long_needle
                0x0800cd90      0x318 c:/dave-3.1.10/arm-gcc/bin/../lib/gcc/arm-none-eabi/4.7.4/../../../../arm-none-eabi/lib/armv7e-m\libg.a(lib_a-strstr.o)
 .text.strstr   0x0800d0a8      0x2f0 c:/dave-3.1.10/arm-gcc/bin/../lib/gcc/arm-none-eabi/4.7.4/../../../../arm-none-eabi/lib/armv7e-m\libg.a(lib_a-strstr.o)
                0x0800d0a8                strstr
 .text          0x0800d398        0x0 c:/dave-3.1.10/arm-gcc/bin/../lib/gcc/arm-none-eabi/4.7.4/../../../../arm-none-eabi/lib/armv7e-m\libg.a(lib_a-svfprintf.o)
 .text._svfprintf_r
                0x0800d398     0x1adc c:/dave-3.1.10/arm-gcc/bin/../lib/gcc/arm-none-eabi/4.7.4/../../../../arm-none-eabi/lib/armv7e-m\libg.a(lib_a-svfprintf.o)
                0x0800d398                _svfprintf_r
 .text          0x0800ee74        0x0 c:/dave-3.1.10/arm-gcc/bin/../lib/gcc/arm-none-eabi/4.7.4/../../../../arm-none-eabi/lib/armv7e-m\libg.a(lib_a-dtoa.o)
 .text.quorem   0x0800ee74      0x2ec c:/dave-3.1.10/arm-gcc/bin/../lib/gcc/arm-none-eabi/4.7.4/../../../../arm-none-eabi/lib/armv7e-m\libg.a(lib_a-dtoa.o)
 .text._dtoa_r  0x0800f160     0x1258 c:/dave-3.1.10/arm-gcc/bin/../lib/gcc/arm-none-eabi/4.7.4/../../../../arm-none-eabi/lib/armv7e-m\libg.a(lib_a-dtoa.o)
                0x0800f160                _dtoa_r
 .text          0x080103b8        0x0 c:/dave-3.1.10/arm-gcc/bin/../lib/gcc/arm-none-eabi/4.7.4/../../../../arm-none-eabi/lib/armv7e-m\libg.a(lib_a-freer.o)
 .text._malloc_trim_r
                0x080103b8       0x98 c:/dave-3.1.10/arm-gcc/bin/../lib/gcc/arm-none-eabi/4.7.4/../../../../arm-none-eabi/lib/armv7e-m\libg.a(lib_a-freer.o)
                0x080103b8                _malloc_trim_r
 .text._free_r  0x08010450      0x194 c:/dave-3.1.10/arm-gcc/bin/../lib/gcc/arm-none-eabi/4.7.4/../../../../arm-none-eabi/lib/armv7e-m\libg.a(lib_a-freer.o)
                0x08010450                _free_r
 .text          0x080105e4        0x0 c:/dave-3.1.10/arm-gcc/bin/../lib/gcc/arm-none-eabi/4.7.4/../../../../arm-none-eabi/lib/armv7e-m\libg.a(lib_a-locale.o)
 .text._setlocale_r
                0x080105e4       0x40 c:/dave-3.1.10/arm-gcc/bin/../lib/gcc/arm-none-eabi/4.7.4/../../../../arm-none-eabi/lib/armv7e-m\libg.a(lib_a-locale.o)
                0x080105e4                _setlocale_r
 .text.__locale_charset
                0x08010624        0xc c:/dave-3.1.10/arm-gcc/bin/../lib/gcc/arm-none-eabi/4.7.4/../../../../arm-none-eabi/lib/armv7e-m\libg.a(lib_a-locale.o)
                0x08010624                __locale_charset
 .text.__locale_mb_cur_max
                0x08010630        0xc c:/dave-3.1.10/arm-gcc/bin/../lib/gcc/arm-none-eabi/4.7.4/../../../../arm-none-eabi/lib/armv7e-m\libg.a(lib_a-locale.o)
                0x08010630                __locale_mb_cur_max
 .text.__locale_msgcharset
                0x0801063c        0xc c:/dave-3.1.10/arm-gcc/bin/../lib/gcc/arm-none-eabi/4.7.4/../../../../arm-none-eabi/lib/armv7e-m\libg.a(lib_a-locale.o)
                0x0801063c                __locale_msgcharset
 .text.__locale_cjk_lang
                0x08010648        0x4 c:/dave-3.1.10/arm-gcc/bin/../lib/gcc/arm-none-eabi/4.7.4/../../../../arm-none-eabi/lib/armv7e-m\libg.a(lib_a-locale.o)
                0x08010648                __locale_cjk_lang
 .text._localeconv_r
                0x0801064c        0xc c:/dave-3.1.10/arm-gcc/bin/../lib/gcc/arm-none-eabi/4.7.4/../../../../arm-none-eabi/lib/armv7e-m\libg.a(lib_a-locale.o)
                0x0801064c                _localeconv_r
 .text.setlocale
                0x08010658       0x18 c:/dave-3.1.10/arm-gcc/bin/../lib/gcc/arm-none-eabi/4.7.4/../../../../arm-none-eabi/lib/armv7e-m\libg.a(lib_a-locale.o)
                0x08010658                setlocale
 .text.localeconv
                0x08010670        0xc c:/dave-3.1.10/arm-gcc/bin/../lib/gcc/arm-none-eabi/4.7.4/../../../../arm-none-eabi/lib/armv7e-m\libg.a(lib_a-locale.o)
                0x08010670                localeconv
 .text          0x0801067c        0x0 c:/dave-3.1.10/arm-gcc/bin/../lib/gcc/arm-none-eabi/4.7.4/../../../../arm-none-eabi/lib/armv7e-m\libg.a(lib_a-memchr.o)
 .text.memchr   0x0801067c      0x140 c:/dave-3.1.10/arm-gcc/bin/../lib/gcc/arm-none-eabi/4.7.4/../../../../arm-none-eabi/lib/armv7e-m\libg.a(lib_a-memchr.o)
                0x0801067c                memchr
 .text          0x080107bc        0x0 c:/dave-3.1.10/arm-gcc/bin/../lib/gcc/arm-none-eabi/4.7.4/../../../../arm-none-eabi/lib/armv7e-m\libg.a(lib_a-memcmp.o)
 .text.memcmp   0x080107bc       0xb8 c:/dave-3.1.10/arm-gcc/bin/../lib/gcc/arm-none-eabi/4.7.4/../../../../arm-none-eabi/lib/armv7e-m\libg.a(lib_a-memcmp.o)
                0x080107bc                memcmp
 .text          0x08010874        0x0 c:/dave-3.1.10/arm-gcc/bin/../lib/gcc/arm-none-eabi/4.7.4/../../../../arm-none-eabi/lib/armv7e-m\libg.a(lib_a-mprec.o)
 .text._Balloc  0x08010874       0x4c c:/dave-3.1.10/arm-gcc/bin/../lib/gcc/arm-none-eabi/4.7.4/../../../../arm-none-eabi/lib/armv7e-m\libg.a(lib_a-mprec.o)
                0x08010874                _Balloc
 .text._Bfree   0x080108c0       0x14 c:/dave-3.1.10/arm-gcc/bin/../lib/gcc/arm-none-eabi/4.7.4/../../../../arm-none-eabi/lib/armv7e-m\libg.a(lib_a-mprec.o)
                0x080108c0                _Bfree
 .text.__multadd
                0x080108d4       0xf8 c:/dave-3.1.10/arm-gcc/bin/../lib/gcc/arm-none-eabi/4.7.4/../../../../arm-none-eabi/lib/armv7e-m\libg.a(lib_a-mprec.o)
                0x080108d4                __multadd
 .text.__s2b    0x080109cc      0x140 c:/dave-3.1.10/arm-gcc/bin/../lib/gcc/arm-none-eabi/4.7.4/../../../../arm-none-eabi/lib/armv7e-m\libg.a(lib_a-mprec.o)
                0x080109cc                __s2b
 .text.__hi0bits
                0x08010b0c       0x3c c:/dave-3.1.10/arm-gcc/bin/../lib/gcc/arm-none-eabi/4.7.4/../../../../arm-none-eabi/lib/armv7e-m\libg.a(lib_a-mprec.o)
                0x08010b0c                __hi0bits
 .text.__lo0bits
                0x08010b48       0x5c c:/dave-3.1.10/arm-gcc/bin/../lib/gcc/arm-none-eabi/4.7.4/../../../../arm-none-eabi/lib/armv7e-m\libg.a(lib_a-mprec.o)
                0x08010b48                __lo0bits
 .text.__i2b    0x08010ba4       0x14 c:/dave-3.1.10/arm-gcc/bin/../lib/gcc/arm-none-eabi/4.7.4/../../../../arm-none-eabi/lib/armv7e-m\libg.a(lib_a-mprec.o)
                0x08010ba4                __i2b
 .text.__multiply
                0x08010bb8      0x2d0 c:/dave-3.1.10/arm-gcc/bin/../lib/gcc/arm-none-eabi/4.7.4/../../../../arm-none-eabi/lib/armv7e-m\libg.a(lib_a-mprec.o)
                0x08010bb8                __multiply
 .text.__pow5mult
                0x08010e88       0x94 c:/dave-3.1.10/arm-gcc/bin/../lib/gcc/arm-none-eabi/4.7.4/../../../../arm-none-eabi/lib/armv7e-m\libg.a(lib_a-mprec.o)
                0x08010e88                __pow5mult
 .text.__lshift
                0x08010f1c      0x188 c:/dave-3.1.10/arm-gcc/bin/../lib/gcc/arm-none-eabi/4.7.4/../../../../arm-none-eabi/lib/armv7e-m\libg.a(lib_a-mprec.o)
                0x08010f1c                __lshift
 .text.__mcmp   0x080110a4       0x5c c:/dave-3.1.10/arm-gcc/bin/../lib/gcc/arm-none-eabi/4.7.4/../../../../arm-none-eabi/lib/armv7e-m\libg.a(lib_a-mprec.o)
                0x080110a4                __mcmp
 .text.__mdiff  0x08011100      0x20c c:/dave-3.1.10/arm-gcc/bin/../lib/gcc/arm-none-eabi/4.7.4/../../../../arm-none-eabi/lib/armv7e-m\libg.a(lib_a-mprec.o)
                0x08011100                __mdiff
 .text.__ulp    0x0801130c       0x44 c:/dave-3.1.10/arm-gcc/bin/../lib/gcc/arm-none-eabi/4.7.4/../../../../arm-none-eabi/lib/armv7e-m\libg.a(lib_a-mprec.o)
                0x0801130c                __ulp
 .text.__b2d    0x08011350       0xbc c:/dave-3.1.10/arm-gcc/bin/../lib/gcc/arm-none-eabi/4.7.4/../../../../arm-none-eabi/lib/armv7e-m\libg.a(lib_a-mprec.o)
                0x08011350                __b2d
 .text.__d2b    0x0801140c       0xc0 c:/dave-3.1.10/arm-gcc/bin/../lib/gcc/arm-none-eabi/4.7.4/../../../../arm-none-eabi/lib/armv7e-m\libg.a(lib_a-mprec.o)
                0x0801140c                __d2b
 .text.__ratio  0x080114cc       0x54 c:/dave-3.1.10/arm-gcc/bin/../lib/gcc/arm-none-eabi/4.7.4/../../../../arm-none-eabi/lib/armv7e-m\libg.a(lib_a-mprec.o)
                0x080114cc                __ratio
 .text._mprec_log10
                0x08011520       0x68 c:/dave-3.1.10/arm-gcc/bin/../lib/gcc/arm-none-eabi/4.7.4/../../../../arm-none-eabi/lib/armv7e-m\libg.a(lib_a-mprec.o)
                0x08011520                _mprec_log10
 .text.__copybits
                0x08011588       0xa4 c:/dave-3.1.10/arm-gcc/bin/../lib/gcc/arm-none-eabi/4.7.4/../../../../arm-none-eabi/lib/armv7e-m\libg.a(lib_a-mprec.o)
                0x08011588                __copybits
 .text.__any_on
                0x0801162c       0x74 c:/dave-3.1.10/arm-gcc/bin/../lib/gcc/arm-none-eabi/4.7.4/../../../../arm-none-eabi/lib/armv7e-m\libg.a(lib_a-mprec.o)
                0x0801162c                __any_on
 .text          0x080116a0        0x0 c:/dave-3.1.10/arm-gcc/bin/../lib/gcc/arm-none-eabi/4.7.4/../../../../arm-none-eabi/lib/armv7e-m\libg.a(lib_a-reent.o)
 .text.cleanup_glue
                0x080116a0       0x1c c:/dave-3.1.10/arm-gcc/bin/../lib/gcc/arm-none-eabi/4.7.4/../../../../arm-none-eabi/lib/armv7e-m\libg.a(lib_a-reent.o)
                0x080116a0                cleanup_glue
 .text._reclaim_reent
                0x080116bc       0x8c c:/dave-3.1.10/arm-gcc/bin/../lib/gcc/arm-none-eabi/4.7.4/../../../../arm-none-eabi/lib/armv7e-m\libg.a(lib_a-reent.o)
                0x080116bc                _reclaim_reent
 .text._wrapup_reent
                0x08011748       0x74 c:/dave-3.1.10/arm-gcc/bin/../lib/gcc/arm-none-eabi/4.7.4/../../../../arm-none-eabi/lib/armv7e-m\libg.a(lib_a-reent.o)
                0x08011748                _wrapup_reent
 .text          0x080117bc        0x0 c:/dave-3.1.10/arm-gcc/bin/../lib/gcc/arm-none-eabi/4.7.4/../../../../arm-none-eabi/lib/armv7e-m\libg.a(lib_a-svfiprintf.o)
 .text.__ssprint_r
                0x080117bc      0x100 c:/dave-3.1.10/arm-gcc/bin/../lib/gcc/arm-none-eabi/4.7.4/../../../../arm-none-eabi/lib/armv7e-m\libg.a(lib_a-svfiprintf.o)
                0x080117bc                __ssprint_r
 .text._svfiprintf_r
                0x080118bc      0xde0 c:/dave-3.1.10/arm-gcc/bin/../lib/gcc/arm-none-eabi/4.7.4/../../../../arm-none-eabi/lib/armv7e-m\libg.a(lib_a-svfiprintf.o)
                0x080118bc                _svfiprintf_r
 .text          0x0801269c        0x0 c:/dave-3.1.10/arm-gcc/bin/../lib/gcc/arm-none-eabi/4.7.4/../../../../arm-none-eabi/lib/armv7e-m\libg.a(lib_a-callocr.o)
 .text._calloc_r
                0x0801269c       0x60 c:/dave-3.1.10/arm-gcc/bin/../lib/gcc/arm-none-eabi/4.7.4/../../../../arm-none-eabi/lib/armv7e-m\libg.a(lib_a-callocr.o)
                0x0801269c                _calloc_r
 .text          0x080126fc        0x0 c:/dave-3.1.10/arm-gcc/bin/../lib/gcc/arm-none-eabi/4.7.4/../../../../arm-none-eabi/lib/armv7e-m\libg.a(lib_a-memmove.o)
 .text.memmove  0x080126fc      0x198 c:/dave-3.1.10/arm-gcc/bin/../lib/gcc/arm-none-eabi/4.7.4/../../../../arm-none-eabi/lib/armv7e-m\libg.a(lib_a-memmove.o)
                0x080126fc                memmove
 .text          0x08012894        0x0 c:/dave-3.1.10/arm-gcc/bin/../lib/gcc/arm-none-eabi/4.7.4/../../../../arm-none-eabi/lib/armv7e-m\libg.a(lib_a-memset.o)
 .text.memset   0x08012894      0x12c c:/dave-3.1.10/arm-gcc/bin/../lib/gcc/arm-none-eabi/4.7.4/../../../../arm-none-eabi/lib/armv7e-m\libg.a(lib_a-memset.o)
                0x08012894                memset
 .text          0x080129c0        0x0 c:/dave-3.1.10/arm-gcc/bin/../lib/gcc/arm-none-eabi/4.7.4/../../../../arm-none-eabi/lib/armv7e-m\libg.a(lib_a-reallocr.o)
 .text._realloc_r
                0x080129c0      0x3dc c:/dave-3.1.10/arm-gcc/bin/../lib/gcc/arm-none-eabi/4.7.4/../../../../arm-none-eabi/lib/armv7e-m\libg.a(lib_a-reallocr.o)
                0x080129c0                _realloc_r
 .text          0x08012d9c       0x2c c:/dave-3.1.10/arm-gcc/bin/../lib/gcc/arm-none-eabi/4.7.4/armv7e-m\libgcc.a(_aeabi_uldivmod.o)
                0x08012d9c                __aeabi_uldivmod
 .text          0x08012dc8       0x58 c:/dave-3.1.10/arm-gcc/bin/../lib/gcc/arm-none-eabi/4.7.4/armv7e-m\libgcc.a(bpabi.o)
                0x08012dc8                __gnu_ldivmod_helper
                0x08012df4                __gnu_uldivmod_helper
 .text          0x08012e20        0x4 c:/dave-3.1.10/arm-gcc/bin/../lib/gcc/arm-none-eabi/4.7.4/armv7e-m\libgcc.a(_dvmd_tls.o)
                0x08012e20                __aeabi_idiv0
                0x08012e20                __aeabi_ldiv0
 .text          0x08012e24      0x2bc c:/dave-3.1.10/arm-gcc/bin/../lib/gcc/arm-none-eabi/4.7.4/armv7e-m\libgcc.a(_divdi3.o)
                0x08012e24                __divdi3
 .text          0x080130e0      0x288 c:/dave-3.1.10/arm-gcc/bin/../lib/gcc/arm-none-eabi/4.7.4/armv7e-m\libgcc.a(_udivdi3.o)
                0x080130e0                __udivdi3
 *(.glue*)
 .glue_7        0x00000000        0x0 linker stubs
 .glue_7t       0x00000000        0x0 linker stubs
 *(.v4*)
 .v4_bx         0x00000000        0x0 linker stubs
 *(.vfp11_veneer)
 .vfp11_veneer  0x00000000        0x0 linker stubs
 *(.init)
                0x08013368                __preinit_array_start = .
 *(.preinit_array)
                0x08013368                __preinit_array_end = .
                0x08013368                __init_array_start = .
 *(SORT(.init_array.*))
 *(.init_array)
                0x08013368                __init_array_end = .
 *crtbegin.o(.ctors)
 *(EXCLUDE_FILE(*crtend.o) .ctors)
 *(SORT(.ctors.*))
 *crtend.o(.ctors)
 *(.fini)
                0x08013368                __fini_array_start = .
 *(.fini_array)
 *(SORT(.fini_array.*))
                0x08013368                __fini_array_end = .
 *crtbegin.o(.dtors)
 *(EXCLUDE_FILE(*crtend.o) .dtors)
 *(SORT(.dtors.*))
 *crtend.o(.dtors)
                0x08013368                __extab_start = .
 *(.ARM.extab* .gnu.linkonce.armextab.*)
 .ARM.extab.Xmc4500.reset
                0x08013368        0x0 Startup/startup_XMC4500.o
 .ARM.extab.Xmc4500.postreset
                0x08013368        0x0 Startup/startup_XMC4500.o
 .ARM.extab     0x08013368        0x0 c:/dave-3.1.10/arm-gcc/bin/../lib/gcc/arm-none-eabi/4.7.4/armv7e-m\libgcc.a(_divdi3.o)
 .ARM.extab     0x08013368        0x0 c:/dave-3.1.10/arm-gcc/bin/../lib/gcc/arm-none-eabi/4.7.4/armv7e-m\libgcc.a(_udivdi3.o)
                0x08013368                . = ALIGN (0x4)
                0x08013368                __extab_end = ABSOLUTE (.)

.iplt           0x08013368        0x0 load address 0x0c013368
 .iplt          0x00000000        0x0 BluetoothDriver.o

.ARM.exidx      0x08013368       0x10 load address 0x0c013368
                0x08013368                __exidx_start = .
 *(.ARM.exidx* .gnu.linkonce.armexidx.*)
 .ARM.exidx.Xmc4500.reset
                0x08013368        0x8 Startup/startup_XMC4500.o
 .ARM.exidx.Xmc4500.postreset
                0x08013370        0x8 Startup/startup_XMC4500.o
 .ARM.exidx     0x08013378        0x0 c:/dave-3.1.10/arm-gcc/bin/../lib/gcc/arm-none-eabi/4.7.4/armv7e-m\libgcc.a(_divdi3.o)
                                  0x8 (size before relaxing)
 .ARM.exidx     0x08013378        0x0 c:/dave-3.1.10/arm-gcc/bin/../lib/gcc/arm-none-eabi/4.7.4/armv7e-m\libgcc.a(_udivdi3.o)
                                  0x8 (size before relaxing)
                0x08013378                . = ALIGN (0x4)
                0x08013378                __exidx_end = ABSOLUTE (.)

.rodata         0x08013378      0x5f8 load address 0x0c013378
 *(.rodata .rodata.*)
 .rodata        0x08013378      0x144 BluetoothDriver.o
 .rodata        0x080134bc      0x1ec SendMeasurementsToBt.o
 .rodata        0x080136a8       0x34 Dave/Generated/src/UART001/UART001_Conf.o
                0x080136a8                UART001_Handle0
 .rodata        0x080136dc        0xc Dave/Generated/src/NVIC002/NVIC002_Conf.o
                0x080136dc                NVIC002_Handle0
                0x080136e0                NVIC002_Handle1
                0x080136e4                NVIC002_Handle2
 .rodata        0x080136e8       0x28 Dave/Generated/src/IO004/IO004_Conf.o
                0x080136e8                IO004_Handle0
                0x080136f0                IO004_Handle1
                0x080136f8                IO004_Handle2
                0x08013700                IO004_Handle3
                0x08013708                IO004_Handle4
 .rodata        0x08013710       0x48 Dave/Generated/src/I2C001/I2C001_Conf.o
                0x08013710                I2C001_Handle0
                0x08013728                I2C001_Handle1
                0x08013740                I2C001_Handle2
 .rodata.str1.4
                0x08013758        0x4 c:/dave-3.1.10/arm-gcc/bin/../lib/gcc/arm-none-eabi/4.7.4/../../../../arm-none-eabi/lib/armv7e-m\libm.a(lib_a-w_pow.o)
 *fill*         0x0801375c        0x4 00
 .rodata.dp_h   0x08013760       0x10 c:/dave-3.1.10/arm-gcc/bin/../lib/gcc/arm-none-eabi/4.7.4/../../../../arm-none-eabi/lib/armv7e-m\libm.a(lib_a-e_pow.o)
 .rodata.dp_l   0x08013770       0x10 c:/dave-3.1.10/arm-gcc/bin/../lib/gcc/arm-none-eabi/4.7.4/../../../../arm-none-eabi/lib/armv7e-m\libm.a(lib_a-e_pow.o)
 .rodata.bp     0x08013780       0x10 c:/dave-3.1.10/arm-gcc/bin/../lib/gcc/arm-none-eabi/4.7.4/../../../../arm-none-eabi/lib/armv7e-m\libm.a(lib_a-e_pow.o)
 .rodata.str1.4
                0x00000000        0x4 c:/dave-3.1.10/arm-gcc/bin/../lib/gcc/arm-none-eabi/4.7.4/../../../../arm-none-eabi/lib/armv7e-m\libm.a(lib_a-e_pow.o)
 .rodata.TWO52  0x08013790       0x10 c:/dave-3.1.10/arm-gcc/bin/../lib/gcc/arm-none-eabi/4.7.4/../../../../arm-none-eabi/lib/armv7e-m\libm.a(lib_a-s_rint.o)
 .rodata.str1.4
                0x080137a0        0x2 c:/dave-3.1.10/arm-gcc/bin/../lib/gcc/arm-none-eabi/4.7.4/../../../../arm-none-eabi/lib/armv7e-m\libg.a(lib_a-impure.o)
                                  0x4 (size before relaxing)
 *fill*         0x080137a2        0x2 00
 .rodata._global_impure_ptr
                0x080137a4        0x4 c:/dave-3.1.10/arm-gcc/bin/../lib/gcc/arm-none-eabi/4.7.4/../../../../arm-none-eabi/lib/armv7e-m\libg.a(lib_a-impure.o)
                0x080137a4                _global_impure_ptr
 .rodata.str1.4
                0x080137a8       0x42 c:/dave-3.1.10/arm-gcc/bin/../lib/gcc/arm-none-eabi/4.7.4/../../../../arm-none-eabi/lib/armv7e-m\libg.a(lib_a-svfprintf.o)
                                 0x44 (size before relaxing)
 *fill*         0x080137ea        0x2 00
 .rodata.zeroes.6721
                0x080137ec       0x10 c:/dave-3.1.10/arm-gcc/bin/../lib/gcc/arm-none-eabi/4.7.4/../../../../arm-none-eabi/lib/armv7e-m\libg.a(lib_a-svfprintf.o)
 .rodata.blanks.6720
                0x080137fc       0x10 c:/dave-3.1.10/arm-gcc/bin/../lib/gcc/arm-none-eabi/4.7.4/../../../../arm-none-eabi/lib/armv7e-m\libg.a(lib_a-svfprintf.o)
 .rodata.str1.4
                0x0801380c       0x10 c:/dave-3.1.10/arm-gcc/bin/../lib/gcc/arm-none-eabi/4.7.4/../../../../arm-none-eabi/lib/armv7e-m\libg.a(lib_a-dtoa.o)
                                 0x14 (size before relaxing)
 .rodata.str1.4
                0x0801381c        0xc c:/dave-3.1.10/arm-gcc/bin/../lib/gcc/arm-none-eabi/4.7.4/../../../../arm-none-eabi/lib/armv7e-m\libg.a(lib_a-locale.o)
                                 0x14 (size before relaxing)
 .rodata.p05.5242
                0x08013828        0xc c:/dave-3.1.10/arm-gcc/bin/../lib/gcc/arm-none-eabi/4.7.4/../../../../arm-none-eabi/lib/armv7e-m\libg.a(lib_a-mprec.o)
 *fill*         0x08013834        0x4 00
 .rodata.__mprec_tens
                0x08013838       0xc8 c:/dave-3.1.10/arm-gcc/bin/../lib/gcc/arm-none-eabi/4.7.4/../../../../arm-none-eabi/lib/armv7e-m\libg.a(lib_a-mprec.o)
                0x08013838                __mprec_tens
 .rodata.__mprec_bigtens
                0x08013900       0x28 c:/dave-3.1.10/arm-gcc/bin/../lib/gcc/arm-none-eabi/4.7.4/../../../../arm-none-eabi/lib/armv7e-m\libg.a(lib_a-mprec.o)
                0x08013900                __mprec_bigtens
 .rodata.__mprec_tinytens
                0x08013928       0x28 c:/dave-3.1.10/arm-gcc/bin/../lib/gcc/arm-none-eabi/4.7.4/../../../../arm-none-eabi/lib/armv7e-m\libg.a(lib_a-mprec.o)
                0x08013928                __mprec_tinytens
 .rodata.zeroes.6665
                0x08013950       0x10 c:/dave-3.1.10/arm-gcc/bin/../lib/gcc/arm-none-eabi/4.7.4/../../../../arm-none-eabi/lib/armv7e-m\libg.a(lib_a-svfiprintf.o)
 .rodata.str1.4
                0x00000000       0x30 c:/dave-3.1.10/arm-gcc/bin/../lib/gcc/arm-none-eabi/4.7.4/../../../../arm-none-eabi/lib/armv7e-m\libg.a(lib_a-svfiprintf.o)
 .rodata.blanks.6664
                0x08013960       0x10 c:/dave-3.1.10/arm-gcc/bin/../lib/gcc/arm-none-eabi/4.7.4/../../../../arm-none-eabi/lib/armv7e-m\libg.a(lib_a-svfiprintf.o)
 *(.gnu.linkonce.r*)

.rel.dyn        0x08013970        0x0 load address 0x0c013970
 .rel.iplt      0x00000000        0x0 BluetoothDriver.o
                0x08013970                . = ALIGN (0x10)
                0x0c013970                eROData = (. | 0x4000000)

Stack           0x10000000      0x800
                0x10000800                . = (. + stack_size)
 *fill*         0x10000000      0x800 00
                0x10000800                __Xmc4500_stack = .

.data3          0x10000800        0x0
                0x10000800                __data3_start = .
 *(.data3)
                0x10000800                __data3_end = .
                0x00000000                __data3_size = (__data3_end - __data3_start)

.data           0x20000000      0x908 load address 0x0c013970
                0x20000000                __Xmc4500_sData = .
 *(.data)
 .data          0x20000000       0x10 BluetoothDriver.o
                0x20000000                canSend
                0x20000004                mainInitTimerStatus
                0x20000008                StatusReceiveAns
                0x2000000c                TimerStatusRxMessage
 .data          0x20000010        0x0 CleanArray.o
 .data          0x20000010        0x0 FIFO_functions.o
 .data          0x20000010        0x8 HTU21D.o
                0x20000010                canH
                0x20000014                canT
 .data          0x20000018       0x1c LSM9DS1_Driver.o
                0x20000018                StatusTimerReadMeasurements
                0x2000001c                readingAllowed
                0x20000020                statusTimerSendMsg
                0x20000024                magSensitivity
 .data          0x20000034        0x0 Main.o
 .data          0x20000034        0x0 SendMeasurementsToBt.o
 .data          0x20000034        0x4 TSL2561.o
                0x20000034                StatusTimerTSL2561
 .data          0x20000038        0x0 Timer.o
 .data          0x20000038        0x0 timerFunctions.o
 .data          0x20000038        0x0 Startup/startup_XMC4500.o
 .data          0x20000038        0x4 Startup/system_XMC4500.o
                0x20000038                SystemCoreClock
 .data          0x2000003c        0x0 Lib/System_LibcStubs.o
 .data          0x2000003c        0x0 Dave/Generated/src/UART001/UART001.o
 .data          0x2000003c        0x4 Dave/Generated/src/UART001/UART001_Conf.o
                0x2000003c                UART001_HandleArray
 .data          0x20000040        0x0 Dave/Generated/src/SYSTM001/SYSTM001.o
 .data          0x20000040        0x0 Dave/Generated/src/RESET001/RESET001.o
 .data          0x20000040        0x0 Dave/Generated/src/NVIC002/NVIC002.o
 .data          0x20000040        0xc Dave/Generated/src/NVIC002/NVIC002_Conf.o
                0x20000040                NVIC002_HandleArray
 .data          0x2000004c        0x0 Dave/Generated/src/LIBS/CCU8PWMLIB.o
 .data          0x2000004c        0x0 Dave/Generated/src/LIBS/MOTORLIB.o
 .data          0x2000004c        0x0 Dave/Generated/src/IO004/IO004.o
 .data          0x2000004c        0x0 Dave/Generated/src/IO004/IO004_Conf.o
 .data          0x2000004c        0x0 Dave/Generated/src/I2C001/I2C001.o
 .data          0x2000004c        0x0 Dave/Generated/src/I2C001/I2C001_Conf.o
 .data          0x2000004c        0x0 Dave/Generated/src/DAVESupport/DAVE3.o
 .data          0x2000004c        0x0 Dave/Generated/src/DAVESupport/MULTIPLEXER.o
 .data          0x2000004c        0x0 Dave/Generated/src/CLK001/CLK001.o
 .data          0x2000004c        0x0 c:/dave-3.1.10/arm-gcc/bin/../lib/gcc/arm-none-eabi/4.7.4/../../../../arm-none-eabi/lib/armv7e-m\libm.a(lib_a-w_pow.o)
 .data          0x2000004c        0x0 c:/dave-3.1.10/arm-gcc/bin/../lib/gcc/arm-none-eabi/4.7.4/../../../../arm-none-eabi/lib/armv7e-m\libm.a(lib_a-e_pow.o)
 .data          0x2000004c        0x0 c:/dave-3.1.10/arm-gcc/bin/../lib/gcc/arm-none-eabi/4.7.4/../../../../arm-none-eabi/lib/armv7e-m\libm.a(lib_a-e_sqrt.o)
 .data          0x2000004c        0x0 c:/dave-3.1.10/arm-gcc/bin/../lib/gcc/arm-none-eabi/4.7.4/../../../../arm-none-eabi/lib/armv7e-m\libm.a(lib_a-s_fabs.o)
 .data          0x2000004c        0x0 c:/dave-3.1.10/arm-gcc/bin/../lib/gcc/arm-none-eabi/4.7.4/../../../../arm-none-eabi/lib/armv7e-m\libm.a(lib_a-s_finite.o)
 .data          0x2000004c        0x0 c:/dave-3.1.10/arm-gcc/bin/../lib/gcc/arm-none-eabi/4.7.4/../../../../arm-none-eabi/lib/armv7e-m\libm.a(lib_a-s_fpclassify.o)
 .data          0x2000004c        0x0 c:/dave-3.1.10/arm-gcc/bin/../lib/gcc/arm-none-eabi/4.7.4/../../../../arm-none-eabi/lib/armv7e-m\libm.a(lib_a-s_lib_ver.o)
 .data          0x2000004c        0x0 c:/dave-3.1.10/arm-gcc/bin/../lib/gcc/arm-none-eabi/4.7.4/../../../../arm-none-eabi/lib/armv7e-m\libm.a(lib_a-s_matherr.o)
 .data          0x2000004c        0x0 c:/dave-3.1.10/arm-gcc/bin/../lib/gcc/arm-none-eabi/4.7.4/../../../../arm-none-eabi/lib/armv7e-m\libm.a(lib_a-s_nan.o)
 .data          0x2000004c        0x0 c:/dave-3.1.10/arm-gcc/bin/../lib/gcc/arm-none-eabi/4.7.4/../../../../arm-none-eabi/lib/armv7e-m\libm.a(lib_a-s_rint.o)
 .data          0x2000004c        0x0 c:/dave-3.1.10/arm-gcc/bin/../lib/gcc/arm-none-eabi/4.7.4/../../../../arm-none-eabi/lib/armv7e-m\libm.a(lib_a-s_scalbn.o)
 .data          0x2000004c        0x0 c:/dave-3.1.10/arm-gcc/bin/../lib/gcc/arm-none-eabi/4.7.4/../../../../arm-none-eabi/lib/armv7e-m\libm.a(lib_a-s_copysign.o)
 .data          0x2000004c        0x0 c:/dave-3.1.10/arm-gcc/bin/../lib/gcc/arm-none-eabi/4.7.4/armv7e-m\libgcc.a(_arm_addsubdf3.o)
 .data          0x2000004c        0x0 c:/dave-3.1.10/arm-gcc/bin/../lib/gcc/arm-none-eabi/4.7.4/armv7e-m\libgcc.a(_arm_muldivdf3.o)
 .data          0x2000004c        0x0 c:/dave-3.1.10/arm-gcc/bin/../lib/gcc/arm-none-eabi/4.7.4/armv7e-m\libgcc.a(_arm_cmpdf2.o)
 .data          0x2000004c        0x0 c:/dave-3.1.10/arm-gcc/bin/../lib/gcc/arm-none-eabi/4.7.4/armv7e-m\libgcc.a(_arm_fixdfsi.o)
 .data          0x2000004c        0x0 c:/dave-3.1.10/arm-gcc/bin/../lib/gcc/arm-none-eabi/4.7.4/armv7e-m\libgcc.a(_arm_truncdfsf2.o)
 .data          0x2000004c        0x0 c:/dave-3.1.10/arm-gcc/bin/../lib/gcc/arm-none-eabi/4.7.4/../../../../arm-none-eabi/lib/armv7e-m\libg.a(lib_a-errno.o)
 .data          0x2000004c        0x0 c:/dave-3.1.10/arm-gcc/bin/../lib/gcc/arm-none-eabi/4.7.4/../../../../arm-none-eabi/lib/armv7e-m\libg.a(lib_a-impure.o)
 .data          0x2000004c        0x0 c:/dave-3.1.10/arm-gcc/bin/../lib/gcc/arm-none-eabi/4.7.4/../../../../arm-none-eabi/lib/armv7e-m\libg.a(lib_a-init.o)
 .data          0x2000004c        0x0 c:/dave-3.1.10/arm-gcc/bin/../lib/gcc/arm-none-eabi/4.7.4/../../../../arm-none-eabi/lib/armv7e-m\libg.a(lib_a-malloc.o)
 .data          0x2000004c        0x0 c:/dave-3.1.10/arm-gcc/bin/../lib/gcc/arm-none-eabi/4.7.4/../../../../arm-none-eabi/lib/armv7e-m\libg.a(lib_a-mallocr.o)
 .data          0x2000004c        0x0 c:/dave-3.1.10/arm-gcc/bin/../lib/gcc/arm-none-eabi/4.7.4/../../../../arm-none-eabi/lib/armv7e-m\libg.a(lib_a-memcpy.o)
 .data          0x2000004c        0x0 c:/dave-3.1.10/arm-gcc/bin/../lib/gcc/arm-none-eabi/4.7.4/../../../../arm-none-eabi/lib/armv7e-m\libg.a(lib_a-mlock.o)
 .data          0x2000004c        0x0 c:/dave-3.1.10/arm-gcc/bin/../lib/gcc/arm-none-eabi/4.7.4/../../../../arm-none-eabi/lib/armv7e-m\libg.a(lib_a-sbrkr.o)
 .data          0x2000004c        0x0 c:/dave-3.1.10/arm-gcc/bin/../lib/gcc/arm-none-eabi/4.7.4/../../../../arm-none-eabi/lib/armv7e-m\libg.a(lib_a-sprintf.o)
 .data          0x2000004c        0x0 c:/dave-3.1.10/arm-gcc/bin/../lib/gcc/arm-none-eabi/4.7.4/../../../../arm-none-eabi/lib/armv7e-m\libg.a(lib_a-strchr.o)
 .data          0x2000004c        0x0 c:/dave-3.1.10/arm-gcc/bin/../lib/gcc/arm-none-eabi/4.7.4/../../../../arm-none-eabi/lib/armv7e-m\libg.a(lib_a-strcmp.o)
 .data          0x2000004c        0x0 c:/dave-3.1.10/arm-gcc/bin/../lib/gcc/arm-none-eabi/4.7.4/../../../../arm-none-eabi/lib/armv7e-m\libg.a(lib_a-strlen.o)
 .data          0x2000004c        0x0 c:/dave-3.1.10/arm-gcc/bin/../lib/gcc/arm-none-eabi/4.7.4/../../../../arm-none-eabi/lib/armv7e-m\libg.a(lib_a-strstr.o)
 .data          0x2000004c        0x0 c:/dave-3.1.10/arm-gcc/bin/../lib/gcc/arm-none-eabi/4.7.4/../../../../arm-none-eabi/lib/armv7e-m\libg.a(lib_a-svfprintf.o)
 .data          0x2000004c        0x0 c:/dave-3.1.10/arm-gcc/bin/../lib/gcc/arm-none-eabi/4.7.4/../../../../arm-none-eabi/lib/armv7e-m\libg.a(lib_a-dtoa.o)
 .data          0x2000004c        0x0 c:/dave-3.1.10/arm-gcc/bin/../lib/gcc/arm-none-eabi/4.7.4/../../../../arm-none-eabi/lib/armv7e-m\libg.a(lib_a-freer.o)
 .data          0x2000004c        0x0 c:/dave-3.1.10/arm-gcc/bin/../lib/gcc/arm-none-eabi/4.7.4/../../../../arm-none-eabi/lib/armv7e-m\libg.a(lib_a-locale.o)
 .data          0x2000004c        0x0 c:/dave-3.1.10/arm-gcc/bin/../lib/gcc/arm-none-eabi/4.7.4/../../../../arm-none-eabi/lib/armv7e-m\libg.a(lib_a-memchr.o)
 .data          0x2000004c        0x0 c:/dave-3.1.10/arm-gcc/bin/../lib/gcc/arm-none-eabi/4.7.4/../../../../arm-none-eabi/lib/armv7e-m\libg.a(lib_a-memcmp.o)
 .data          0x2000004c        0x0 c:/dave-3.1.10/arm-gcc/bin/../lib/gcc/arm-none-eabi/4.7.4/../../../../arm-none-eabi/lib/armv7e-m\libg.a(lib_a-mprec.o)
 .data          0x2000004c        0x0 c:/dave-3.1.10/arm-gcc/bin/../lib/gcc/arm-none-eabi/4.7.4/../../../../arm-none-eabi/lib/armv7e-m\libg.a(lib_a-reent.o)
 .data          0x2000004c        0x0 c:/dave-3.1.10/arm-gcc/bin/../lib/gcc/arm-none-eabi/4.7.4/../../../../arm-none-eabi/lib/armv7e-m\libg.a(lib_a-svfiprintf.o)
 .data          0x2000004c        0x0 c:/dave-3.1.10/arm-gcc/bin/../lib/gcc/arm-none-eabi/4.7.4/../../../../arm-none-eabi/lib/armv7e-m\libg.a(lib_a-callocr.o)
 .data          0x2000004c        0x0 c:/dave-3.1.10/arm-gcc/bin/../lib/gcc/arm-none-eabi/4.7.4/../../../../arm-none-eabi/lib/armv7e-m\libg.a(lib_a-memmove.o)
 .data          0x2000004c        0x0 c:/dave-3.1.10/arm-gcc/bin/../lib/gcc/arm-none-eabi/4.7.4/../../../../arm-none-eabi/lib/armv7e-m\libg.a(lib_a-memset.o)
 .data          0x2000004c        0x0 c:/dave-3.1.10/arm-gcc/bin/../lib/gcc/arm-none-eabi/4.7.4/../../../../arm-none-eabi/lib/armv7e-m\libg.a(lib_a-reallocr.o)
 .data          0x2000004c        0x0 c:/dave-3.1.10/arm-gcc/bin/../lib/gcc/arm-none-eabi/4.7.4/armv7e-m\libgcc.a(_aeabi_uldivmod.o)
 .data          0x2000004c        0x0 c:/dave-3.1.10/arm-gcc/bin/../lib/gcc/arm-none-eabi/4.7.4/armv7e-m\libgcc.a(bpabi.o)
 .data          0x2000004c        0x0 c:/dave-3.1.10/arm-gcc/bin/../lib/gcc/arm-none-eabi/4.7.4/armv7e-m\libgcc.a(_dvmd_tls.o)
 .data          0x2000004c        0x0 c:/dave-3.1.10/arm-gcc/bin/../lib/gcc/arm-none-eabi/4.7.4/armv7e-m\libgcc.a(_divdi3.o)
 .data          0x2000004c        0x0 c:/dave-3.1.10/arm-gcc/bin/../lib/gcc/arm-none-eabi/4.7.4/armv7e-m\libgcc.a(_udivdi3.o)
 *(.data*)
 .data.__fdlib_version
                0x2000004c        0x1 c:/dave-3.1.10/arm-gcc/bin/../lib/gcc/arm-none-eabi/4.7.4/../../../../arm-none-eabi/lib/armv7e-m\libm.a(lib_a-s_lib_ver.o)
                0x2000004c                __fdlib_version
 *fill*         0x2000004d        0x3 00
 .data.impure_data
                0x20000050      0x428 c:/dave-3.1.10/arm-gcc/bin/../lib/gcc/arm-none-eabi/4.7.4/../../../../arm-none-eabi/lib/armv7e-m\libg.a(lib_a-impure.o)
 .data._impure_ptr
                0x20000478        0x4 c:/dave-3.1.10/arm-gcc/bin/../lib/gcc/arm-none-eabi/4.7.4/../../../../arm-none-eabi/lib/armv7e-m\libg.a(lib_a-impure.o)
                0x20000478                _impure_ptr
 .data.__malloc_av_
                0x2000047c      0x408 c:/dave-3.1.10/arm-gcc/bin/../lib/gcc/arm-none-eabi/4.7.4/../../../../arm-none-eabi/lib/armv7e-m\libg.a(lib_a-mallocr.o)
                0x2000047c                __malloc_av_
 .data.__malloc_trim_threshold
                0x20000884        0x4 c:/dave-3.1.10/arm-gcc/bin/../lib/gcc/arm-none-eabi/4.7.4/../../../../arm-none-eabi/lib/armv7e-m\libg.a(lib_a-mallocr.o)
                0x20000884                __malloc_trim_threshold
 .data.__malloc_sbrk_base
                0x20000888        0x4 c:/dave-3.1.10/arm-gcc/bin/../lib/gcc/arm-none-eabi/4.7.4/../../../../arm-none-eabi/lib/armv7e-m\libg.a(lib_a-mallocr.o)
                0x20000888                __malloc_sbrk_base
 .data.lc_message_charset
                0x2000088c       0x20 c:/dave-3.1.10/arm-gcc/bin/../lib/gcc/arm-none-eabi/4.7.4/../../../../arm-none-eabi/lib/armv7e-m\libg.a(lib_a-locale.o)
 .data.lconv    0x200008ac       0x38 c:/dave-3.1.10/arm-gcc/bin/../lib/gcc/arm-none-eabi/4.7.4/../../../../arm-none-eabi/lib/armv7e-m\libg.a(lib_a-locale.o)
 .data.lc_ctype_charset
                0x200008e4       0x20 c:/dave-3.1.10/arm-gcc/bin/../lib/gcc/arm-none-eabi/4.7.4/../../../../arm-none-eabi/lib/armv7e-m\libg.a(lib_a-locale.o)
 .data.__mb_cur_max
                0x20000904        0x4 c:/dave-3.1.10/arm-gcc/bin/../lib/gcc/arm-none-eabi/4.7.4/../../../../arm-none-eabi/lib/armv7e-m\libg.a(lib_a-locale.o)
                0x20000904                __mb_cur_max
 *(*.data)
 *(.gnu.linkonce.d*)
                0x20000908                __Xmc4500_eData = ALIGN (0x4)
                0x00000908                __Xmc4500_Data_Size = (__Xmc4500_eData - __Xmc4500_sData)

.igot.plt       0x20000908        0x0 load address 0x0c014278
 .igot.plt      0x00000000        0x0 BluetoothDriver.o

.ram_code       0x10000800        0x0 load address 0x0c014278
                0x10000800                __ram_code_start = .
 *(.ram_code)
                0x10000800                __ram_code_end = .
                0x0c014278                __ram_code_load = LOADADDR (.ram_code)
                0x00000000                __ram_code_size = (__ram_code_end - __ram_code_start)

.bss            0x20000908     0x1714 load address 0x0c014278
                0x20000908                __Xmc4500_sBSS = .
 *(.bss)
 .bss           0x20000908       0x28 BluetoothDriver.o
                0x20000908                initStatus
                0x20000909                removeInitTimerRx
                0x2000090a                removeMainTimerStatus
                0x2000090b                removeRxTimerStatus
                0x2000090c                canSendStream
                0x20000910                mainInitTimerID
                0x20000914                HandlTimerReceiveAnsID
                0x20000918                TimerIdRxMessage
                0x2000091c                stageOfConnection
                0x20000920                connectionFailure
                0x20000924                stageOfInit
 .bss           0x20000930        0x0 CleanArray.o
 .bss           0x20000930        0x0 FIFO_functions.o
 .bss           0x20000930       0x24 HTU21D.o
                0x20000930                errorCounter
                0x20000934                errorCounterTmp
                0x20000938                wrong_checksum
                0x2000093c                readHumid
                0x20000940                readTmp
                0x20000944                timerHumidOn
                0x20000948                timerTmpOn
                0x2000094c                rh
                0x20000950                realTemperature
 .bss           0x20000954       0x68 LSM9DS1_Driver.o
                0x20000954                TimerIdReadMeasurements
                0x2000095c                TimerIDSendMsg
                0x20000960                sendingInProgress
                0x20000964                counter
                0x20000968                accelX
                0x2000096a                accelY
                0x2000096c                accelZ
                0x20000970                accelXf
                0x20000974                accelYf
                0x20000978                accelZf
                0x2000097c                gyroX
                0x2000097e                gyroY
                0x20000980                gyroZ
                0x20000984                gyroXf
                0x20000988                gyroYf
                0x2000098c                gyroZf
                0x20000990                magnetX
                0x20000992                magnetY
                0x20000994                magnetZ
                0x20000998                magnetXf
                0x2000099c                magnetYf
                0x200009a0                magnetZf
                0x200009a4                copied
                0x200009a6                DataReceive1
                0x200009a8                received
 .bss           0x200009bc        0x0 Main.o
 .bss           0x200009bc       0x18 SendMeasurementsToBt.o
                0x200009bc                turnedOn
 .bss           0x200009d4        0x8 TSL2561.o
                0x200009d4                DataReceive11
                0x200009d6                received1
                0x200009d8                TimerIdTSL2561
 .bss           0x200009dc        0x0 Timer.o
 .bss           0x200009dc        0x0 timerFunctions.o
 .bss           0x200009dc        0x0 Startup/startup_XMC4500.o
 .bss           0x200009dc        0x0 Startup/system_XMC4500.o
 .bss           0x200009dc        0xc Lib/System_LibcStubs.o
                0x200009dc                __dso_handle
 .bss           0x200009e8        0x0 Dave/Generated/src/UART001/UART001.o
 .bss           0x200009e8        0x0 Dave/Generated/src/UART001/UART001_Conf.o
 .bss           0x200009e8        0xc Dave/Generated/src/SYSTM001/SYSTM001.o
                0x200009e8                TimerList
                0x200009ec                TimerTracker
                0x200009f0                SysTickCount
 .bss           0x200009f4        0x0 Dave/Generated/src/RESET001/RESET001.o
 .bss           0x200009f4        0x0 Dave/Generated/src/NVIC002/NVIC002.o
 .bss           0x200009f4        0x0 Dave/Generated/src/NVIC002/NVIC002_Conf.o
 .bss           0x200009f4        0x0 Dave/Generated/src/LIBS/CCU8PWMLIB.o
 .bss           0x200009f4        0x0 Dave/Generated/src/LIBS/MOTORLIB.o
 .bss           0x200009f4        0x0 Dave/Generated/src/IO004/IO004.o
 .bss           0x200009f4        0x0 Dave/Generated/src/IO004/IO004_Conf.o
 .bss           0x200009f4        0x0 Dave/Generated/src/I2C001/I2C001.o
 .bss           0x200009f4        0x0 Dave/Generated/src/I2C001/I2C001_Conf.o
 .bss           0x200009f4        0x0 Dave/Generated/src/DAVESupport/DAVE3.o
 .bss           0x200009f4        0x0 Dave/Generated/src/DAVESupport/MULTIPLEXER.o
 .bss           0x200009f4        0x8 Dave/Generated/src/CLK001/CLK001.o
 .bss           0x200009fc        0x0 c:/dave-3.1.10/arm-gcc/bin/../lib/gcc/arm-none-eabi/4.7.4/../../../../arm-none-eabi/lib/armv7e-m\libm.a(lib_a-w_pow.o)
 .bss           0x200009fc        0x0 c:/dave-3.1.10/arm-gcc/bin/../lib/gcc/arm-none-eabi/4.7.4/../../../../arm-none-eabi/lib/armv7e-m\libm.a(lib_a-e_pow.o)
 .bss           0x200009fc        0x0 c:/dave-3.1.10/arm-gcc/bin/../lib/gcc/arm-none-eabi/4.7.4/../../../../arm-none-eabi/lib/armv7e-m\libm.a(lib_a-e_sqrt.o)
 .bss           0x200009fc        0x0 c:/dave-3.1.10/arm-gcc/bin/../lib/gcc/arm-none-eabi/4.7.4/../../../../arm-none-eabi/lib/armv7e-m\libm.a(lib_a-s_fabs.o)
 .bss           0x200009fc        0x0 c:/dave-3.1.10/arm-gcc/bin/../lib/gcc/arm-none-eabi/4.7.4/../../../../arm-none-eabi/lib/armv7e-m\libm.a(lib_a-s_finite.o)
 .bss           0x200009fc        0x0 c:/dave-3.1.10/arm-gcc/bin/../lib/gcc/arm-none-eabi/4.7.4/../../../../arm-none-eabi/lib/armv7e-m\libm.a(lib_a-s_fpclassify.o)
 .bss           0x200009fc        0x0 c:/dave-3.1.10/arm-gcc/bin/../lib/gcc/arm-none-eabi/4.7.4/../../../../arm-none-eabi/lib/armv7e-m\libm.a(lib_a-s_lib_ver.o)
 .bss           0x200009fc        0x0 c:/dave-3.1.10/arm-gcc/bin/../lib/gcc/arm-none-eabi/4.7.4/../../../../arm-none-eabi/lib/armv7e-m\libm.a(lib_a-s_matherr.o)
 .bss           0x200009fc        0x0 c:/dave-3.1.10/arm-gcc/bin/../lib/gcc/arm-none-eabi/4.7.4/../../../../arm-none-eabi/lib/armv7e-m\libm.a(lib_a-s_nan.o)
 .bss           0x200009fc        0x0 c:/dave-3.1.10/arm-gcc/bin/../lib/gcc/arm-none-eabi/4.7.4/../../../../arm-none-eabi/lib/armv7e-m\libm.a(lib_a-s_rint.o)
 .bss           0x200009fc        0x0 c:/dave-3.1.10/arm-gcc/bin/../lib/gcc/arm-none-eabi/4.7.4/../../../../arm-none-eabi/lib/armv7e-m\libm.a(lib_a-s_scalbn.o)
 .bss           0x200009fc        0x0 c:/dave-3.1.10/arm-gcc/bin/../lib/gcc/arm-none-eabi/4.7.4/../../../../arm-none-eabi/lib/armv7e-m\libm.a(lib_a-s_copysign.o)
 .bss           0x200009fc        0x0 c:/dave-3.1.10/arm-gcc/bin/../lib/gcc/arm-none-eabi/4.7.4/armv7e-m\libgcc.a(_arm_addsubdf3.o)
 .bss           0x200009fc        0x0 c:/dave-3.1.10/arm-gcc/bin/../lib/gcc/arm-none-eabi/4.7.4/armv7e-m\libgcc.a(_arm_muldivdf3.o)
 .bss           0x200009fc        0x0 c:/dave-3.1.10/arm-gcc/bin/../lib/gcc/arm-none-eabi/4.7.4/armv7e-m\libgcc.a(_arm_cmpdf2.o)
 .bss           0x200009fc        0x0 c:/dave-3.1.10/arm-gcc/bin/../lib/gcc/arm-none-eabi/4.7.4/armv7e-m\libgcc.a(_arm_fixdfsi.o)
 .bss           0x200009fc        0x0 c:/dave-3.1.10/arm-gcc/bin/../lib/gcc/arm-none-eabi/4.7.4/armv7e-m\libgcc.a(_arm_truncdfsf2.o)
 .bss           0x200009fc        0x0 c:/dave-3.1.10/arm-gcc/bin/../lib/gcc/arm-none-eabi/4.7.4/../../../../arm-none-eabi/lib/armv7e-m\libg.a(lib_a-errno.o)
 .bss           0x200009fc        0x0 c:/dave-3.1.10/arm-gcc/bin/../lib/gcc/arm-none-eabi/4.7.4/../../../../arm-none-eabi/lib/armv7e-m\libg.a(lib_a-impure.o)
 .bss           0x200009fc        0x0 c:/dave-3.1.10/arm-gcc/bin/../lib/gcc/arm-none-eabi/4.7.4/../../../../arm-none-eabi/lib/armv7e-m\libg.a(lib_a-init.o)
 .bss           0x200009fc        0x0 c:/dave-3.1.10/arm-gcc/bin/../lib/gcc/arm-none-eabi/4.7.4/../../../../arm-none-eabi/lib/armv7e-m\libg.a(lib_a-malloc.o)
 .bss           0x200009fc        0x0 c:/dave-3.1.10/arm-gcc/bin/../lib/gcc/arm-none-eabi/4.7.4/../../../../arm-none-eabi/lib/armv7e-m\libg.a(lib_a-mallocr.o)
 .bss           0x200009fc        0x0 c:/dave-3.1.10/arm-gcc/bin/../lib/gcc/arm-none-eabi/4.7.4/../../../../arm-none-eabi/lib/armv7e-m\libg.a(lib_a-memcpy.o)
 .bss           0x200009fc        0x0 c:/dave-3.1.10/arm-gcc/bin/../lib/gcc/arm-none-eabi/4.7.4/../../../../arm-none-eabi/lib/armv7e-m\libg.a(lib_a-mlock.o)
 .bss           0x200009fc        0x0 c:/dave-3.1.10/arm-gcc/bin/../lib/gcc/arm-none-eabi/4.7.4/../../../../arm-none-eabi/lib/armv7e-m\libg.a(lib_a-sbrkr.o)
 .bss           0x200009fc        0x0 c:/dave-3.1.10/arm-gcc/bin/../lib/gcc/arm-none-eabi/4.7.4/../../../../arm-none-eabi/lib/armv7e-m\libg.a(lib_a-sprintf.o)
 .bss           0x200009fc        0x0 c:/dave-3.1.10/arm-gcc/bin/../lib/gcc/arm-none-eabi/4.7.4/../../../../arm-none-eabi/lib/armv7e-m\libg.a(lib_a-strchr.o)
 .bss           0x200009fc        0x0 c:/dave-3.1.10/arm-gcc/bin/../lib/gcc/arm-none-eabi/4.7.4/../../../../arm-none-eabi/lib/armv7e-m\libg.a(lib_a-strcmp.o)
 .bss           0x200009fc        0x0 c:/dave-3.1.10/arm-gcc/bin/../lib/gcc/arm-none-eabi/4.7.4/../../../../arm-none-eabi/lib/armv7e-m\libg.a(lib_a-strlen.o)
 .bss           0x200009fc        0x0 c:/dave-3.1.10/arm-gcc/bin/../lib/gcc/arm-none-eabi/4.7.4/../../../../arm-none-eabi/lib/armv7e-m\libg.a(lib_a-strstr.o)
 .bss           0x200009fc        0x0 c:/dave-3.1.10/arm-gcc/bin/../lib/gcc/arm-none-eabi/4.7.4/../../../../arm-none-eabi/lib/armv7e-m\libg.a(lib_a-svfprintf.o)
 .bss           0x200009fc        0x0 c:/dave-3.1.10/arm-gcc/bin/../lib/gcc/arm-none-eabi/4.7.4/../../../../arm-none-eabi/lib/armv7e-m\libg.a(lib_a-dtoa.o)
 .bss           0x200009fc        0x0 c:/dave-3.1.10/arm-gcc/bin/../lib/gcc/arm-none-eabi/4.7.4/../../../../arm-none-eabi/lib/armv7e-m\libg.a(lib_a-freer.o)
 .bss           0x200009fc        0x0 c:/dave-3.1.10/arm-gcc/bin/../lib/gcc/arm-none-eabi/4.7.4/../../../../arm-none-eabi/lib/armv7e-m\libg.a(lib_a-locale.o)
 .bss           0x200009fc        0x0 c:/dave-3.1.10/arm-gcc/bin/../lib/gcc/arm-none-eabi/4.7.4/../../../../arm-none-eabi/lib/armv7e-m\libg.a(lib_a-memchr.o)
 .bss           0x200009fc        0x0 c:/dave-3.1.10/arm-gcc/bin/../lib/gcc/arm-none-eabi/4.7.4/../../../../arm-none-eabi/lib/armv7e-m\libg.a(lib_a-memcmp.o)
 .bss           0x200009fc        0x0 c:/dave-3.1.10/arm-gcc/bin/../lib/gcc/arm-none-eabi/4.7.4/../../../../arm-none-eabi/lib/armv7e-m\libg.a(lib_a-mprec.o)
 .bss           0x200009fc        0x0 c:/dave-3.1.10/arm-gcc/bin/../lib/gcc/arm-none-eabi/4.7.4/../../../../arm-none-eabi/lib/armv7e-m\libg.a(lib_a-reent.o)
 .bss           0x200009fc        0x0 c:/dave-3.1.10/arm-gcc/bin/../lib/gcc/arm-none-eabi/4.7.4/../../../../arm-none-eabi/lib/armv7e-m\libg.a(lib_a-svfiprintf.o)
 .bss           0x200009fc        0x0 c:/dave-3.1.10/arm-gcc/bin/../lib/gcc/arm-none-eabi/4.7.4/../../../../arm-none-eabi/lib/armv7e-m\libg.a(lib_a-callocr.o)
 .bss           0x200009fc        0x0 c:/dave-3.1.10/arm-gcc/bin/../lib/gcc/arm-none-eabi/4.7.4/../../../../arm-none-eabi/lib/armv7e-m\libg.a(lib_a-memmove.o)
 .bss           0x200009fc        0x0 c:/dave-3.1.10/arm-gcc/bin/../lib/gcc/arm-none-eabi/4.7.4/../../../../arm-none-eabi/lib/armv7e-m\libg.a(lib_a-memset.o)
 .bss           0x200009fc        0x0 c:/dave-3.1.10/arm-gcc/bin/../lib/gcc/arm-none-eabi/4.7.4/../../../../arm-none-eabi/lib/armv7e-m\libg.a(lib_a-reallocr.o)
 .bss           0x200009fc        0x0 c:/dave-3.1.10/arm-gcc/bin/../lib/gcc/arm-none-eabi/4.7.4/armv7e-m\libgcc.a(_aeabi_uldivmod.o)
 .bss           0x200009fc        0x0 c:/dave-3.1.10/arm-gcc/bin/../lib/gcc/arm-none-eabi/4.7.4/armv7e-m\libgcc.a(bpabi.o)
 .bss           0x200009fc        0x0 c:/dave-3.1.10/arm-gcc/bin/../lib/gcc/arm-none-eabi/4.7.4/armv7e-m\libgcc.a(_dvmd_tls.o)
 .bss           0x200009fc        0x0 c:/dave-3.1.10/arm-gcc/bin/../lib/gcc/arm-none-eabi/4.7.4/armv7e-m\libgcc.a(_divdi3.o)
 .bss           0x200009fc        0x0 c:/dave-3.1.10/arm-gcc/bin/../lib/gcc/arm-none-eabi/4.7.4/armv7e-m\libgcc.a(_udivdi3.o)
 *(.bss*)
 .bss.__malloc_max_total_mem
                0x200009fc        0x4 c:/dave-3.1.10/arm-gcc/bin/../lib/gcc/arm-none-eabi/4.7.4/../../../../arm-none-eabi/lib/armv7e-m\libg.a(lib_a-mallocr.o)
                0x200009fc                __malloc_max_total_mem
 .bss.__malloc_max_sbrked_mem
                0x20000a00        0x4 c:/dave-3.1.10/arm-gcc/bin/../lib/gcc/arm-none-eabi/4.7.4/../../../../arm-none-eabi/lib/armv7e-m\libg.a(lib_a-mallocr.o)
                0x20000a00                __malloc_max_sbrked_mem
 .bss.__malloc_top_pad
                0x20000a04        0x4 c:/dave-3.1.10/arm-gcc/bin/../lib/gcc/arm-none-eabi/4.7.4/../../../../arm-none-eabi/lib/armv7e-m\libg.a(lib_a-mallocr.o)
                0x20000a04                __malloc_top_pad
 .bss.__malloc_current_mallinfo
                0x20000a08       0x28 c:/dave-3.1.10/arm-gcc/bin/../lib/gcc/arm-none-eabi/4.7.4/../../../../arm-none-eabi/lib/armv7e-m\libg.a(lib_a-mallocr.o)
                0x20000a08                __malloc_current_mallinfo
 .bss._PathLocale
                0x20000a30        0x4 c:/dave-3.1.10/arm-gcc/bin/../lib/gcc/arm-none-eabi/4.7.4/../../../../arm-none-eabi/lib/armv7e-m\libg.a(lib_a-locale.o)
                0x20000a30                _PathLocale
 .bss.__nlocale_changed
                0x20000a34        0x4 c:/dave-3.1.10/arm-gcc/bin/../lib/gcc/arm-none-eabi/4.7.4/../../../../arm-none-eabi/lib/armv7e-m\libg.a(lib_a-locale.o)
                0x20000a34                __nlocale_changed
 .bss.__mlocale_changed
                0x20000a38        0x4 c:/dave-3.1.10/arm-gcc/bin/../lib/gcc/arm-none-eabi/4.7.4/../../../../arm-none-eabi/lib/armv7e-m\libg.a(lib_a-locale.o)
                0x20000a38                __mlocale_changed
 *(COMMON)
 COMMON         0x20000a3c      0x3d4 BluetoothDriver.o
                0x20000a3c                initCommandsAnswer
                0x20000dfc                device
 COMMON         0x20000e10        0x8 HTU21D.o
                0x20000e10                TimerRdHumid
                0x20000e14                TimerRdTmp
 COMMON         0x20000e18      0x6a4 LSM9DS1_Driver.o
                0x20000e18                aBias
                0x20000e24                mBiasRaw
                0x20000e2c                accelOsX
                0x20000e90                StatusReadBytes
                0x20000e94                settings
                0x20000ebc                _autoCalc
                0x20000ec0                Status
                0x20000ec4                gy
                0x20000ec6                az
                0x20000ec8                temperature
                0x20000ecc                WriteTimerId
                0x20000ed0                my
                0x20000ed2                ax
                0x20000ed4                aRes
                0x20000ed8                _mAddress
                0x20000edc                accelOsY
                0x20000f40                _xgAddress
                0x20000f44                TimerIdReadBytes
                0x20000f48                gBiasRaw
                0x20000f50                pomiaryAccel
                0x20001400                aBiasRaw
                0x20001408                WriteTimerStatus
                0x2000140c                adrAndData
                0x20001424                gz
                0x20001428                accelOsZ
                0x2000148c                gRes
                0x20001490                mz
                0x20001494                gBias
                0x200014a0                mRes
                0x200014a4                gx
                0x200014a6                ay
                0x200014a8                mx
                0x200014ac                TimerId
                0x200014b0                mBias
 COMMON         0x200014bc        0xc Main.o
                0x200014bc                ms
                0x200014c0                time
                0x200014c4                gain
 COMMON         0x200014c8      0x73c SendMeasurementsToBt.o
                0x200014c8                magY
                0x200014dc                TimerIdSentMsg
                0x200014e0                zAxisf
                0x20001500                accZ
                0x20001514                yAxis
                0x20001520                magZ
                0x20001534                copiedData
                0x200019e4                xAxis
                0x200019f0                humidity
                0x20001a10                gyrZ
                0x20001a24                xAxisf
                0x20001a44                gyrX
                0x20001a58                yAxisf
                0x20001a78                turnedOnSentTimer
                0x20001a7c                gyrY
                0x20001a90                json_data
                0x20001bbc                accY
                0x20001bd0                magX
                0x20001be4                zAxis
                0x20001bf0                accX
 *fill*         0x20001c04        0x4 00
 COMMON         0x20001c08       0x10 TSL2561.o
                0x20001c08                _i2c_address
                0x20001c09                _error
                0x20001c10                luminosity
 COMMON         0x20001c18      0x400 Dave/Generated/src/SYSTM001/SYSTM001.o
                0x20001c18                TimerTbl
 COMMON         0x20002018        0x4 c:/dave-3.1.10/arm-gcc/bin/../lib/gcc/arm-none-eabi/4.7.4/../../../../arm-none-eabi/lib/armv7e-m\libg.a(lib_a-reent.o)
                0x20002018                errno
 *(.gnu.linkonce.b*)
                0x2000201c                __Xmc4500_eBSS = ALIGN (0x4)
                0x2000201c                . = ALIGN (0x4)
                0x2000201c                Heap_Bank1_Start = .
                0x00001714                __Xmc4500_BSS_Size = (__Xmc4500_eBSS - __Xmc4500_sBSS)

.data2          0x30000000        0x0
                0x30000000                __data2_start = .
 *(ETH_RAM)
                0x30000000                __data2_end = .
                0x00000000                __data2_size = (__data2_end - __data2_start)
                0x0000dfe4                Heap_Bank1_Size = (0x10000 - (Heap_Bank1_Start - ORIGIN (DSRAM_1_system)))

DSRAM2_Heap     0x30000000        0x0
                0x30000000                Heap_Bank2_Start = .
                0x00008000                Heap_Bank2_Size = (0x8000 - (Heap_Bank2_Start - ORIGIN (DSRAM_2_comm)))

PSRAM_Heap      0x10000800        0x0
                0x10000800                Heap_Bank3_Start = .
                0x0000f800                Heap_Bank3_Size = (0x10000 - (Heap_Bank3_Start - ORIGIN (PSRAM_1)))

/DISCARD/
 *(.comment)

.stab
 *(.stab)

.stabstr
 *(.stabstr)

.debug
 *(.debug)

.line
 *(.line)

.debug_srcinfo
 *(.debug_srcinfo)

.debug_sfnames
 *(.debug_sfnames)

.debug_aranges  0x00000000      0xa88
 *(.debug_aranges)
 .debug_aranges
                0x00000000       0xf0 BluetoothDriver.o
 .debug_aranges
                0x000000f0       0x20 CleanArray.o
 .debug_aranges
                0x00000110       0x28 FIFO_functions.o
 .debug_aranges
                0x00000138       0x48 HTU21D.o
 .debug_aranges
                0x00000180      0x2f0 LSM9DS1_Driver.o
 .debug_aranges
                0x00000470       0x28 Main.o
 .debug_aranges
                0x00000498       0x40 SendMeasurementsToBt.o
 .debug_aranges
                0x000004d8       0xf0 TSL2561.o
 .debug_aranges
                0x000005c8       0x28 Timer.o
 .debug_aranges
                0x000005f0       0x18 timerFunctions.o
 .debug_aranges
                0x00000608       0x38 Startup/startup_XMC4500.o
 .debug_aranges
                0x00000640       0x30 Startup/system_XMC4500.o
 .debug_aranges
                0x00000670       0xa0 Lib/System_LibcStubs.o
 .debug_aranges
                0x00000710       0x80 Dave/Generated/src/UART001/UART001.o
 .debug_aranges
                0x00000790       0x18 Dave/Generated/src/UART001/UART001_Conf.o
 .debug_aranges
                0x000007a8       0x90 Dave/Generated/src/SYSTM001/SYSTM001.o
 .debug_aranges
                0x00000838       0x40 Dave/Generated/src/RESET001/RESET001.o
 .debug_aranges
                0x00000878       0x50 Dave/Generated/src/NVIC002/NVIC002.o
 .debug_aranges
                0x000008c8       0x18 Dave/Generated/src/NVIC002/NVIC002_Conf.o
 .debug_aranges
                0x000008e0       0x18 Dave/Generated/src/LIBS/CCU8PWMLIB.o
 .debug_aranges
                0x000008f8       0x18 Dave/Generated/src/LIBS/MOTORLIB.o
 .debug_aranges
                0x00000910       0x30 Dave/Generated/src/IO004/IO004.o
 .debug_aranges
                0x00000940       0x18 Dave/Generated/src/IO004/IO004_Conf.o
 .debug_aranges
                0x00000958       0x60 Dave/Generated/src/I2C001/I2C001.o
 .debug_aranges
                0x000009b8       0x18 Dave/Generated/src/I2C001/I2C001_Conf.o
 .debug_aranges
                0x000009d0       0x30 Dave/Generated/src/DAVESupport/DAVE3.o
 .debug_aranges
                0x00000a00       0x28 Dave/Generated/src/DAVESupport/MULTIPLEXER.o
 .debug_aranges
                0x00000a28       0x60 Dave/Generated/src/CLK001/CLK001.o

.debug_pubnames
 *(.debug_pubnames)

.debug_pubtypes
 *(.debug_pubtypes)

.debug_info     0x00000000     0xe014
 *(.debug_info .gnu.linkonce.wi.*)
 .debug_info    0x00000000     0x1096 BluetoothDriver.o
 .debug_info    0x00001096       0x96 CleanArray.o
 .debug_info    0x0000112c      0x597 FIFO_functions.o
 .debug_info    0x000016c3      0xa4e HTU21D.o
 .debug_info    0x00002111     0x274a LSM9DS1_Driver.o
 .debug_info    0x0000485b      0xb37 Main.o
 .debug_info    0x00005392      0xb49 SendMeasurementsToBt.o
 .debug_info    0x00005edb      0xdcd TSL2561.o
 .debug_info    0x00006ca8      0x1ab Timer.o
 .debug_info    0x00006e53       0x94 timerFunctions.o
 .debug_info    0x00006ee7       0x79 Startup/startup_XMC4500.o
 .debug_info    0x00006f60      0xaf0 Startup/system_XMC4500.o
 .debug_info    0x00007a50      0x65f Lib/System_LibcStubs.o
 .debug_info    0x000080af      0xfc2 Dave/Generated/src/UART001/UART001.o
 .debug_info    0x00009071      0x805 Dave/Generated/src/UART001/UART001_Conf.o
 .debug_info    0x00009876      0xc2e Dave/Generated/src/SYSTM001/SYSTM001.o
 .debug_info    0x0000a4a4      0x47c Dave/Generated/src/RESET001/RESET001.o
 .debug_info    0x0000a920      0x884 Dave/Generated/src/NVIC002/NVIC002.o
 .debug_info    0x0000b1a4      0x14b Dave/Generated/src/NVIC002/NVIC002_Conf.o
 .debug_info    0x0000b2ef       0x94 Dave/Generated/src/LIBS/CCU8PWMLIB.o
 .debug_info    0x0000b383       0x94 Dave/Generated/src/LIBS/MOTORLIB.o
 .debug_info    0x0000b417      0x3d3 Dave/Generated/src/IO004/IO004.o
 .debug_info    0x0000b7ea      0x2ce Dave/Generated/src/IO004/IO004_Conf.o
 .debug_info    0x0000bab8      0xe63 Dave/Generated/src/I2C001/I2C001.o
 .debug_info    0x0000c91b      0x56e Dave/Generated/src/I2C001/I2C001_Conf.o
 .debug_info    0x0000ce89      0x2e9 Dave/Generated/src/DAVESupport/DAVE3.o
 .debug_info    0x0000d172      0x819 Dave/Generated/src/DAVESupport/MULTIPLEXER.o
 .debug_info    0x0000d98b      0x689 Dave/Generated/src/CLK001/CLK001.o

.debug_abbrev   0x00000000     0x2668
 *(.debug_abbrev)
 .debug_abbrev  0x00000000      0x2ff BluetoothDriver.o
 .debug_abbrev  0x000002ff       0x84 CleanArray.o
 .debug_abbrev  0x00000383      0x155 FIFO_functions.o
 .debug_abbrev  0x000004d8      0x21d HTU21D.o
 .debug_abbrev  0x000006f5      0x363 LSM9DS1_Driver.o
 .debug_abbrev  0x00000a58      0x1a8 Main.o
 .debug_abbrev  0x00000c00      0x18f SendMeasurementsToBt.o
 .debug_abbrev  0x00000d8f      0x2d5 TSL2561.o
 .debug_abbrev  0x00001064       0xb5 Timer.o
 .debug_abbrev  0x00001119       0x4e timerFunctions.o
 .debug_abbrev  0x00001167       0x12 Startup/startup_XMC4500.o
 .debug_abbrev  0x00001179      0x154 Startup/system_XMC4500.o
 .debug_abbrev  0x000012cd      0x149 Lib/System_LibcStubs.o
 .debug_abbrev  0x00001416      0x203 Dave/Generated/src/UART001/UART001.o
 .debug_abbrev  0x00001619      0x12c Dave/Generated/src/UART001/UART001_Conf.o
 .debug_abbrev  0x00001745      0x26b Dave/Generated/src/SYSTM001/SYSTM001.o
 .debug_abbrev  0x000019b0      0x122 Dave/Generated/src/RESET001/RESET001.o
 .debug_abbrev  0x00001ad2      0x1c1 Dave/Generated/src/NVIC002/NVIC002.o
 .debug_abbrev  0x00001c93       0x9f Dave/Generated/src/NVIC002/NVIC002_Conf.o
 .debug_abbrev  0x00001d32       0x4e Dave/Generated/src/LIBS/CCU8PWMLIB.o
 .debug_abbrev  0x00001d80       0x4e Dave/Generated/src/LIBS/MOTORLIB.o
 .debug_abbrev  0x00001dce      0x129 Dave/Generated/src/IO004/IO004.o
 .debug_abbrev  0x00001ef7       0xbb Dave/Generated/src/IO004/IO004_Conf.o
 .debug_abbrev  0x00001fb2      0x20a Dave/Generated/src/I2C001/I2C001.o
 .debug_abbrev  0x000021bc      0x110 Dave/Generated/src/I2C001/I2C001_Conf.o
 .debug_abbrev  0x000022cc       0xf3 Dave/Generated/src/DAVESupport/DAVE3.o
 .debug_abbrev  0x000023bf      0x123 Dave/Generated/src/DAVESupport/MULTIPLEXER.o
 .debug_abbrev  0x000024e2      0x186 Dave/Generated/src/CLK001/CLK001.o

.debug_line     0x00000000     0xeae9
 *(.debug_line)
 .debug_line    0x00000000      0xccb BluetoothDriver.o
 .debug_line    0x00000ccb       0x52 CleanArray.o
 .debug_line    0x00000d1d      0x9a3 FIFO_functions.o
 .debug_line    0x000016c0      0xab7 HTU21D.o
 .debug_line    0x00002177     0x15de LSM9DS1_Driver.o
 .debug_line    0x00003755      0xb09 Main.o
 .debug_line    0x0000425e      0xc62 SendMeasurementsToBt.o
 .debug_line    0x00004ec0      0xc9a TSL2561.o
 .debug_line    0x00005b5a      0x993 Timer.o
 .debug_line    0x000064ed      0x97d timerFunctions.o
 .debug_line    0x00006e6a      0x130 Startup/startup_XMC4500.o
 .debug_line    0x00006f9a      0x3b7 Startup/system_XMC4500.o
 .debug_line    0x00007351      0x3c1 Lib/System_LibcStubs.o
 .debug_line    0x00007712      0x6c6 Dave/Generated/src/UART001/UART001.o
 .debug_line    0x00007dd8      0x3de Dave/Generated/src/UART001/UART001_Conf.o
 .debug_line    0x000081b6      0xb8a Dave/Generated/src/SYSTM001/SYSTM001.o
 .debug_line    0x00008d40      0x41e Dave/Generated/src/RESET001/RESET001.o
 .debug_line    0x0000915e      0x433 Dave/Generated/src/NVIC002/NVIC002.o
 .debug_line    0x00009591      0x373 Dave/Generated/src/NVIC002/NVIC002_Conf.o
 .debug_line    0x00009904      0x9b4 Dave/Generated/src/LIBS/CCU8PWMLIB.o
 .debug_line    0x0000a2b8      0x9b0 Dave/Generated/src/LIBS/MOTORLIB.o
 .debug_line    0x0000ac68      0xa17 Dave/Generated/src/IO004/IO004.o
 .debug_line    0x0000b67f      0x97b Dave/Generated/src/IO004/IO004_Conf.o
 .debug_line    0x0000bffa      0xac9 Dave/Generated/src/I2C001/I2C001.o
 .debug_line    0x0000cac3      0x97d Dave/Generated/src/I2C001/I2C001_Conf.o
 .debug_line    0x0000d440      0x8f4 Dave/Generated/src/DAVESupport/DAVE3.o
 .debug_line    0x0000dd34      0x906 Dave/Generated/src/DAVESupport/MULTIPLEXER.o
 .debug_line    0x0000e63a      0x4af Dave/Generated/src/CLK001/CLK001.o

.debug_frame    0x00000000     0x298c
 *(.debug_frame)
 .debug_frame   0x00000000      0x32c BluetoothDriver.o
 .debug_frame   0x0000032c       0x2c CleanArray.o
 .debug_frame   0x00000358       0x48 FIFO_functions.o
 .debug_frame   0x000003a0       0xc8 HTU21D.o
 .debug_frame   0x00000468      0xaf8 LSM9DS1_Driver.o
 .debug_frame   0x00000f60       0x4c Main.o
 .debug_frame   0x00000fac       0xe8 SendMeasurementsToBt.o
 .debug_frame   0x00001094      0x354 TSL2561.o
 .debug_frame   0x000013e8       0x50 Timer.o
 .debug_frame   0x00001438       0x6c Startup/system_XMC4500.o
 .debug_frame   0x000014a4      0x1ec Lib/System_LibcStubs.o
 .debug_frame   0x00001690      0x190 Dave/Generated/src/UART001/UART001.o
 .debug_frame   0x00001820      0x1d0 Dave/Generated/src/SYSTM001/SYSTM001.o
 .debug_frame   0x000019f0       0x9c Dave/Generated/src/RESET001/RESET001.o
 .debug_frame   0x00001a8c       0xe4 Dave/Generated/src/NVIC002/NVIC002.o
 .debug_frame   0x00001b70       0x64 Dave/Generated/src/IO004/IO004.o
 .debug_frame   0x00001bd4      0x114 Dave/Generated/src/I2C001/I2C001.o
 .debug_frame   0x00001ce8       0x64 Dave/Generated/src/DAVESupport/DAVE3.o
 .debug_frame   0x00001d4c       0x48 Dave/Generated/src/DAVESupport/MULTIPLEXER.o
 .debug_frame   0x00001d94      0x120 Dave/Generated/src/CLK001/CLK001.o
 .debug_frame   0x00001eb4       0x38 c:/dave-3.1.10/arm-gcc/bin/../lib/gcc/arm-none-eabi/4.7.4/../../../../arm-none-eabi/lib/armv7e-m\libm.a(lib_a-w_pow.o)
 .debug_frame   0x00001eec       0x38 c:/dave-3.1.10/arm-gcc/bin/../lib/gcc/arm-none-eabi/4.7.4/../../../../arm-none-eabi/lib/armv7e-m\libm.a(lib_a-e_pow.o)
 .debug_frame   0x00001f24       0x34 c:/dave-3.1.10/arm-gcc/bin/../lib/gcc/arm-none-eabi/4.7.4/../../../../arm-none-eabi/lib/armv7e-m\libm.a(lib_a-e_sqrt.o)
 .debug_frame   0x00001f58       0x20 c:/dave-3.1.10/arm-gcc/bin/../lib/gcc/arm-none-eabi/4.7.4/../../../../arm-none-eabi/lib/armv7e-m\libm.a(lib_a-s_fabs.o)
 .debug_frame   0x00001f78       0x20 c:/dave-3.1.10/arm-gcc/bin/../lib/gcc/arm-none-eabi/4.7.4/../../../../arm-none-eabi/lib/armv7e-m\libm.a(lib_a-s_finite.o)
 .debug_frame   0x00001f98       0x20 c:/dave-3.1.10/arm-gcc/bin/../lib/gcc/arm-none-eabi/4.7.4/../../../../arm-none-eabi/lib/armv7e-m\libm.a(lib_a-s_fpclassify.o)
 .debug_frame   0x00001fb8       0x20 c:/dave-3.1.10/arm-gcc/bin/../lib/gcc/arm-none-eabi/4.7.4/../../../../arm-none-eabi/lib/armv7e-m\libm.a(lib_a-s_matherr.o)
 .debug_frame   0x00001fd8       0x20 c:/dave-3.1.10/arm-gcc/bin/../lib/gcc/arm-none-eabi/4.7.4/../../../../arm-none-eabi/lib/armv7e-m\libm.a(lib_a-s_nan.o)
 .debug_frame   0x00001ff8       0x34 c:/dave-3.1.10/arm-gcc/bin/../lib/gcc/arm-none-eabi/4.7.4/../../../../arm-none-eabi/lib/armv7e-m\libm.a(lib_a-s_rint.o)
 .debug_frame   0x0000202c       0x30 c:/dave-3.1.10/arm-gcc/bin/../lib/gcc/arm-none-eabi/4.7.4/../../../../arm-none-eabi/lib/armv7e-m\libm.a(lib_a-s_scalbn.o)
 .debug_frame   0x0000205c       0x28 c:/dave-3.1.10/arm-gcc/bin/../lib/gcc/arm-none-eabi/4.7.4/../../../../arm-none-eabi/lib/armv7e-m\libm.a(lib_a-s_copysign.o)
 .debug_frame   0x00002084       0x20 c:/dave-3.1.10/arm-gcc/bin/../lib/gcc/arm-none-eabi/4.7.4/../../../../arm-none-eabi/lib/armv7e-m\libg.a(lib_a-errno.o)
 .debug_frame   0x000020a4       0x30 c:/dave-3.1.10/arm-gcc/bin/../lib/gcc/arm-none-eabi/4.7.4/../../../../arm-none-eabi/lib/armv7e-m\libg.a(lib_a-init.o)
 .debug_frame   0x000020d4       0x30 c:/dave-3.1.10/arm-gcc/bin/../lib/gcc/arm-none-eabi/4.7.4/../../../../arm-none-eabi/lib/armv7e-m\libg.a(lib_a-malloc.o)
 .debug_frame   0x00002104       0x38 c:/dave-3.1.10/arm-gcc/bin/../lib/gcc/arm-none-eabi/4.7.4/../../../../arm-none-eabi/lib/armv7e-m\libg.a(lib_a-mallocr.o)
 .debug_frame   0x0000213c       0x30 c:/dave-3.1.10/arm-gcc/bin/../lib/gcc/arm-none-eabi/4.7.4/../../../../arm-none-eabi/lib/armv7e-m\libg.a(lib_a-memcpy.o)
 .debug_frame   0x0000216c       0x30 c:/dave-3.1.10/arm-gcc/bin/../lib/gcc/arm-none-eabi/4.7.4/../../../../arm-none-eabi/lib/armv7e-m\libg.a(lib_a-mlock.o)
 .debug_frame   0x0000219c       0x2c c:/dave-3.1.10/arm-gcc/bin/../lib/gcc/arm-none-eabi/4.7.4/../../../../arm-none-eabi/lib/armv7e-m\libg.a(lib_a-sbrkr.o)
 .debug_frame   0x000021c8       0x60 c:/dave-3.1.10/arm-gcc/bin/../lib/gcc/arm-none-eabi/4.7.4/../../../../arm-none-eabi/lib/armv7e-m\libg.a(lib_a-sprintf.o)
 .debug_frame   0x00002228       0x2c c:/dave-3.1.10/arm-gcc/bin/../lib/gcc/arm-none-eabi/4.7.4/../../../../arm-none-eabi/lib/armv7e-m\libg.a(lib_a-strchr.o)
 .debug_frame   0x00002254       0x30 c:/dave-3.1.10/arm-gcc/bin/../lib/gcc/arm-none-eabi/4.7.4/../../../../arm-none-eabi/lib/armv7e-m\libg.a(lib_a-strcmp.o)
 .debug_frame   0x00002284       0x20 c:/dave-3.1.10/arm-gcc/bin/../lib/gcc/arm-none-eabi/4.7.4/../../../../arm-none-eabi/lib/armv7e-m\libg.a(lib_a-strlen.o)
 .debug_frame   0x000022a4       0x88 c:/dave-3.1.10/arm-gcc/bin/../lib/gcc/arm-none-eabi/4.7.4/../../../../arm-none-eabi/lib/armv7e-m\libg.a(lib_a-strstr.o)
 .debug_frame   0x0000232c       0x3c c:/dave-3.1.10/arm-gcc/bin/../lib/gcc/arm-none-eabi/4.7.4/../../../../arm-none-eabi/lib/armv7e-m\libg.a(lib_a-svfprintf.o)
 .debug_frame   0x00002368       0x64 c:/dave-3.1.10/arm-gcc/bin/../lib/gcc/arm-none-eabi/4.7.4/../../../../arm-none-eabi/lib/armv7e-m\libg.a(lib_a-dtoa.o)
 .debug_frame   0x000023cc       0x50 c:/dave-3.1.10/arm-gcc/bin/../lib/gcc/arm-none-eabi/4.7.4/../../../../arm-none-eabi/lib/armv7e-m\libg.a(lib_a-freer.o)
 .debug_frame   0x0000241c       0xa0 c:/dave-3.1.10/arm-gcc/bin/../lib/gcc/arm-none-eabi/4.7.4/../../../../arm-none-eabi/lib/armv7e-m\libg.a(lib_a-locale.o)
 .debug_frame   0x000024bc       0x2c c:/dave-3.1.10/arm-gcc/bin/../lib/gcc/arm-none-eabi/4.7.4/../../../../arm-none-eabi/lib/armv7e-m\libg.a(lib_a-memchr.o)
 .debug_frame   0x000024e8       0x2c c:/dave-3.1.10/arm-gcc/bin/../lib/gcc/arm-none-eabi/4.7.4/../../../../arm-none-eabi/lib/armv7e-m\libg.a(lib_a-memcmp.o)
 .debug_frame   0x00002514      0x234 c:/dave-3.1.10/arm-gcc/bin/../lib/gcc/arm-none-eabi/4.7.4/../../../../arm-none-eabi/lib/armv7e-m\libg.a(lib_a-mprec.o)
 .debug_frame   0x00002748       0x6c c:/dave-3.1.10/arm-gcc/bin/../lib/gcc/arm-none-eabi/4.7.4/../../../../arm-none-eabi/lib/armv7e-m\libg.a(lib_a-reent.o)
 .debug_frame   0x000027b4       0x64 c:/dave-3.1.10/arm-gcc/bin/../lib/gcc/arm-none-eabi/4.7.4/../../../../arm-none-eabi/lib/armv7e-m\libg.a(lib_a-svfiprintf.o)
 .debug_frame   0x00002818       0x28 c:/dave-3.1.10/arm-gcc/bin/../lib/gcc/arm-none-eabi/4.7.4/../../../../arm-none-eabi/lib/armv7e-m\libg.a(lib_a-callocr.o)
 .debug_frame   0x00002840       0x30 c:/dave-3.1.10/arm-gcc/bin/../lib/gcc/arm-none-eabi/4.7.4/../../../../arm-none-eabi/lib/armv7e-m\libg.a(lib_a-memmove.o)
 .debug_frame   0x00002870       0x2c c:/dave-3.1.10/arm-gcc/bin/../lib/gcc/arm-none-eabi/4.7.4/../../../../arm-none-eabi/lib/armv7e-m\libg.a(lib_a-memset.o)
 .debug_frame   0x0000289c       0x38 c:/dave-3.1.10/arm-gcc/bin/../lib/gcc/arm-none-eabi/4.7.4/../../../../arm-none-eabi/lib/armv7e-m\libg.a(lib_a-reallocr.o)
 .debug_frame   0x000028d4       0x50 c:/dave-3.1.10/arm-gcc/bin/../lib/gcc/arm-none-eabi/4.7.4/armv7e-m\libgcc.a(bpabi.o)
 .debug_frame   0x00002924       0x34 c:/dave-3.1.10/arm-gcc/bin/../lib/gcc/arm-none-eabi/4.7.4/armv7e-m\libgcc.a(_divdi3.o)
 .debug_frame   0x00002958       0x34 c:/dave-3.1.10/arm-gcc/bin/../lib/gcc/arm-none-eabi/4.7.4/armv7e-m\libgcc.a(_udivdi3.o)

.debug_str      0x00000000    0x9c17f
 *(.debug_str)
 .debug_str     0x00000000    0x94d9a BluetoothDriver.o
                              0x95297 (size before relaxing)
 .debug_str     0x00094d9a       0x1b CleanArray.o
                               0x22d3 (size before relaxing)
 .debug_str     0x00094db5      0x117 FIFO_functions.o
                              0x932ed (size before relaxing)
 .debug_str     0x00094ecc      0x3f2 HTU21D.o
                              0x9370a (size before relaxing)
 .debug_str     0x000952be     0x345c LSM9DS1_Driver.o
                              0x981cd (size before relaxing)
 .debug_str     0x0009871a       0x4c Main.o
                              0x9696c (size before relaxing)
 .debug_str     0x00098766      0x11c SendMeasurementsToBt.o
                              0x9687f (size before relaxing)
 .debug_str     0x00098882      0x1e6 TSL2561.o
                              0x95778 (size before relaxing)
 .debug_str     0x00098a68       0x72 Timer.o
                              0x9310e (size before relaxing)
 .debug_str     0x00098ada       0x14 timerFunctions.o
                              0x93069 (size before relaxing)
 .debug_str     0x00098aee      0x62d Startup/system_XMC4500.o
                              0x90476 (size before relaxing)
 .debug_str     0x0009911b     0x14fe Lib/System_LibcStubs.o
                               0x5896 (size before relaxing)
 .debug_str     0x0009a619      0x5d5 Dave/Generated/src/UART001/UART001.o
                              0x91574 (size before relaxing)
 .debug_str     0x0009abee       0x2d Dave/Generated/src/UART001/UART001_Conf.o
                              0x90dc0 (size before relaxing)
 .debug_str     0x0009ac1b      0xba7 Dave/Generated/src/SYSTM001/SYSTM001.o
                              0x93e28 (size before relaxing)
 .debug_str     0x0009b7c2      0x225 Dave/Generated/src/RESET001/RESET001.o
                              0x907d5 (size before relaxing)
 .debug_str     0x0009b9e7       0xa2 Dave/Generated/src/NVIC002/NVIC002.o
                              0x90953 (size before relaxing)
 .debug_str     0x0009ba89       0x5d Dave/Generated/src/NVIC002/NVIC002_Conf.o
                              0x901e8 (size before relaxing)
 .debug_str     0x0009bae6       0x28 Dave/Generated/src/LIBS/CCU8PWMLIB.o
                              0x9306a (size before relaxing)
 .debug_str     0x0009bb0e       0x26 Dave/Generated/src/LIBS/MOTORLIB.o
                              0x93068 (size before relaxing)
 .debug_str     0x0009bb34      0x156 Dave/Generated/src/IO004/IO004.o
                              0x93299 (size before relaxing)
 .debug_str     0x0009bc8a       0x29 Dave/Generated/src/IO004/IO004_Conf.o
                              0x93160 (size before relaxing)
 .debug_str     0x0009bcb3      0x238 Dave/Generated/src/I2C001/I2C001.o
                              0x9383e (size before relaxing)
 .debug_str     0x0009beeb       0x2b Dave/Generated/src/I2C001/I2C001_Conf.o
                              0x932fa (size before relaxing)
 .debug_str     0x0009bf16       0x68 Dave/Generated/src/DAVESupport/DAVE3.o
                              0x93138 (size before relaxing)
 .debug_str     0x0009bf7e       0x5b Dave/Generated/src/DAVESupport/MULTIPLEXER.o
                              0x9323d (size before relaxing)
 .debug_str     0x0009bfd9      0x1a6 Dave/Generated/src/CLK001/CLK001.o
                              0x90a5e (size before relaxing)

.debug_loc      0x00000000     0x3316
 *(.debug_loc)
 .debug_loc     0x00000000      0x51c BluetoothDriver.o
 .debug_loc     0x0000051c       0x38 CleanArray.o
 .debug_loc     0x00000554       0x64 FIFO_functions.o
 .debug_loc     0x000005b8      0x150 HTU21D.o
 .debug_loc     0x00000708     0x1276 LSM9DS1_Driver.o
 .debug_loc     0x0000197e       0x64 Main.o
 .debug_loc     0x000019e2      0x127 SendMeasurementsToBt.o
 .debug_loc     0x00001b09      0x573 TSL2561.o
 .debug_loc     0x0000207c       0x70 Timer.o
 .debug_loc     0x000020ec       0xa8 Startup/system_XMC4500.o
 .debug_loc     0x00002194      0x388 Lib/System_LibcStubs.o
 .debug_loc     0x0000251c      0x2e6 Dave/Generated/src/UART001/UART001.o
 .debug_loc     0x00002802      0x330 Dave/Generated/src/SYSTM001/SYSTM001.o
 .debug_loc     0x00002b32      0x118 Dave/Generated/src/RESET001/RESET001.o
 .debug_loc     0x00002c4a      0x17c Dave/Generated/src/NVIC002/NVIC002.o
 .debug_loc     0x00002dc6       0x9c Dave/Generated/src/IO004/IO004.o
 .debug_loc     0x00002e62      0x1e0 Dave/Generated/src/I2C001/I2C001.o
 .debug_loc     0x00003042       0x90 Dave/Generated/src/DAVESupport/DAVE3.o
 .debug_loc     0x000030d2       0x64 Dave/Generated/src/DAVESupport/MULTIPLEXER.o
 .debug_loc     0x00003136      0x1e0 Dave/Generated/src/CLK001/CLK001.o

.debug_macinfo
 *(.debug_macinfo)

.debug_ranges   0x00000000      0x898
 *(.debug_ranges)
 .debug_ranges  0x00000000       0xe0 BluetoothDriver.o
 .debug_ranges  0x000000e0       0x10 CleanArray.o
 .debug_ranges  0x000000f0       0x18 FIFO_functions.o
 .debug_ranges  0x00000108       0x38 HTU21D.o
 .debug_ranges  0x00000140      0x2e0 LSM9DS1_Driver.o
 .debug_ranges  0x00000420       0x18 Main.o
 .debug_ranges  0x00000438       0x30 SendMeasurementsToBt.o
 .debug_ranges  0x00000468       0xe0 TSL2561.o
 .debug_ranges  0x00000548       0x18 Timer.o
 .debug_ranges  0x00000560       0x30 Startup/startup_XMC4500.o
 .debug_ranges  0x00000590       0x20 Startup/system_XMC4500.o
 .debug_ranges  0x000005b0       0x90 Lib/System_LibcStubs.o
 .debug_ranges  0x00000640       0x70 Dave/Generated/src/UART001/UART001.o
 .debug_ranges  0x000006b0       0x80 Dave/Generated/src/SYSTM001/SYSTM001.o
 .debug_ranges  0x00000730       0x30 Dave/Generated/src/RESET001/RESET001.o
 .debug_ranges  0x00000760       0x40 Dave/Generated/src/NVIC002/NVIC002.o
 .debug_ranges  0x000007a0       0x20 Dave/Generated/src/IO004/IO004.o
 .debug_ranges  0x000007c0       0x50 Dave/Generated/src/I2C001/I2C001.o
 .debug_ranges  0x00000810       0x20 Dave/Generated/src/DAVESupport/DAVE3.o
 .debug_ranges  0x00000830       0x18 Dave/Generated/src/DAVESupport/MULTIPLEXER.o
 .debug_ranges  0x00000848       0x50 Dave/Generated/src/CLK001/CLK001.o

.debug_weaknames
 *(.debug_weaknames)

.debug_funcnames
 *(.debug_funcnames)

.debug_typenames
 *(.debug_typenames)

.debug_varnames
 *(.debug_varnames)

.build_attributes
                0x00000000      0xe5a
 *(.ARM.attributes)
 .ARM.attributes
                0x00000000       0x39 BluetoothDriver.o
 .ARM.attributes
                0x00000039       0x39 CleanArray.o
 .ARM.attributes
                0x00000072       0x39 FIFO_functions.o
 .ARM.attributes
                0x000000ab       0x39 HTU21D.o
 .ARM.attributes
                0x000000e4       0x39 LSM9DS1_Driver.o
 .ARM.attributes
                0x0000011d       0x39 Main.o
 .ARM.attributes
                0x00000156       0x39 SendMeasurementsToBt.o
 .ARM.attributes
                0x0000018f       0x39 TSL2561.o
 .ARM.attributes
                0x000001c8       0x39 Timer.o
 .ARM.attributes
                0x00000201       0x39 timerFunctions.o
 .ARM.attributes
                0x0000023a       0x27 Startup/startup_XMC4500.o
 .ARM.attributes
                0x00000261       0x39 Startup/system_XMC4500.o
 .ARM.attributes
                0x0000029a       0x39 Lib/System_LibcStubs.o
 .ARM.attributes
                0x000002d3       0x39 Dave/Generated/src/UART001/UART001.o
 .ARM.attributes
                0x0000030c       0x39 Dave/Generated/src/UART001/UART001_Conf.o
 .ARM.attributes
                0x00000345       0x39 Dave/Generated/src/SYSTM001/SYSTM001.o
 .ARM.attributes
                0x0000037e       0x39 Dave/Generated/src/RESET001/RESET001.o
 .ARM.attributes
                0x000003b7       0x39 Dave/Generated/src/NVIC002/NVIC002.o
 .ARM.attributes
                0x000003f0       0x39 Dave/Generated/src/NVIC002/NVIC002_Conf.o
 .ARM.attributes
                0x00000429       0x39 Dave/Generated/src/LIBS/CCU8PWMLIB.o
 .ARM.attributes
                0x00000462       0x39 Dave/Generated/src/LIBS/MOTORLIB.o
 .ARM.attributes
                0x0000049b       0x39 Dave/Generated/src/IO004/IO004.o
 .ARM.attributes
                0x000004d4       0x39 Dave/Generated/src/IO004/IO004_Conf.o
 .ARM.attributes
                0x0000050d       0x39 Dave/Generated/src/I2C001/I2C001.o
 .ARM.attributes
                0x00000546       0x39 Dave/Generated/src/I2C001/I2C001_Conf.o
 .ARM.attributes
                0x0000057f       0x39 Dave/Generated/src/DAVESupport/DAVE3.o
 .ARM.attributes
                0x000005b8       0x39 Dave/Generated/src/DAVESupport/MULTIPLEXER.o
 .ARM.attributes
                0x000005f1       0x39 Dave/Generated/src/CLK001/CLK001.o
 .ARM.attributes
                0x0000062a       0x2e c:/dave-3.1.10/arm-gcc/bin/../lib/gcc/arm-none-eabi/4.7.4/../../../../arm-none-eabi/lib/armv7e-m\libm.a(lib_a-w_pow.o)
 .ARM.attributes
                0x00000658       0x2e c:/dave-3.1.10/arm-gcc/bin/../lib/gcc/arm-none-eabi/4.7.4/../../../../arm-none-eabi/lib/armv7e-m\libm.a(lib_a-e_pow.o)
 .ARM.attributes
                0x00000686       0x2e c:/dave-3.1.10/arm-gcc/bin/../lib/gcc/arm-none-eabi/4.7.4/../../../../arm-none-eabi/lib/armv7e-m\libm.a(lib_a-e_sqrt.o)
 .ARM.attributes
                0x000006b4       0x2e c:/dave-3.1.10/arm-gcc/bin/../lib/gcc/arm-none-eabi/4.7.4/../../../../arm-none-eabi/lib/armv7e-m\libm.a(lib_a-s_fabs.o)
 .ARM.attributes
                0x000006e2       0x2e c:/dave-3.1.10/arm-gcc/bin/../lib/gcc/arm-none-eabi/4.7.4/../../../../arm-none-eabi/lib/armv7e-m\libm.a(lib_a-s_finite.o)
 .ARM.attributes
                0x00000710       0x2e c:/dave-3.1.10/arm-gcc/bin/../lib/gcc/arm-none-eabi/4.7.4/../../../../arm-none-eabi/lib/armv7e-m\libm.a(lib_a-s_fpclassify.o)
 .ARM.attributes
                0x0000073e       0x2e c:/dave-3.1.10/arm-gcc/bin/../lib/gcc/arm-none-eabi/4.7.4/../../../../arm-none-eabi/lib/armv7e-m\libm.a(lib_a-s_lib_ver.o)
 .ARM.attributes
                0x0000076c       0x2e c:/dave-3.1.10/arm-gcc/bin/../lib/gcc/arm-none-eabi/4.7.4/../../../../arm-none-eabi/lib/armv7e-m\libm.a(lib_a-s_matherr.o)
 .ARM.attributes
                0x0000079a       0x2e c:/dave-3.1.10/arm-gcc/bin/../lib/gcc/arm-none-eabi/4.7.4/../../../../arm-none-eabi/lib/armv7e-m\libm.a(lib_a-s_nan.o)
 .ARM.attributes
                0x000007c8       0x2e c:/dave-3.1.10/arm-gcc/bin/../lib/gcc/arm-none-eabi/4.7.4/../../../../arm-none-eabi/lib/armv7e-m\libm.a(lib_a-s_rint.o)
 .ARM.attributes
                0x000007f6       0x2e c:/dave-3.1.10/arm-gcc/bin/../lib/gcc/arm-none-eabi/4.7.4/../../../../arm-none-eabi/lib/armv7e-m\libm.a(lib_a-s_scalbn.o)
 .ARM.attributes
                0x00000824       0x2e c:/dave-3.1.10/arm-gcc/bin/../lib/gcc/arm-none-eabi/4.7.4/../../../../arm-none-eabi/lib/armv7e-m\libm.a(lib_a-s_copysign.o)
 .ARM.attributes
                0x00000852       0x1e c:/dave-3.1.10/arm-gcc/bin/../lib/gcc/arm-none-eabi/4.7.4/armv7e-m\libgcc.a(_arm_addsubdf3.o)
 .ARM.attributes
                0x00000870       0x1e c:/dave-3.1.10/arm-gcc/bin/../lib/gcc/arm-none-eabi/4.7.4/armv7e-m\libgcc.a(_arm_muldivdf3.o)
 .ARM.attributes
                0x0000088e       0x1e c:/dave-3.1.10/arm-gcc/bin/../lib/gcc/arm-none-eabi/4.7.4/armv7e-m\libgcc.a(_arm_cmpdf2.o)
 .ARM.attributes
                0x000008ac       0x1e c:/dave-3.1.10/arm-gcc/bin/../lib/gcc/arm-none-eabi/4.7.4/armv7e-m\libgcc.a(_arm_fixdfsi.o)
 .ARM.attributes
                0x000008ca       0x1e c:/dave-3.1.10/arm-gcc/bin/../lib/gcc/arm-none-eabi/4.7.4/armv7e-m\libgcc.a(_arm_truncdfsf2.o)
 .ARM.attributes
                0x000008e8       0x2e c:/dave-3.1.10/arm-gcc/bin/../lib/gcc/arm-none-eabi/4.7.4/../../../../arm-none-eabi/lib/armv7e-m\libg.a(lib_a-errno.o)
 .ARM.attributes
                0x00000916       0x2e c:/dave-3.1.10/arm-gcc/bin/../lib/gcc/arm-none-eabi/4.7.4/../../../../arm-none-eabi/lib/armv7e-m\libg.a(lib_a-impure.o)
 .ARM.attributes
                0x00000944       0x2e c:/dave-3.1.10/arm-gcc/bin/../lib/gcc/arm-none-eabi/4.7.4/../../../../arm-none-eabi/lib/armv7e-m\libg.a(lib_a-init.o)
 .ARM.attributes
                0x00000972       0x2e c:/dave-3.1.10/arm-gcc/bin/../lib/gcc/arm-none-eabi/4.7.4/../../../../arm-none-eabi/lib/armv7e-m\libg.a(lib_a-malloc.o)
 .ARM.attributes
                0x000009a0       0x2e c:/dave-3.1.10/arm-gcc/bin/../lib/gcc/arm-none-eabi/4.7.4/../../../../arm-none-eabi/lib/armv7e-m\libg.a(lib_a-mallocr.o)
 .ARM.attributes
                0x000009ce       0x2e c:/dave-3.1.10/arm-gcc/bin/../lib/gcc/arm-none-eabi/4.7.4/../../../../arm-none-eabi/lib/armv7e-m\libg.a(lib_a-memcpy.o)
 .ARM.attributes
                0x000009fc       0x2e c:/dave-3.1.10/arm-gcc/bin/../lib/gcc/arm-none-eabi/4.7.4/../../../../arm-none-eabi/lib/armv7e-m\libg.a(lib_a-mlock.o)
 .ARM.attributes
                0x00000a2a       0x2e c:/dave-3.1.10/arm-gcc/bin/../lib/gcc/arm-none-eabi/4.7.4/../../../../arm-none-eabi/lib/armv7e-m\libg.a(lib_a-sbrkr.o)
 .ARM.attributes
                0x00000a58       0x2e c:/dave-3.1.10/arm-gcc/bin/../lib/gcc/arm-none-eabi/4.7.4/../../../../arm-none-eabi/lib/armv7e-m\libg.a(lib_a-sprintf.o)
 .ARM.attributes
                0x00000a86       0x2e c:/dave-3.1.10/arm-gcc/bin/../lib/gcc/arm-none-eabi/4.7.4/../../../../arm-none-eabi/lib/armv7e-m\libg.a(lib_a-strchr.o)
 .ARM.attributes
                0x00000ab4       0x2e c:/dave-3.1.10/arm-gcc/bin/../lib/gcc/arm-none-eabi/4.7.4/../../../../arm-none-eabi/lib/armv7e-m\libg.a(lib_a-strcmp.o)
 .ARM.attributes
                0x00000ae2       0x2e c:/dave-3.1.10/arm-gcc/bin/../lib/gcc/arm-none-eabi/4.7.4/../../../../arm-none-eabi/lib/armv7e-m\libg.a(lib_a-strlen.o)
 .ARM.attributes
                0x00000b10       0x2e c:/dave-3.1.10/arm-gcc/bin/../lib/gcc/arm-none-eabi/4.7.4/../../../../arm-none-eabi/lib/armv7e-m\libg.a(lib_a-strstr.o)
 .ARM.attributes
                0x00000b3e       0x2e c:/dave-3.1.10/arm-gcc/bin/../lib/gcc/arm-none-eabi/4.7.4/../../../../arm-none-eabi/lib/armv7e-m\libg.a(lib_a-svfprintf.o)
 .ARM.attributes
                0x00000b6c       0x2e c:/dave-3.1.10/arm-gcc/bin/../lib/gcc/arm-none-eabi/4.7.4/../../../../arm-none-eabi/lib/armv7e-m\libg.a(lib_a-dtoa.o)
 .ARM.attributes
                0x00000b9a       0x2e c:/dave-3.1.10/arm-gcc/bin/../lib/gcc/arm-none-eabi/4.7.4/../../../../arm-none-eabi/lib/armv7e-m\libg.a(lib_a-freer.o)
 .ARM.attributes
                0x00000bc8       0x2e c:/dave-3.1.10/arm-gcc/bin/../lib/gcc/arm-none-eabi/4.7.4/../../../../arm-none-eabi/lib/armv7e-m\libg.a(lib_a-locale.o)
 .ARM.attributes
                0x00000bf6       0x2e c:/dave-3.1.10/arm-gcc/bin/../lib/gcc/arm-none-eabi/4.7.4/../../../../arm-none-eabi/lib/armv7e-m\libg.a(lib_a-memchr.o)
 .ARM.attributes
                0x00000c24       0x2e c:/dave-3.1.10/arm-gcc/bin/../lib/gcc/arm-none-eabi/4.7.4/../../../../arm-none-eabi/lib/armv7e-m\libg.a(lib_a-memcmp.o)
 .ARM.attributes
                0x00000c52       0x2e c:/dave-3.1.10/arm-gcc/bin/../lib/gcc/arm-none-eabi/4.7.4/../../../../arm-none-eabi/lib/armv7e-m\libg.a(lib_a-mprec.o)
 .ARM.attributes
                0x00000c80       0x2e c:/dave-3.1.10/arm-gcc/bin/../lib/gcc/arm-none-eabi/4.7.4/../../../../arm-none-eabi/lib/armv7e-m\libg.a(lib_a-reent.o)
 .ARM.attributes
                0x00000cae       0x2e c:/dave-3.1.10/arm-gcc/bin/../lib/gcc/arm-none-eabi/4.7.4/../../../../arm-none-eabi/lib/armv7e-m\libg.a(lib_a-svfiprintf.o)
 .ARM.attributes
                0x00000cdc       0x2e c:/dave-3.1.10/arm-gcc/bin/../lib/gcc/arm-none-eabi/4.7.4/../../../../arm-none-eabi/lib/armv7e-m\libg.a(lib_a-callocr.o)
 .ARM.attributes
                0x00000d0a       0x2e c:/dave-3.1.10/arm-gcc/bin/../lib/gcc/arm-none-eabi/4.7.4/../../../../arm-none-eabi/lib/armv7e-m\libg.a(lib_a-memmove.o)
 .ARM.attributes
                0x00000d38       0x2e c:/dave-3.1.10/arm-gcc/bin/../lib/gcc/arm-none-eabi/4.7.4/../../../../arm-none-eabi/lib/armv7e-m\libg.a(lib_a-memset.o)
 .ARM.attributes
                0x00000d66       0x2e c:/dave-3.1.10/arm-gcc/bin/../lib/gcc/arm-none-eabi/4.7.4/../../../../arm-none-eabi/lib/armv7e-m\libg.a(lib_a-reallocr.o)
 .ARM.attributes
                0x00000d94       0x1e c:/dave-3.1.10/arm-gcc/bin/../lib/gcc/arm-none-eabi/4.7.4/armv7e-m\libgcc.a(_aeabi_uldivmod.o)
 .ARM.attributes
                0x00000db2       0x2e c:/dave-3.1.10/arm-gcc/bin/../lib/gcc/arm-none-eabi/4.7.4/armv7e-m\libgcc.a(bpabi.o)
 .ARM.attributes
                0x00000de0       0x1e c:/dave-3.1.10/arm-gcc/bin/../lib/gcc/arm-none-eabi/4.7.4/armv7e-m\libgcc.a(_dvmd_tls.o)
 .ARM.attributes
                0x00000dfe       0x2e c:/dave-3.1.10/arm-gcc/bin/../lib/gcc/arm-none-eabi/4.7.4/armv7e-m\libgcc.a(_divdi3.o)
 .ARM.attributes
                0x00000e2c       0x2e c:/dave-3.1.10/arm-gcc/bin/../lib/gcc/arm-none-eabi/4.7.4/armv7e-m\libgcc.a(_udivdi3.o)
OUTPUT(BachelorImproved1.elf elf32-littlearm)

.debug_macro    0x00000000    0x1bf14
 .debug_macro   0x00000000      0x28b BluetoothDriver.o
 .debug_macro   0x0000028b      0x814 BluetoothDriver.o
 .debug_macro   0x00000a9f       0x2d BluetoothDriver.o
 .debug_macro   0x00000acc       0x3b BluetoothDriver.o
 .debug_macro   0x00000b07       0x3a BluetoothDriver.o
 .debug_macro   0x00000b41       0x10 BluetoothDriver.o
 .debug_macro   0x00000b51       0x2e BluetoothDriver.o
 .debug_macro   0x00000b7f       0xa3 BluetoothDriver.o
 .debug_macro   0x00000c22      0x20e BluetoothDriver.o
 .debug_macro   0x00000e30       0x2d BluetoothDriver.o
 .debug_macro   0x00000e5d       0x42 BluetoothDriver.o
 .debug_macro   0x00000e9f      0xd39 BluetoothDriver.o
 .debug_macro   0x00001bd8       0x70 BluetoothDriver.o
 .debug_macro   0x00001c48    0x150f5 BluetoothDriver.o
 .debug_macro   0x00016d3d      0x16c BluetoothDriver.o
 .debug_macro   0x00016ea9       0x22 BluetoothDriver.o
 .debug_macro   0x00016ecb      0x54a BluetoothDriver.o
 .debug_macro   0x00017415       0x64 BluetoothDriver.o
 .debug_macro   0x00017479       0x46 BluetoothDriver.o
 .debug_macro   0x000174bf      0x160 BluetoothDriver.o
 .debug_macro   0x0001761f      0x130 BluetoothDriver.o
 .debug_macro   0x0001774f       0x7f BluetoothDriver.o
 .debug_macro   0x000177ce       0xb4 BluetoothDriver.o
 .debug_macro   0x00017882       0xb5 BluetoothDriver.o
 .debug_macro   0x00017937       0x49 BluetoothDriver.o
 .debug_macro   0x00017980       0x2e BluetoothDriver.o
 .debug_macro   0x000179ae       0x2d BluetoothDriver.o
 .debug_macro   0x000179db       0x28 BluetoothDriver.o
 .debug_macro   0x00017a03       0x28 BluetoothDriver.o
 .debug_macro   0x00017a2b       0x2e BluetoothDriver.o
 .debug_macro   0x00017a59       0x10 BluetoothDriver.o
 .debug_macro   0x00017a69       0x35 BluetoothDriver.o
 .debug_macro   0x00017a9e       0x3a BluetoothDriver.o
 .debug_macro   0x00017ad8       0x52 BluetoothDriver.o
 .debug_macro   0x00017b2a       0x43 BluetoothDriver.o
 .debug_macro   0x00017b6d      0x16d BluetoothDriver.o
 .debug_macro   0x00017cda       0x16 BluetoothDriver.o
 .debug_macro   0x00017cf0       0x23 BluetoothDriver.o
 .debug_macro   0x00017d13       0x10 BluetoothDriver.o
 .debug_macro   0x00017d23       0x1c BluetoothDriver.o
 .debug_macro   0x00017d3f       0x11 CleanArray.o
 .debug_macro   0x00017d50      0x1dc FIFO_functions.o
 .debug_macro   0x00017f2c      0x1f7 HTU21D.o
 .debug_macro   0x00018123       0x3a HTU21D.o
 .debug_macro   0x0001815d      0x33b LSM9DS1_Driver.o
 .debug_macro   0x00018498       0x16 LSM9DS1_Driver.o
 .debug_macro   0x000184ae      0x1cc LSM9DS1_Driver.o
 .debug_macro   0x0001867a       0x10 LSM9DS1_Driver.o
 .debug_macro   0x0001868a       0x10 LSM9DS1_Driver.o
 .debug_macro   0x0001869a       0x10 LSM9DS1_Driver.o
 .debug_macro   0x000186aa       0x22 LSM9DS1_Driver.o
 .debug_macro   0x000186cc       0x91 LSM9DS1_Driver.o
 .debug_macro   0x0001875d       0x16 LSM9DS1_Driver.o
 .debug_macro   0x00018773      0x16d LSM9DS1_Driver.o
 .debug_macro   0x000188e0      0x1da LSM9DS1_Driver.o
 .debug_macro   0x00018aba       0x64 LSM9DS1_Driver.o
 .debug_macro   0x00018b1e       0x10 LSM9DS1_Driver.o
 .debug_macro   0x00018b2e      0x447 LSM9DS1_Driver.o
 .debug_macro   0x00018f75      0x30f Main.o
 .debug_macro   0x00019284       0x16 Main.o
 .debug_macro   0x0001929a      0x323 SendMeasurementsToBt.o
 .debug_macro   0x000195bd       0x40 SendMeasurementsToBt.o
 .debug_macro   0x000195fd      0x25d TSL2561.o
 .debug_macro   0x0001985a       0x19 TSL2561.o
 .debug_macro   0x00019873       0x89 TSL2561.o
 .debug_macro   0x000198fc       0x22 TSL2561.o
 .debug_macro   0x0001991e       0xf5 TSL2561.o
 .debug_macro   0x00019a13      0x1dc Timer.o
 .debug_macro   0x00019bef      0x1dc timerFunctions.o
 .debug_macro   0x00019dcb      0x17e Startup/system_XMC4500.o
 .debug_macro   0x00019f49       0x6a Startup/system_XMC4500.o
 .debug_macro   0x00019fb3      0x119 Lib/System_LibcStubs.o
 .debug_macro   0x0001a0cc       0x10 Lib/System_LibcStubs.o
 .debug_macro   0x0001a0dc       0x16 Lib/System_LibcStubs.o
 .debug_macro   0x0001a0f2       0x34 Lib/System_LibcStubs.o
 .debug_macro   0x0001a126      0x120 Lib/System_LibcStubs.o
 .debug_macro   0x0001a246       0x16 Lib/System_LibcStubs.o
 .debug_macro   0x0001a25c      0x495 Lib/System_LibcStubs.o
 .debug_macro   0x0001a6f1      0x170 Dave/Generated/src/UART001/UART001.o
 .debug_macro   0x0001a861       0xb0 Dave/Generated/src/UART001/UART001.o
 .debug_macro   0x0001a911      0x100 Dave/Generated/src/UART001/UART001_Conf.o
 .debug_macro   0x0001aa11      0x28e Dave/Generated/src/SYSTM001/SYSTM001.o
 .debug_macro   0x0001ac9f       0xff Dave/Generated/src/RESET001/RESET001.o
 .debug_macro   0x0001ad9e       0xd2 Dave/Generated/src/NVIC002/NVIC002.o
 .debug_macro   0x0001ae70       0xd2 Dave/Generated/src/NVIC002/NVIC002_Conf.o
 .debug_macro   0x0001af42      0x1d6 Dave/Generated/src/LIBS/CCU8PWMLIB.o
 .debug_macro   0x0001b118      0x1d6 Dave/Generated/src/LIBS/MOTORLIB.o
 .debug_macro   0x0001b2ee      0x1d2 Dave/Generated/src/IO004/IO004.o
 .debug_macro   0x0001b4c0      0x1d2 Dave/Generated/src/IO004/IO004_Conf.o
 .debug_macro   0x0001b692      0x21e Dave/Generated/src/I2C001/I2C001.o
 .debug_macro   0x0001b8b0      0x1d2 Dave/Generated/src/I2C001/I2C001_Conf.o
 .debug_macro   0x0001ba82      0x1d2 Dave/Generated/src/DAVESupport/DAVE3.o
 .debug_macro   0x0001bc54      0x1d2 Dave/Generated/src/DAVESupport/MULTIPLEXER.o
 .debug_macro   0x0001be26       0xee Dave/Generated/src/CLK001/CLK001.o
