   1              		.syntax unified
   2              		.cpu cortex-m4
   3              		.eabi_attribute 27, 3
   4              		.fpu fpv4-sp-d16
   5              		.eabi_attribute 20, 1
   6              		.eabi_attribute 21, 1
   7              		.eabi_attribute 23, 3
   8              		.eabi_attribute 24, 1
   9              		.eabi_attribute 25, 1
  10              		.eabi_attribute 26, 1
  11              		.eabi_attribute 30, 6
  12              		.eabi_attribute 34, 1
  13              		.eabi_attribute 18, 4
  14              		.thumb
  15              		.file	"LSM9DS1_Driver.c"
  16              		.text
  17              	.Ltext0:
  18              		.cfi_sections	.debug_frame
  19              		.comm	TimerId,4,4
  20              		.comm	Status,4,4
  21              		.comm	WriteTimerId,4,4
  22              		.comm	WriteTimerStatus,4,4
  23              		.comm	TimerIdReadBytes,4,4
  24              		.comm	StatusReadBytes,4,4
  25              		.comm	settings,40,4
  26              		.comm	gBias,12,4
  27              		.comm	aBias,12,4
  28              		.comm	mBias,12,4
  29              		.comm	gBiasRaw,6,4
  30              		.comm	aBiasRaw,6,4
  31              		.comm	mBiasRaw,6,4
  32              		.comm	_autoCalc,1,1
  33              		.comm	_mAddress,1,1
  34              		.comm	_xgAddress,1,1
  35              		.comm	gRes,4,4
  36              		.comm	aRes,4,4
  37              		.comm	mRes,4,4
  38              		.comm	gx,2,2
  39              		.comm	gy,2,2
  40              		.comm	gz,2,2
  41              		.comm	ax,2,2
  42              		.comm	ay,2,2
  43              		.comm	az,2,2
  44              		.comm	mx,2,2
  45              		.comm	my,2,2
  46              		.comm	mz,2,2
  47              		.comm	temperature,2,2
  48              		.comm	accelOsX,100,4
  49              		.comm	accelOsY,100,4
  50              		.comm	accelOsZ,100,4
  51              		.global	TimerIdReadMeasurements
  52              		.bss
  53              		.align	2
  56              	TimerIdReadMeasurements:
  57 0000 00000000 		.space	4
  58              		.global	StatusTimerReadMeasurements
  59              		.data
  60              		.align	2
  63              	StatusTimerReadMeasurements:
  64 0000 02000000 		.word	2
  65              		.global	readingAllowed
  68              	readingAllowed:
  69 0004 01       		.byte	1
  70              		.comm	pomiaryAccel,1200,4
  71              		.comm	adrAndData,23,4
  72              		.bss
  73              	sendMsgTimerExpired:
  74 0004 00       		.space	1
  75              		.global	TimerIDSendMsg
  76 0005 000000   		.align	2
  79              	TimerIDSendMsg:
  80 0008 00000000 		.space	4
  81              		.global	statusTimerSendMsg
  82              		.data
  83 0005 000000   		.align	2
  86              	statusTimerSendMsg:
  87 0008 02000000 		.word	2
  88              		.global	sendingInProgress
  89              		.bss
  92              	sendingInProgress:
  93 000c 00       		.space	1
  94              		.global	counter
  95 000d 000000   		.align	2
  98              	counter:
  99 0010 00000000 		.space	4
 100              		.global	magSensitivity
 101              		.data
 102              		.align	2
 105              	magSensitivity:
 106 000c F7CC1239 		.word	957533431
 107 0010 240B9839 		.word	966265636
 108 0014 9F71E139 		.word	971075999
 109 0018 240B183A 		.word	974654244
 110              		.global	accelX
 111              		.bss
 112              		.align	1
 115              	accelX:
 116 0014 0000     		.space	2
 117              		.global	accelY
 118              		.align	1
 121              	accelY:
 122 0016 0000     		.space	2
 123              		.global	accelZ
 124              		.align	1
 127              	accelZ:
 128 0018 0000     		.space	2
 129              		.global	accelXf
 130 001a 0000     		.align	2
 133              	accelXf:
 134 001c 00000000 		.space	4
 135              		.global	accelYf
 136              		.align	2
 139              	accelYf:
 140 0020 00000000 		.space	4
 141              		.global	accelZf
 142              		.align	2
 145              	accelZf:
 146 0024 00000000 		.space	4
 147              		.global	gyroX
 148              		.align	1
 151              	gyroX:
 152 0028 0000     		.space	2
 153              		.global	gyroY
 154              		.align	1
 157              	gyroY:
 158 002a 0000     		.space	2
 159              		.global	gyroZ
 160              		.align	1
 163              	gyroZ:
 164 002c 0000     		.space	2
 165              		.global	gyroXf
 166 002e 0000     		.align	2
 169              	gyroXf:
 170 0030 00000000 		.space	4
 171              		.global	gyroYf
 172              		.align	2
 175              	gyroYf:
 176 0034 00000000 		.space	4
 177              		.global	gyroZf
 178              		.align	2
 181              	gyroZf:
 182 0038 00000000 		.space	4
 183              		.global	magnetX
 184              		.align	1
 187              	magnetX:
 188 003c 0000     		.space	2
 189              		.global	magnetY
 190              		.align	1
 193              	magnetY:
 194 003e 0000     		.space	2
 195              		.global	magnetZ
 196              		.align	1
 199              	magnetZ:
 200 0040 0000     		.space	2
 201              		.global	magnetXf
 202 0042 0000     		.align	2
 205              	magnetXf:
 206 0044 00000000 		.space	4
 207              		.global	magnetYf
 208              		.align	2
 211              	magnetYf:
 212 0048 00000000 		.space	4
 213              		.global	magnetZf
 214              		.align	2
 217              	magnetZf:
 218 004c 00000000 		.space	4
 219              		.global	copied
 222              	copied:
 223 0050 00       		.space	1
 224              		.global	DataReceive1
 225 0051 00       		.align	1
 228              	DataReceive1:
 229 0052 0000     		.space	2
 230              		.global	received
 233              	received:
 234 0054 00       		.space	1
 235              		.section	.text.getAccelXf,"ax",%progbits
 236              		.align	2
 237              		.global	getAccelXf
 238              		.thumb
 239              		.thumb_func
 241              	getAccelXf:
 242              	.LFB117:
 243              		.file 1 "../LSM9DS1_Driver.c"
   1:../LSM9DS1_Driver.c **** /*
   2:../LSM9DS1_Driver.c ****  * LSM9DS1_Driver.c
   3:../LSM9DS1_Driver.c ****  *
   4:../LSM9DS1_Driver.c ****  *  Created on: 12-02-2016
   5:../LSM9DS1_Driver.c ****  *      Author: Mateusz
   6:../LSM9DS1_Driver.c ****  */
   7:../LSM9DS1_Driver.c **** #include "LSM9DS1_Driver.h"
   8:../LSM9DS1_Driver.c **** #include "LSM9DS1_Registers.h"
   9:../LSM9DS1_Driver.c **** #include "LSM9DS1_Types.h"
  10:../LSM9DS1_Driver.c **** #include "FIFO_functions.h"
  11:../LSM9DS1_Driver.c **** #include "TSL2561.h"
  12:../LSM9DS1_Driver.c **** 
  13:../LSM9DS1_Driver.c **** #include <stdint.h>
  14:../LSM9DS1_Driver.c **** #include <inttypes.h>
  15:../LSM9DS1_Driver.c **** #include <math.h>
  16:../LSM9DS1_Driver.c **** #include <stdlib.h>
  17:../LSM9DS1_Driver.c **** #include <string.h>
  18:../LSM9DS1_Driver.c **** 
  19:../LSM9DS1_Driver.c **** //#define DELAY 10000
  20:../LSM9DS1_Driver.c **** #define DELAY 1200
  21:../LSM9DS1_Driver.c **** #define READING_DELAY 60
  22:../LSM9DS1_Driver.c **** 
  23:../LSM9DS1_Driver.c **** #define LSM9DS1_M	0x1E // Would be 0x1C if SDO_M is LOW
  24:../LSM9DS1_Driver.c **** #define LSM9DS1_AG	0x6B // Would be 0x6A if SDO_AG is LOW
  25:../LSM9DS1_Driver.c **** 
  26:../LSM9DS1_Driver.c **** char accelOsX[100];
  27:../LSM9DS1_Driver.c **** char accelOsY[100];
  28:../LSM9DS1_Driver.c **** char accelOsZ[100];
  29:../LSM9DS1_Driver.c **** 
  30:../LSM9DS1_Driver.c **** #define TRUE 1
  31:../LSM9DS1_Driver.c **** #define FALSE 0
  32:../LSM9DS1_Driver.c **** 
  33:../LSM9DS1_Driver.c **** handle_t TimerIdReadMeasurements = 0;
  34:../LSM9DS1_Driver.c **** uint32_t StatusTimerReadMeasurements = SYSTM001_ERROR;
  35:../LSM9DS1_Driver.c **** 
  36:../LSM9DS1_Driver.c **** volatile bool readingAllowed = TRUE;
  37:../LSM9DS1_Driver.c **** 
  38:../LSM9DS1_Driver.c **** accel pomiaryAccel[100];
  39:../LSM9DS1_Driver.c **** extern accel copiedData[100];
  40:../LSM9DS1_Driver.c **** //accel pomiaryAccel1[100];
  41:../LSM9DS1_Driver.c **** 
  42:../LSM9DS1_Driver.c **** addressAndData adrAndData;
  43:../LSM9DS1_Driver.c **** 
  44:../LSM9DS1_Driver.c **** //tools for sending MSG
  45:../LSM9DS1_Driver.c **** static bool sendMsgTimerExpired = FALSE;
  46:../LSM9DS1_Driver.c **** handle_t TimerIDSendMsg = 0;
  47:../LSM9DS1_Driver.c **** uint32_t statusTimerSendMsg = SYSTM001_ERROR;
  48:../LSM9DS1_Driver.c **** bool sendingInProgress = FALSE;
  49:../LSM9DS1_Driver.c **** //tools for sending MSG
  50:../LSM9DS1_Driver.c **** 
  51:../LSM9DS1_Driver.c **** int counter = 0;
  52:../LSM9DS1_Driver.c **** 
  53:../LSM9DS1_Driver.c **** float magSensitivity[4] = {0.00014, 0.00029, 0.00043, 0.00058};
  54:../LSM9DS1_Driver.c **** 
  55:../LSM9DS1_Driver.c **** //linear acceleration all axes
  56:../LSM9DS1_Driver.c **** int16_t accelX = 0;
  57:../LSM9DS1_Driver.c **** int16_t accelY = 0;
  58:../LSM9DS1_Driver.c **** int16_t accelZ = 0;
  59:../LSM9DS1_Driver.c **** 
  60:../LSM9DS1_Driver.c **** float accelXf = 0;
  61:../LSM9DS1_Driver.c **** float accelYf = 0;
  62:../LSM9DS1_Driver.c **** float accelZf = 0;
  63:../LSM9DS1_Driver.c **** //linear acceleration all axes
  64:../LSM9DS1_Driver.c **** 
  65:../LSM9DS1_Driver.c **** //gyroscope all axes
  66:../LSM9DS1_Driver.c **** int16_t gyroX = 0;
  67:../LSM9DS1_Driver.c **** int16_t gyroY = 0;
  68:../LSM9DS1_Driver.c **** int16_t gyroZ = 0;
  69:../LSM9DS1_Driver.c **** 
  70:../LSM9DS1_Driver.c **** float gyroXf = 0;
  71:../LSM9DS1_Driver.c **** float gyroYf = 0;
  72:../LSM9DS1_Driver.c **** float gyroZf = 0;
  73:../LSM9DS1_Driver.c **** 
  74:../LSM9DS1_Driver.c **** //gyroscope all axes
  75:../LSM9DS1_Driver.c **** 
  76:../LSM9DS1_Driver.c **** //magnetometer all axes
  77:../LSM9DS1_Driver.c **** int16_t magnetX = 0;
  78:../LSM9DS1_Driver.c **** int16_t magnetY = 0;
  79:../LSM9DS1_Driver.c **** int16_t magnetZ = 0;
  80:../LSM9DS1_Driver.c **** 
  81:../LSM9DS1_Driver.c **** float magnetXf = 0;
  82:../LSM9DS1_Driver.c **** float magnetYf = 0;
  83:../LSM9DS1_Driver.c **** float magnetZf = 0;
  84:../LSM9DS1_Driver.c **** //magnetometer all axes
  85:../LSM9DS1_Driver.c **** 
  86:../LSM9DS1_Driver.c **** 
  87:../LSM9DS1_Driver.c **** extern char copied = 0;
  88:../LSM9DS1_Driver.c **** 
  89:../LSM9DS1_Driver.c **** uint16_t DataReceive1 = 0;
  90:../LSM9DS1_Driver.c **** uint8_t received = 0;
  91:../LSM9DS1_Driver.c **** 
  92:../LSM9DS1_Driver.c **** float getAccelXf(void)
  93:../LSM9DS1_Driver.c **** {
 244              		.loc 1 93 0
 245              		.cfi_startproc
 246              		@ args = 0, pretend = 0, frame = 0
 247              		@ frame_needed = 1, uses_anonymous_args = 0
 248              		@ link register save eliminated.
 249 0000 80B4     		push	{r7}
 250              	.LCFI0:
 251              		.cfi_def_cfa_offset 4
 252              		.cfi_offset 7, -4
 253 0002 00AF     		add	r7, sp, #0
 254              	.LCFI1:
 255              		.cfi_def_cfa_register 7
  94:../LSM9DS1_Driver.c **** 	return accelXf;
 256              		.loc 1 94 0
 257 0004 40F20003 		movw	r3, #:lower16:accelXf
 258 0008 C0F20003 		movt	r3, #:upper16:accelXf
 259 000c 1B68     		ldr	r3, [r3, #0]	@ float
  95:../LSM9DS1_Driver.c **** }
 260              		.loc 1 95 0
 261 000e 1846     		mov	r0, r3	@ float
 262 0010 BD46     		mov	sp, r7
 263 0012 80BC     		pop	{r7}
 264 0014 7047     		bx	lr
 265              		.cfi_endproc
 266              	.LFE117:
 268 0016 00BF     		.section	.text.getAccelX,"ax",%progbits
 269              		.align	2
 270              		.global	getAccelX
 271              		.thumb
 272              		.thumb_func
 274              	getAccelX:
 275              	.LFB118:
  96:../LSM9DS1_Driver.c **** 
  97:../LSM9DS1_Driver.c **** int16_t getAccelX(void)
  98:../LSM9DS1_Driver.c **** {
 276              		.loc 1 98 0
 277              		.cfi_startproc
 278              		@ args = 0, pretend = 0, frame = 0
 279              		@ frame_needed = 1, uses_anonymous_args = 0
 280              		@ link register save eliminated.
 281 0000 80B4     		push	{r7}
 282              	.LCFI2:
 283              		.cfi_def_cfa_offset 4
 284              		.cfi_offset 7, -4
 285 0002 00AF     		add	r7, sp, #0
 286              	.LCFI3:
 287              		.cfi_def_cfa_register 7
  99:../LSM9DS1_Driver.c **** 	return accelX;
 288              		.loc 1 99 0
 289 0004 40F20003 		movw	r3, #:lower16:accelX
 290 0008 C0F20003 		movt	r3, #:upper16:accelX
 291 000c 1B88     		ldrh	r3, [r3, #0]
 292 000e 1BB2     		sxth	r3, r3
 100:../LSM9DS1_Driver.c **** }
 293              		.loc 1 100 0
 294 0010 1846     		mov	r0, r3
 295 0012 BD46     		mov	sp, r7
 296 0014 80BC     		pop	{r7}
 297 0016 7047     		bx	lr
 298              		.cfi_endproc
 299              	.LFE118:
 301              		.section	.text.getAccelYf,"ax",%progbits
 302              		.align	2
 303              		.global	getAccelYf
 304              		.thumb
 305              		.thumb_func
 307              	getAccelYf:
 308              	.LFB119:
 101:../LSM9DS1_Driver.c **** 
 102:../LSM9DS1_Driver.c **** float getAccelYf(void)
 103:../LSM9DS1_Driver.c **** {
 309              		.loc 1 103 0
 310              		.cfi_startproc
 311              		@ args = 0, pretend = 0, frame = 0
 312              		@ frame_needed = 1, uses_anonymous_args = 0
 313              		@ link register save eliminated.
 314 0000 80B4     		push	{r7}
 315              	.LCFI4:
 316              		.cfi_def_cfa_offset 4
 317              		.cfi_offset 7, -4
 318 0002 00AF     		add	r7, sp, #0
 319              	.LCFI5:
 320              		.cfi_def_cfa_register 7
 104:../LSM9DS1_Driver.c **** 	return accelYf;
 321              		.loc 1 104 0
 322 0004 40F20003 		movw	r3, #:lower16:accelYf
 323 0008 C0F20003 		movt	r3, #:upper16:accelYf
 324 000c 1B68     		ldr	r3, [r3, #0]	@ float
 105:../LSM9DS1_Driver.c **** }
 325              		.loc 1 105 0
 326 000e 1846     		mov	r0, r3	@ float
 327 0010 BD46     		mov	sp, r7
 328 0012 80BC     		pop	{r7}
 329 0014 7047     		bx	lr
 330              		.cfi_endproc
 331              	.LFE119:
 333 0016 00BF     		.section	.text.getAccelY,"ax",%progbits
 334              		.align	2
 335              		.global	getAccelY
 336              		.thumb
 337              		.thumb_func
 339              	getAccelY:
 340              	.LFB120:
 106:../LSM9DS1_Driver.c **** 
 107:../LSM9DS1_Driver.c **** int16_t getAccelY(void)
 108:../LSM9DS1_Driver.c **** {
 341              		.loc 1 108 0
 342              		.cfi_startproc
 343              		@ args = 0, pretend = 0, frame = 0
 344              		@ frame_needed = 1, uses_anonymous_args = 0
 345              		@ link register save eliminated.
 346 0000 80B4     		push	{r7}
 347              	.LCFI6:
 348              		.cfi_def_cfa_offset 4
 349              		.cfi_offset 7, -4
 350 0002 00AF     		add	r7, sp, #0
 351              	.LCFI7:
 352              		.cfi_def_cfa_register 7
 109:../LSM9DS1_Driver.c **** 	return accelY;
 353              		.loc 1 109 0
 354 0004 40F20003 		movw	r3, #:lower16:accelY
 355 0008 C0F20003 		movt	r3, #:upper16:accelY
 356 000c 1B88     		ldrh	r3, [r3, #0]
 357 000e 1BB2     		sxth	r3, r3
 110:../LSM9DS1_Driver.c **** }
 358              		.loc 1 110 0
 359 0010 1846     		mov	r0, r3
 360 0012 BD46     		mov	sp, r7
 361 0014 80BC     		pop	{r7}
 362 0016 7047     		bx	lr
 363              		.cfi_endproc
 364              	.LFE120:
 366              		.section	.text.getAccelZf,"ax",%progbits
 367              		.align	2
 368              		.global	getAccelZf
 369              		.thumb
 370              		.thumb_func
 372              	getAccelZf:
 373              	.LFB121:
 111:../LSM9DS1_Driver.c **** 
 112:../LSM9DS1_Driver.c **** float getAccelZf(void)
 113:../LSM9DS1_Driver.c **** {
 374              		.loc 1 113 0
 375              		.cfi_startproc
 376              		@ args = 0, pretend = 0, frame = 0
 377              		@ frame_needed = 1, uses_anonymous_args = 0
 378              		@ link register save eliminated.
 379 0000 80B4     		push	{r7}
 380              	.LCFI8:
 381              		.cfi_def_cfa_offset 4
 382              		.cfi_offset 7, -4
 383 0002 00AF     		add	r7, sp, #0
 384              	.LCFI9:
 385              		.cfi_def_cfa_register 7
 114:../LSM9DS1_Driver.c **** 	return accelZf;
 386              		.loc 1 114 0
 387 0004 40F20003 		movw	r3, #:lower16:accelZf
 388 0008 C0F20003 		movt	r3, #:upper16:accelZf
 389 000c 1B68     		ldr	r3, [r3, #0]	@ float
 115:../LSM9DS1_Driver.c **** }
 390              		.loc 1 115 0
 391 000e 1846     		mov	r0, r3	@ float
 392 0010 BD46     		mov	sp, r7
 393 0012 80BC     		pop	{r7}
 394 0014 7047     		bx	lr
 395              		.cfi_endproc
 396              	.LFE121:
 398 0016 00BF     		.section	.text.getAccelZ,"ax",%progbits
 399              		.align	2
 400              		.global	getAccelZ
 401              		.thumb
 402              		.thumb_func
 404              	getAccelZ:
 405              	.LFB122:
 116:../LSM9DS1_Driver.c **** 
 117:../LSM9DS1_Driver.c **** int16_t getAccelZ(void)
 118:../LSM9DS1_Driver.c **** {
 406              		.loc 1 118 0
 407              		.cfi_startproc
 408              		@ args = 0, pretend = 0, frame = 0
 409              		@ frame_needed = 1, uses_anonymous_args = 0
 410              		@ link register save eliminated.
 411 0000 80B4     		push	{r7}
 412              	.LCFI10:
 413              		.cfi_def_cfa_offset 4
 414              		.cfi_offset 7, -4
 415 0002 00AF     		add	r7, sp, #0
 416              	.LCFI11:
 417              		.cfi_def_cfa_register 7
 119:../LSM9DS1_Driver.c **** 	return accelZ;
 418              		.loc 1 119 0
 419 0004 40F20003 		movw	r3, #:lower16:accelZ
 420 0008 C0F20003 		movt	r3, #:upper16:accelZ
 421 000c 1B88     		ldrh	r3, [r3, #0]
 422 000e 1BB2     		sxth	r3, r3
 120:../LSM9DS1_Driver.c **** }
 423              		.loc 1 120 0
 424 0010 1846     		mov	r0, r3
 425 0012 BD46     		mov	sp, r7
 426 0014 80BC     		pop	{r7}
 427 0016 7047     		bx	lr
 428              		.cfi_endproc
 429              	.LFE122:
 431              		.section	.text.getGyroXf,"ax",%progbits
 432              		.align	2
 433              		.global	getGyroXf
 434              		.thumb
 435              		.thumb_func
 437              	getGyroXf:
 438              	.LFB123:
 121:../LSM9DS1_Driver.c **** 
 122:../LSM9DS1_Driver.c **** float getGyroXf(void)
 123:../LSM9DS1_Driver.c **** {
 439              		.loc 1 123 0
 440              		.cfi_startproc
 441              		@ args = 0, pretend = 0, frame = 0
 442              		@ frame_needed = 1, uses_anonymous_args = 0
 443              		@ link register save eliminated.
 444 0000 80B4     		push	{r7}
 445              	.LCFI12:
 446              		.cfi_def_cfa_offset 4
 447              		.cfi_offset 7, -4
 448 0002 00AF     		add	r7, sp, #0
 449              	.LCFI13:
 450              		.cfi_def_cfa_register 7
 124:../LSM9DS1_Driver.c **** 	return gyroXf;
 451              		.loc 1 124 0
 452 0004 40F20003 		movw	r3, #:lower16:gyroXf
 453 0008 C0F20003 		movt	r3, #:upper16:gyroXf
 454 000c 1B68     		ldr	r3, [r3, #0]	@ float
 125:../LSM9DS1_Driver.c **** }
 455              		.loc 1 125 0
 456 000e 1846     		mov	r0, r3	@ float
 457 0010 BD46     		mov	sp, r7
 458 0012 80BC     		pop	{r7}
 459 0014 7047     		bx	lr
 460              		.cfi_endproc
 461              	.LFE123:
 463 0016 00BF     		.section	.text.getGyroX,"ax",%progbits
 464              		.align	2
 465              		.global	getGyroX
 466              		.thumb
 467              		.thumb_func
 469              	getGyroX:
 470              	.LFB124:
 126:../LSM9DS1_Driver.c **** 
 127:../LSM9DS1_Driver.c **** int16_t getGyroX(void)
 128:../LSM9DS1_Driver.c **** {
 471              		.loc 1 128 0
 472              		.cfi_startproc
 473              		@ args = 0, pretend = 0, frame = 0
 474              		@ frame_needed = 1, uses_anonymous_args = 0
 475              		@ link register save eliminated.
 476 0000 80B4     		push	{r7}
 477              	.LCFI14:
 478              		.cfi_def_cfa_offset 4
 479              		.cfi_offset 7, -4
 480 0002 00AF     		add	r7, sp, #0
 481              	.LCFI15:
 482              		.cfi_def_cfa_register 7
 129:../LSM9DS1_Driver.c **** 	return gyroX;
 483              		.loc 1 129 0
 484 0004 40F20003 		movw	r3, #:lower16:gyroX
 485 0008 C0F20003 		movt	r3, #:upper16:gyroX
 486 000c 1B88     		ldrh	r3, [r3, #0]
 487 000e 1BB2     		sxth	r3, r3
 130:../LSM9DS1_Driver.c **** }
 488              		.loc 1 130 0
 489 0010 1846     		mov	r0, r3
 490 0012 BD46     		mov	sp, r7
 491 0014 80BC     		pop	{r7}
 492 0016 7047     		bx	lr
 493              		.cfi_endproc
 494              	.LFE124:
 496              		.section	.text.getGyroYf,"ax",%progbits
 497              		.align	2
 498              		.global	getGyroYf
 499              		.thumb
 500              		.thumb_func
 502              	getGyroYf:
 503              	.LFB125:
 131:../LSM9DS1_Driver.c **** 
 132:../LSM9DS1_Driver.c **** float getGyroYf(void)
 133:../LSM9DS1_Driver.c **** {
 504              		.loc 1 133 0
 505              		.cfi_startproc
 506              		@ args = 0, pretend = 0, frame = 0
 507              		@ frame_needed = 1, uses_anonymous_args = 0
 508              		@ link register save eliminated.
 509 0000 80B4     		push	{r7}
 510              	.LCFI16:
 511              		.cfi_def_cfa_offset 4
 512              		.cfi_offset 7, -4
 513 0002 00AF     		add	r7, sp, #0
 514              	.LCFI17:
 515              		.cfi_def_cfa_register 7
 134:../LSM9DS1_Driver.c **** 	return gyroYf;
 516              		.loc 1 134 0
 517 0004 40F20003 		movw	r3, #:lower16:gyroYf
 518 0008 C0F20003 		movt	r3, #:upper16:gyroYf
 519 000c 1B68     		ldr	r3, [r3, #0]	@ float
 135:../LSM9DS1_Driver.c **** }
 520              		.loc 1 135 0
 521 000e 1846     		mov	r0, r3	@ float
 522 0010 BD46     		mov	sp, r7
 523 0012 80BC     		pop	{r7}
 524 0014 7047     		bx	lr
 525              		.cfi_endproc
 526              	.LFE125:
 528 0016 00BF     		.section	.text.getGyroY,"ax",%progbits
 529              		.align	2
 530              		.global	getGyroY
 531              		.thumb
 532              		.thumb_func
 534              	getGyroY:
 535              	.LFB126:
 136:../LSM9DS1_Driver.c **** 
 137:../LSM9DS1_Driver.c **** int16_t getGyroY(void)
 138:../LSM9DS1_Driver.c **** {
 536              		.loc 1 138 0
 537              		.cfi_startproc
 538              		@ args = 0, pretend = 0, frame = 0
 539              		@ frame_needed = 1, uses_anonymous_args = 0
 540              		@ link register save eliminated.
 541 0000 80B4     		push	{r7}
 542              	.LCFI18:
 543              		.cfi_def_cfa_offset 4
 544              		.cfi_offset 7, -4
 545 0002 00AF     		add	r7, sp, #0
 546              	.LCFI19:
 547              		.cfi_def_cfa_register 7
 139:../LSM9DS1_Driver.c **** 	return gyroY;
 548              		.loc 1 139 0
 549 0004 40F20003 		movw	r3, #:lower16:gyroY
 550 0008 C0F20003 		movt	r3, #:upper16:gyroY
 551 000c 1B88     		ldrh	r3, [r3, #0]
 552 000e 1BB2     		sxth	r3, r3
 140:../LSM9DS1_Driver.c **** }
 553              		.loc 1 140 0
 554 0010 1846     		mov	r0, r3
 555 0012 BD46     		mov	sp, r7
 556 0014 80BC     		pop	{r7}
 557 0016 7047     		bx	lr
 558              		.cfi_endproc
 559              	.LFE126:
 561              		.section	.text.getGyroZf,"ax",%progbits
 562              		.align	2
 563              		.global	getGyroZf
 564              		.thumb
 565              		.thumb_func
 567              	getGyroZf:
 568              	.LFB127:
 141:../LSM9DS1_Driver.c **** 
 142:../LSM9DS1_Driver.c **** float getGyroZf(void)
 143:../LSM9DS1_Driver.c **** {
 569              		.loc 1 143 0
 570              		.cfi_startproc
 571              		@ args = 0, pretend = 0, frame = 0
 572              		@ frame_needed = 1, uses_anonymous_args = 0
 573              		@ link register save eliminated.
 574 0000 80B4     		push	{r7}
 575              	.LCFI20:
 576              		.cfi_def_cfa_offset 4
 577              		.cfi_offset 7, -4
 578 0002 00AF     		add	r7, sp, #0
 579              	.LCFI21:
 580              		.cfi_def_cfa_register 7
 144:../LSM9DS1_Driver.c **** 	return gyroZf;
 581              		.loc 1 144 0
 582 0004 40F20003 		movw	r3, #:lower16:gyroZf
 583 0008 C0F20003 		movt	r3, #:upper16:gyroZf
 584 000c 1B68     		ldr	r3, [r3, #0]	@ float
 145:../LSM9DS1_Driver.c **** }
 585              		.loc 1 145 0
 586 000e 1846     		mov	r0, r3	@ float
 587 0010 BD46     		mov	sp, r7
 588 0012 80BC     		pop	{r7}
 589 0014 7047     		bx	lr
 590              		.cfi_endproc
 591              	.LFE127:
 593 0016 00BF     		.section	.text.getGyroZ,"ax",%progbits
 594              		.align	2
 595              		.global	getGyroZ
 596              		.thumb
 597              		.thumb_func
 599              	getGyroZ:
 600              	.LFB128:
 146:../LSM9DS1_Driver.c **** 
 147:../LSM9DS1_Driver.c **** int16_t getGyroZ(void)
 148:../LSM9DS1_Driver.c **** {
 601              		.loc 1 148 0
 602              		.cfi_startproc
 603              		@ args = 0, pretend = 0, frame = 0
 604              		@ frame_needed = 1, uses_anonymous_args = 0
 605              		@ link register save eliminated.
 606 0000 80B4     		push	{r7}
 607              	.LCFI22:
 608              		.cfi_def_cfa_offset 4
 609              		.cfi_offset 7, -4
 610 0002 00AF     		add	r7, sp, #0
 611              	.LCFI23:
 612              		.cfi_def_cfa_register 7
 149:../LSM9DS1_Driver.c **** 	return gyroZ;
 613              		.loc 1 149 0
 614 0004 40F20003 		movw	r3, #:lower16:gyroZ
 615 0008 C0F20003 		movt	r3, #:upper16:gyroZ
 616 000c 1B88     		ldrh	r3, [r3, #0]
 617 000e 1BB2     		sxth	r3, r3
 150:../LSM9DS1_Driver.c **** }
 618              		.loc 1 150 0
 619 0010 1846     		mov	r0, r3
 620 0012 BD46     		mov	sp, r7
 621 0014 80BC     		pop	{r7}
 622 0016 7047     		bx	lr
 623              		.cfi_endproc
 624              	.LFE128:
 626              		.section	.text.getMagnetXf,"ax",%progbits
 627              		.align	2
 628              		.global	getMagnetXf
 629              		.thumb
 630              		.thumb_func
 632              	getMagnetXf:
 633              	.LFB129:
 151:../LSM9DS1_Driver.c **** 
 152:../LSM9DS1_Driver.c **** float getMagnetXf(void)
 153:../LSM9DS1_Driver.c **** {
 634              		.loc 1 153 0
 635              		.cfi_startproc
 636              		@ args = 0, pretend = 0, frame = 0
 637              		@ frame_needed = 1, uses_anonymous_args = 0
 638              		@ link register save eliminated.
 639 0000 80B4     		push	{r7}
 640              	.LCFI24:
 641              		.cfi_def_cfa_offset 4
 642              		.cfi_offset 7, -4
 643 0002 00AF     		add	r7, sp, #0
 644              	.LCFI25:
 645              		.cfi_def_cfa_register 7
 154:../LSM9DS1_Driver.c **** 	return magnetXf;
 646              		.loc 1 154 0
 647 0004 40F20003 		movw	r3, #:lower16:magnetXf
 648 0008 C0F20003 		movt	r3, #:upper16:magnetXf
 649 000c 1B68     		ldr	r3, [r3, #0]	@ float
 155:../LSM9DS1_Driver.c **** }
 650              		.loc 1 155 0
 651 000e 1846     		mov	r0, r3	@ float
 652 0010 BD46     		mov	sp, r7
 653 0012 80BC     		pop	{r7}
 654 0014 7047     		bx	lr
 655              		.cfi_endproc
 656              	.LFE129:
 658 0016 00BF     		.section	.text.getMagnetX,"ax",%progbits
 659              		.align	2
 660              		.global	getMagnetX
 661              		.thumb
 662              		.thumb_func
 664              	getMagnetX:
 665              	.LFB130:
 156:../LSM9DS1_Driver.c **** 
 157:../LSM9DS1_Driver.c **** int16_t getMagnetX(void)
 158:../LSM9DS1_Driver.c **** {
 666              		.loc 1 158 0
 667              		.cfi_startproc
 668              		@ args = 0, pretend = 0, frame = 0
 669              		@ frame_needed = 1, uses_anonymous_args = 0
 670              		@ link register save eliminated.
 671 0000 80B4     		push	{r7}
 672              	.LCFI26:
 673              		.cfi_def_cfa_offset 4
 674              		.cfi_offset 7, -4
 675 0002 00AF     		add	r7, sp, #0
 676              	.LCFI27:
 677              		.cfi_def_cfa_register 7
 159:../LSM9DS1_Driver.c **** 	return magnetX;
 678              		.loc 1 159 0
 679 0004 40F20003 		movw	r3, #:lower16:magnetX
 680 0008 C0F20003 		movt	r3, #:upper16:magnetX
 681 000c 1B88     		ldrh	r3, [r3, #0]
 682 000e 1BB2     		sxth	r3, r3
 160:../LSM9DS1_Driver.c **** }
 683              		.loc 1 160 0
 684 0010 1846     		mov	r0, r3
 685 0012 BD46     		mov	sp, r7
 686 0014 80BC     		pop	{r7}
 687 0016 7047     		bx	lr
 688              		.cfi_endproc
 689              	.LFE130:
 691              		.section	.text.getMagnetYf,"ax",%progbits
 692              		.align	2
 693              		.global	getMagnetYf
 694              		.thumb
 695              		.thumb_func
 697              	getMagnetYf:
 698              	.LFB131:
 161:../LSM9DS1_Driver.c **** 
 162:../LSM9DS1_Driver.c **** float getMagnetYf(void)
 163:../LSM9DS1_Driver.c **** {
 699              		.loc 1 163 0
 700              		.cfi_startproc
 701              		@ args = 0, pretend = 0, frame = 0
 702              		@ frame_needed = 1, uses_anonymous_args = 0
 703              		@ link register save eliminated.
 704 0000 80B4     		push	{r7}
 705              	.LCFI28:
 706              		.cfi_def_cfa_offset 4
 707              		.cfi_offset 7, -4
 708 0002 00AF     		add	r7, sp, #0
 709              	.LCFI29:
 710              		.cfi_def_cfa_register 7
 164:../LSM9DS1_Driver.c **** 	return magnetYf;
 711              		.loc 1 164 0
 712 0004 40F20003 		movw	r3, #:lower16:magnetYf
 713 0008 C0F20003 		movt	r3, #:upper16:magnetYf
 714 000c 1B68     		ldr	r3, [r3, #0]	@ float
 165:../LSM9DS1_Driver.c **** }
 715              		.loc 1 165 0
 716 000e 1846     		mov	r0, r3	@ float
 717 0010 BD46     		mov	sp, r7
 718 0012 80BC     		pop	{r7}
 719 0014 7047     		bx	lr
 720              		.cfi_endproc
 721              	.LFE131:
 723 0016 00BF     		.section	.text.getMagnetY,"ax",%progbits
 724              		.align	2
 725              		.global	getMagnetY
 726              		.thumb
 727              		.thumb_func
 729              	getMagnetY:
 730              	.LFB132:
 166:../LSM9DS1_Driver.c **** 
 167:../LSM9DS1_Driver.c **** int16_t getMagnetY(void)
 168:../LSM9DS1_Driver.c **** {
 731              		.loc 1 168 0
 732              		.cfi_startproc
 733              		@ args = 0, pretend = 0, frame = 0
 734              		@ frame_needed = 1, uses_anonymous_args = 0
 735              		@ link register save eliminated.
 736 0000 80B4     		push	{r7}
 737              	.LCFI30:
 738              		.cfi_def_cfa_offset 4
 739              		.cfi_offset 7, -4
 740 0002 00AF     		add	r7, sp, #0
 741              	.LCFI31:
 742              		.cfi_def_cfa_register 7
 169:../LSM9DS1_Driver.c **** 	return magnetY;
 743              		.loc 1 169 0
 744 0004 40F20003 		movw	r3, #:lower16:magnetY
 745 0008 C0F20003 		movt	r3, #:upper16:magnetY
 746 000c 1B88     		ldrh	r3, [r3, #0]
 747 000e 1BB2     		sxth	r3, r3
 170:../LSM9DS1_Driver.c **** }
 748              		.loc 1 170 0
 749 0010 1846     		mov	r0, r3
 750 0012 BD46     		mov	sp, r7
 751 0014 80BC     		pop	{r7}
 752 0016 7047     		bx	lr
 753              		.cfi_endproc
 754              	.LFE132:
 756              		.section	.text.getMagnetZf,"ax",%progbits
 757              		.align	2
 758              		.global	getMagnetZf
 759              		.thumb
 760              		.thumb_func
 762              	getMagnetZf:
 763              	.LFB133:
 171:../LSM9DS1_Driver.c **** 
 172:../LSM9DS1_Driver.c **** float getMagnetZf(void)
 173:../LSM9DS1_Driver.c **** {
 764              		.loc 1 173 0
 765              		.cfi_startproc
 766              		@ args = 0, pretend = 0, frame = 0
 767              		@ frame_needed = 1, uses_anonymous_args = 0
 768              		@ link register save eliminated.
 769 0000 80B4     		push	{r7}
 770              	.LCFI32:
 771              		.cfi_def_cfa_offset 4
 772              		.cfi_offset 7, -4
 773 0002 00AF     		add	r7, sp, #0
 774              	.LCFI33:
 775              		.cfi_def_cfa_register 7
 174:../LSM9DS1_Driver.c **** 	return magnetZf;
 776              		.loc 1 174 0
 777 0004 40F20003 		movw	r3, #:lower16:magnetZf
 778 0008 C0F20003 		movt	r3, #:upper16:magnetZf
 779 000c 1B68     		ldr	r3, [r3, #0]	@ float
 175:../LSM9DS1_Driver.c **** }
 780              		.loc 1 175 0
 781 000e 1846     		mov	r0, r3	@ float
 782 0010 BD46     		mov	sp, r7
 783 0012 80BC     		pop	{r7}
 784 0014 7047     		bx	lr
 785              		.cfi_endproc
 786              	.LFE133:
 788 0016 00BF     		.section	.text.getMagnetZ,"ax",%progbits
 789              		.align	2
 790              		.global	getMagnetZ
 791              		.thumb
 792              		.thumb_func
 794              	getMagnetZ:
 795              	.LFB134:
 176:../LSM9DS1_Driver.c **** 
 177:../LSM9DS1_Driver.c **** int16_t getMagnetZ(void)
 178:../LSM9DS1_Driver.c **** {
 796              		.loc 1 178 0
 797              		.cfi_startproc
 798              		@ args = 0, pretend = 0, frame = 0
 799              		@ frame_needed = 1, uses_anonymous_args = 0
 800              		@ link register save eliminated.
 801 0000 80B4     		push	{r7}
 802              	.LCFI34:
 803              		.cfi_def_cfa_offset 4
 804              		.cfi_offset 7, -4
 805 0002 00AF     		add	r7, sp, #0
 806              	.LCFI35:
 807              		.cfi_def_cfa_register 7
 179:../LSM9DS1_Driver.c **** 	return magnetZ;
 808              		.loc 1 179 0
 809 0004 40F20003 		movw	r3, #:lower16:magnetZ
 810 0008 C0F20003 		movt	r3, #:upper16:magnetZ
 811 000c 1B88     		ldrh	r3, [r3, #0]
 812 000e 1BB2     		sxth	r3, r3
 180:../LSM9DS1_Driver.c **** }
 813              		.loc 1 180 0
 814 0010 1846     		mov	r0, r3
 815 0012 BD46     		mov	sp, r7
 816 0014 80BC     		pop	{r7}
 817 0016 7047     		bx	lr
 818              		.cfi_endproc
 819              	.LFE134:
 821              		.section	.text.startMeasurements,"ax",%progbits
 822              		.align	2
 823              		.global	startMeasurements
 824              		.thumb
 825              		.thumb_func
 827              	startMeasurements:
 828              	.LFB135:
 181:../LSM9DS1_Driver.c **** 
 182:../LSM9DS1_Driver.c **** void startMeasurements(void)
 183:../LSM9DS1_Driver.c **** {
 829              		.loc 1 183 0
 830              		.cfi_startproc
 831              		@ args = 0, pretend = 0, frame = 0
 832              		@ frame_needed = 1, uses_anonymous_args = 0
 833 0000 80B5     		push	{r7, lr}
 834              	.LCFI36:
 835              		.cfi_def_cfa_offset 8
 836              		.cfi_offset 7, -8
 837              		.cfi_offset 14, -4
 838 0002 00AF     		add	r7, sp, #0
 839              	.LCFI37:
 840              		.cfi_def_cfa_register 7
 184:../LSM9DS1_Driver.c **** 	TimerIdReadMeasurements=SYSTM001_CreateTimer(READING_DELAY,SYSTM001_PERIODIC,timerHandlerReceiveOn
 841              		.loc 1 184 0
 842 0004 4FF03C00 		mov	r0, #60
 843 0008 4FF00101 		mov	r1, #1
 844 000c 40F20002 		movw	r2, #:lower16:timerHandlerReceiveOneMeasurementEachSensor
 845 0010 C0F20002 		movt	r2, #:upper16:timerHandlerReceiveOneMeasurementEachSensor
 846 0014 40F20003 		movw	r3, #:lower16:adrAndData
 847 0018 C0F20003 		movt	r3, #:upper16:adrAndData
 848 001c FFF7FEFF 		bl	SYSTM001_CreateTimer
 849 0020 0246     		mov	r2, r0
 850 0022 40F20003 		movw	r3, #:lower16:TimerIdReadMeasurements
 851 0026 C0F20003 		movt	r3, #:upper16:TimerIdReadMeasurements
 852 002a 1A60     		str	r2, [r3, #0]
 185:../LSM9DS1_Driver.c **** 	SYSTM001_StartTimer(TimerIdReadMeasurements);
 853              		.loc 1 185 0
 854 002c 40F20003 		movw	r3, #:lower16:TimerIdReadMeasurements
 855 0030 C0F20003 		movt	r3, #:upper16:TimerIdReadMeasurements
 856 0034 1B68     		ldr	r3, [r3, #0]
 857 0036 1846     		mov	r0, r3
 858 0038 FFF7FEFF 		bl	SYSTM001_StartTimer
 186:../LSM9DS1_Driver.c **** }
 859              		.loc 1 186 0
 860 003c 80BD     		pop	{r7, pc}
 861              		.cfi_endproc
 862              	.LFE135:
 864 003e 00BF     		.section	.text.startMeasurements1,"ax",%progbits
 865              		.align	2
 866              		.global	startMeasurements1
 867              		.thumb
 868              		.thumb_func
 870              	startMeasurements1:
 871              	.LFB136:
 187:../LSM9DS1_Driver.c **** 
 188:../LSM9DS1_Driver.c **** void startMeasurements1(void)
 189:../LSM9DS1_Driver.c **** {
 872              		.loc 1 189 0
 873              		.cfi_startproc
 874              		@ args = 0, pretend = 0, frame = 0
 875              		@ frame_needed = 1, uses_anonymous_args = 0
 876 0000 80B5     		push	{r7, lr}
 877              	.LCFI38:
 878              		.cfi_def_cfa_offset 8
 879              		.cfi_offset 7, -8
 880              		.cfi_offset 14, -4
 881 0002 00AF     		add	r7, sp, #0
 882              	.LCFI39:
 883              		.cfi_def_cfa_register 7
 190:../LSM9DS1_Driver.c **** 	TimerIdReadMeasurements=SYSTM001_CreateTimer(READING_DELAY,SYSTM001_PERIODIC,timerHandlerReceiveOn
 884              		.loc 1 190 0
 885 0004 4FF03C00 		mov	r0, #60
 886 0008 4FF00101 		mov	r1, #1
 887 000c 40F20002 		movw	r2, #:lower16:timerHandlerReceiveOneMeasurementEachSensor1
 888 0010 C0F20002 		movt	r2, #:upper16:timerHandlerReceiveOneMeasurementEachSensor1
 889 0014 40F20003 		movw	r3, #:lower16:adrAndData
 890 0018 C0F20003 		movt	r3, #:upper16:adrAndData
 891 001c FFF7FEFF 		bl	SYSTM001_CreateTimer
 892 0020 0246     		mov	r2, r0
 893 0022 40F20003 		movw	r3, #:lower16:TimerIdReadMeasurements
 894 0026 C0F20003 		movt	r3, #:upper16:TimerIdReadMeasurements
 895 002a 1A60     		str	r2, [r3, #0]
 191:../LSM9DS1_Driver.c **** 	SYSTM001_StartTimer(TimerIdReadMeasurements);
 896              		.loc 1 191 0
 897 002c 40F20003 		movw	r3, #:lower16:TimerIdReadMeasurements
 898 0030 C0F20003 		movt	r3, #:upper16:TimerIdReadMeasurements
 899 0034 1B68     		ldr	r3, [r3, #0]
 900 0036 1846     		mov	r0, r3
 901 0038 FFF7FEFF 		bl	SYSTM001_StartTimer
 192:../LSM9DS1_Driver.c **** }
 902              		.loc 1 192 0
 903 003c 80BD     		pop	{r7, pc}
 904              		.cfi_endproc
 905              	.LFE136:
 907 003e 00BF     		.section	.text.resetMeasurements,"ax",%progbits
 908              		.align	2
 909              		.global	resetMeasurements
 910              		.thumb
 911              		.thumb_func
 913              	resetMeasurements:
 914              	.LFB137:
 193:../LSM9DS1_Driver.c **** 
 194:../LSM9DS1_Driver.c **** void resetMeasurements(void)
 195:../LSM9DS1_Driver.c **** {
 915              		.loc 1 195 0
 916              		.cfi_startproc
 917              		@ args = 0, pretend = 0, frame = 0
 918              		@ frame_needed = 1, uses_anonymous_args = 0
 919 0000 80B5     		push	{r7, lr}
 920              	.LCFI40:
 921              		.cfi_def_cfa_offset 8
 922              		.cfi_offset 7, -8
 923              		.cfi_offset 14, -4
 924 0002 00AF     		add	r7, sp, #0
 925              	.LCFI41:
 926              		.cfi_def_cfa_register 7
 196:../LSM9DS1_Driver.c **** 	SYSTM001_StopTimer(TimerIdReadMeasurements);
 927              		.loc 1 196 0
 928 0004 40F20003 		movw	r3, #:lower16:TimerIdReadMeasurements
 929 0008 C0F20003 		movt	r3, #:upper16:TimerIdReadMeasurements
 930 000c 1B68     		ldr	r3, [r3, #0]
 931 000e 1846     		mov	r0, r3
 932 0010 FFF7FEFF 		bl	SYSTM001_StopTimer
 197:../LSM9DS1_Driver.c **** 
 198:../LSM9DS1_Driver.c **** 	SYSTM001_DeleteTimer(TimerIdReadMeasurements);
 933              		.loc 1 198 0
 934 0014 40F20003 		movw	r3, #:lower16:TimerIdReadMeasurements
 935 0018 C0F20003 		movt	r3, #:upper16:TimerIdReadMeasurements
 936 001c 1B68     		ldr	r3, [r3, #0]
 937 001e 1846     		mov	r0, r3
 938 0020 FFF7FEFF 		bl	SYSTM001_DeleteTimer
 199:../LSM9DS1_Driver.c **** }
 939              		.loc 1 199 0
 940 0024 80BD     		pop	{r7, pc}
 941              		.cfi_endproc
 942              	.LFE137:
 944 0026 00BF     		.section	.text.readAndSendMeasurements,"ax",%progbits
 945              		.align	2
 946              		.global	readAndSendMeasurements
 947              		.thumb
 948              		.thumb_func
 950              	readAndSendMeasurements:
 951              	.LFB138:
 200:../LSM9DS1_Driver.c **** 
 201:../LSM9DS1_Driver.c **** 
 202:../LSM9DS1_Driver.c **** 
 203:../LSM9DS1_Driver.c **** void readAndSendMeasurements(void (*sendFunction)(char *str, int len))
 204:../LSM9DS1_Driver.c **** {
 952              		.loc 1 204 0
 953              		.cfi_startproc
 954              		@ args = 0, pretend = 0, frame = 16
 955              		@ frame_needed = 1, uses_anonymous_args = 0
 956 0000 80B5     		push	{r7, lr}
 957              	.LCFI42:
 958              		.cfi_def_cfa_offset 8
 959              		.cfi_offset 7, -8
 960              		.cfi_offset 14, -4
 961 0002 84B0     		sub	sp, sp, #16
 962              	.LCFI43:
 963              		.cfi_def_cfa_offset 24
 964 0004 00AF     		add	r7, sp, #0
 965              	.LCFI44:
 966              		.cfi_def_cfa_register 7
 967 0006 7860     		str	r0, [r7, #4]
 205:../LSM9DS1_Driver.c **** 	if(!readingAllowed && (counter < 1))
 968              		.loc 1 205 0
 969 0008 40F20003 		movw	r3, #:lower16:readingAllowed
 970 000c C0F20003 		movt	r3, #:upper16:readingAllowed
 971 0010 1B78     		ldrb	r3, [r3, #0]
 972 0012 DBB2     		uxtb	r3, r3
 973 0014 002B     		cmp	r3, #0
 974 0016 40F02083 		bne	.L41
 975              		.loc 1 205 0 is_stmt 0 discriminator 1
 976 001a 40F20003 		movw	r3, #:lower16:counter
 977 001e C0F20003 		movt	r3, #:upper16:counter
 978 0022 1B68     		ldr	r3, [r3, #0]
 979 0024 002B     		cmp	r3, #0
 980 0026 00F31883 		bgt	.L41
 206:../LSM9DS1_Driver.c **** 	{
 207:../LSM9DS1_Driver.c **** 
 208:../LSM9DS1_Driver.c **** 		accelX = (adrAndData.dane[1] << 8) | adrAndData.dane[0]; // Store x-axis values into gx
 981              		.loc 1 208 0 is_stmt 1
 982 002a 40F20003 		movw	r3, #:lower16:adrAndData
 983 002e C0F20003 		movt	r3, #:upper16:adrAndData
 984 0032 5B78     		ldrb	r3, [r3, #1]	@ zero_extendqisi2
 985 0034 4FEA0323 		lsl	r3, r3, #8
 986 0038 9AB2     		uxth	r2, r3
 987 003a 40F20003 		movw	r3, #:lower16:adrAndData
 988 003e C0F20003 		movt	r3, #:upper16:adrAndData
 989 0042 1B78     		ldrb	r3, [r3, #0]	@ zero_extendqisi2
 990 0044 1343     		orrs	r3, r3, r2
 991 0046 9AB2     		uxth	r2, r3
 992 0048 40F20003 		movw	r3, #:lower16:accelX
 993 004c C0F20003 		movt	r3, #:upper16:accelX
 994 0050 1A80     		strh	r2, [r3, #0]	@ movhi
 209:../LSM9DS1_Driver.c **** 
 210:../LSM9DS1_Driver.c **** 		accelY = (adrAndData.dane[3] << 8) | adrAndData.dane[2]; // Store y-axis values into gy
 995              		.loc 1 210 0
 996 0052 40F20003 		movw	r3, #:lower16:adrAndData
 997 0056 C0F20003 		movt	r3, #:upper16:adrAndData
 998 005a DB78     		ldrb	r3, [r3, #3]	@ zero_extendqisi2
 999 005c 4FEA0323 		lsl	r3, r3, #8
 1000 0060 9AB2     		uxth	r2, r3
 1001 0062 40F20003 		movw	r3, #:lower16:adrAndData
 1002 0066 C0F20003 		movt	r3, #:upper16:adrAndData
 1003 006a 9B78     		ldrb	r3, [r3, #2]	@ zero_extendqisi2
 1004 006c 1343     		orrs	r3, r3, r2
 1005 006e 9AB2     		uxth	r2, r3
 1006 0070 40F20003 		movw	r3, #:lower16:accelY
 1007 0074 C0F20003 		movt	r3, #:upper16:accelY
 1008 0078 1A80     		strh	r2, [r3, #0]	@ movhi
 211:../LSM9DS1_Driver.c **** 
 212:../LSM9DS1_Driver.c **** 		accelZ = (adrAndData.dane[5] << 8) | adrAndData.dane[4]; // Store z-axis values into gz
 1009              		.loc 1 212 0
 1010 007a 40F20003 		movw	r3, #:lower16:adrAndData
 1011 007e C0F20003 		movt	r3, #:upper16:adrAndData
 1012 0082 5B79     		ldrb	r3, [r3, #5]	@ zero_extendqisi2
 1013 0084 4FEA0323 		lsl	r3, r3, #8
 1014 0088 9AB2     		uxth	r2, r3
 1015 008a 40F20003 		movw	r3, #:lower16:adrAndData
 1016 008e C0F20003 		movt	r3, #:upper16:adrAndData
 1017 0092 1B79     		ldrb	r3, [r3, #4]	@ zero_extendqisi2
 1018 0094 1343     		orrs	r3, r3, r2
 1019 0096 9AB2     		uxth	r2, r3
 1020 0098 40F20003 		movw	r3, #:lower16:accelZ
 1021 009c C0F20003 		movt	r3, #:upper16:accelZ
 1022 00a0 1A80     		strh	r2, [r3, #0]	@ movhi
 213:../LSM9DS1_Driver.c **** 
 214:../LSM9DS1_Driver.c **** 		if (_autoCalc) //kalibracja
 1023              		.loc 1 214 0
 1024 00a2 40F20003 		movw	r3, #:lower16:_autoCalc
 1025 00a6 C0F20003 		movt	r3, #:upper16:_autoCalc
 1026 00aa 1B78     		ldrb	r3, [r3, #0]	@ zero_extendqisi2
 1027 00ac 002B     		cmp	r3, #0
 1028 00ae 3BD0     		beq	.L42
 215:../LSM9DS1_Driver.c **** 		{
 216:../LSM9DS1_Driver.c **** 			accelX -= aBiasRaw[X_AXIS];
 1029              		.loc 1 216 0
 1030 00b0 40F20003 		movw	r3, #:lower16:accelX
 1031 00b4 C0F20003 		movt	r3, #:upper16:accelX
 1032 00b8 1B88     		ldrh	r3, [r3, #0]
 1033 00ba 9AB2     		uxth	r2, r3
 1034 00bc 40F20003 		movw	r3, #:lower16:aBiasRaw
 1035 00c0 C0F20003 		movt	r3, #:upper16:aBiasRaw
 1036 00c4 1B88     		ldrh	r3, [r3, #0]
 1037 00c6 9BB2     		uxth	r3, r3
 1038 00c8 D31A     		subs	r3, r2, r3
 1039 00ca 9BB2     		uxth	r3, r3
 1040 00cc 9AB2     		uxth	r2, r3
 1041 00ce 40F20003 		movw	r3, #:lower16:accelX
 1042 00d2 C0F20003 		movt	r3, #:upper16:accelX
 1043 00d6 1A80     		strh	r2, [r3, #0]	@ movhi
 217:../LSM9DS1_Driver.c **** 			accelY -= aBiasRaw[Y_AXIS];
 1044              		.loc 1 217 0
 1045 00d8 40F20003 		movw	r3, #:lower16:accelY
 1046 00dc C0F20003 		movt	r3, #:upper16:accelY
 1047 00e0 1B88     		ldrh	r3, [r3, #0]
 1048 00e2 9AB2     		uxth	r2, r3
 1049 00e4 40F20003 		movw	r3, #:lower16:aBiasRaw
 1050 00e8 C0F20003 		movt	r3, #:upper16:aBiasRaw
 1051 00ec 5B88     		ldrh	r3, [r3, #2]
 1052 00ee 9BB2     		uxth	r3, r3
 1053 00f0 D31A     		subs	r3, r2, r3
 1054 00f2 9BB2     		uxth	r3, r3
 1055 00f4 9AB2     		uxth	r2, r3
 1056 00f6 40F20003 		movw	r3, #:lower16:accelY
 1057 00fa C0F20003 		movt	r3, #:upper16:accelY
 1058 00fe 1A80     		strh	r2, [r3, #0]	@ movhi
 218:../LSM9DS1_Driver.c **** 			accelZ -= aBiasRaw[Z_AXIS];
 1059              		.loc 1 218 0
 1060 0100 40F20003 		movw	r3, #:lower16:accelZ
 1061 0104 C0F20003 		movt	r3, #:upper16:accelZ
 1062 0108 1B88     		ldrh	r3, [r3, #0]
 1063 010a 9AB2     		uxth	r2, r3
 1064 010c 40F20003 		movw	r3, #:lower16:aBiasRaw
 1065 0110 C0F20003 		movt	r3, #:upper16:aBiasRaw
 1066 0114 9B88     		ldrh	r3, [r3, #4]
 1067 0116 9BB2     		uxth	r3, r3
 1068 0118 D31A     		subs	r3, r2, r3
 1069 011a 9BB2     		uxth	r3, r3
 1070 011c 9AB2     		uxth	r2, r3
 1071 011e 40F20003 		movw	r3, #:lower16:accelZ
 1072 0122 C0F20003 		movt	r3, #:upper16:accelZ
 1073 0126 1A80     		strh	r2, [r3, #0]	@ movhi
 1074              	.L42:
 219:../LSM9DS1_Driver.c **** 		}
 220:../LSM9DS1_Driver.c **** 
 221:../LSM9DS1_Driver.c **** 		accelXf = calcAccel(accelX);
 1075              		.loc 1 221 0
 1076 0128 40F20003 		movw	r3, #:lower16:accelX
 1077 012c C0F20003 		movt	r3, #:upper16:accelX
 1078 0130 1B88     		ldrh	r3, [r3, #0]
 1079 0132 1BB2     		sxth	r3, r3
 1080 0134 1846     		mov	r0, r3
 1081 0136 FFF7FEFF 		bl	calcAccel
 1082 013a 0246     		mov	r2, r0	@ float
 1083 013c 40F20003 		movw	r3, #:lower16:accelXf
 1084 0140 C0F20003 		movt	r3, #:upper16:accelXf
 1085 0144 1A60     		str	r2, [r3, #0]	@ float
 222:../LSM9DS1_Driver.c **** 		accelYf = calcAccel(accelY);
 1086              		.loc 1 222 0
 1087 0146 40F20003 		movw	r3, #:lower16:accelY
 1088 014a C0F20003 		movt	r3, #:upper16:accelY
 1089 014e 1B88     		ldrh	r3, [r3, #0]
 1090 0150 1BB2     		sxth	r3, r3
 1091 0152 1846     		mov	r0, r3
 1092 0154 FFF7FEFF 		bl	calcAccel
 1093 0158 0246     		mov	r2, r0	@ float
 1094 015a 40F20003 		movw	r3, #:lower16:accelYf
 1095 015e C0F20003 		movt	r3, #:upper16:accelYf
 1096 0162 1A60     		str	r2, [r3, #0]	@ float
 223:../LSM9DS1_Driver.c **** 		accelZf = calcAccel(accelZ);
 1097              		.loc 1 223 0
 1098 0164 40F20003 		movw	r3, #:lower16:accelZ
 1099 0168 C0F20003 		movt	r3, #:upper16:accelZ
 1100 016c 1B88     		ldrh	r3, [r3, #0]
 1101 016e 1BB2     		sxth	r3, r3
 1102 0170 1846     		mov	r0, r3
 1103 0172 FFF7FEFF 		bl	calcAccel
 1104 0176 0246     		mov	r2, r0	@ float
 1105 0178 40F20003 		movw	r3, #:lower16:accelZf
 1106 017c C0F20003 		movt	r3, #:upper16:accelZf
 1107 0180 1A60     		str	r2, [r3, #0]	@ float
 224:../LSM9DS1_Driver.c **** 
 225:../LSM9DS1_Driver.c **** 		accelX = calcAccel(accelX);
 1108              		.loc 1 225 0
 1109 0182 40F20003 		movw	r3, #:lower16:accelX
 1110 0186 C0F20003 		movt	r3, #:upper16:accelX
 1111 018a 1B88     		ldrh	r3, [r3, #0]
 1112 018c 1BB2     		sxth	r3, r3
 1113 018e 1846     		mov	r0, r3
 1114 0190 FFF7FEFF 		bl	calcAccel
 1115 0194 07EE900A 		fmsr	s15, r0
 1116 0198 FDEEE77A 		ftosizs	s15, s15
 1117 019c 17EE903A 		fmrs	r3, s15	@ int
 1118 01a0 9AB2     		uxth	r2, r3
 1119 01a2 40F20003 		movw	r3, #:lower16:accelX
 1120 01a6 C0F20003 		movt	r3, #:upper16:accelX
 1121 01aa 1A80     		strh	r2, [r3, #0]	@ movhi
 226:../LSM9DS1_Driver.c **** 		accelY = calcAccel(accelY);
 1122              		.loc 1 226 0
 1123 01ac 40F20003 		movw	r3, #:lower16:accelY
 1124 01b0 C0F20003 		movt	r3, #:upper16:accelY
 1125 01b4 1B88     		ldrh	r3, [r3, #0]
 1126 01b6 1BB2     		sxth	r3, r3
 1127 01b8 1846     		mov	r0, r3
 1128 01ba FFF7FEFF 		bl	calcAccel
 1129 01be 07EE900A 		fmsr	s15, r0
 1130 01c2 FDEEE77A 		ftosizs	s15, s15
 1131 01c6 17EE903A 		fmrs	r3, s15	@ int
 1132 01ca 9AB2     		uxth	r2, r3
 1133 01cc 40F20003 		movw	r3, #:lower16:accelY
 1134 01d0 C0F20003 		movt	r3, #:upper16:accelY
 1135 01d4 1A80     		strh	r2, [r3, #0]	@ movhi
 227:../LSM9DS1_Driver.c **** 		accelZ = calcAccel(accelZ);
 1136              		.loc 1 227 0
 1137 01d6 40F20003 		movw	r3, #:lower16:accelZ
 1138 01da C0F20003 		movt	r3, #:upper16:accelZ
 1139 01de 1B88     		ldrh	r3, [r3, #0]
 1140 01e0 1BB2     		sxth	r3, r3
 1141 01e2 1846     		mov	r0, r3
 1142 01e4 FFF7FEFF 		bl	calcAccel
 1143 01e8 07EE900A 		fmsr	s15, r0
 1144 01ec FDEEE77A 		ftosizs	s15, s15
 1145 01f0 17EE903A 		fmrs	r3, s15	@ int
 1146 01f4 9AB2     		uxth	r2, r3
 1147 01f6 40F20003 		movw	r3, #:lower16:accelZ
 1148 01fa C0F20003 		movt	r3, #:upper16:accelZ
 1149 01fe 1A80     		strh	r2, [r3, #0]	@ movhi
 228:../LSM9DS1_Driver.c **** 
 229:../LSM9DS1_Driver.c **** 
 230:../LSM9DS1_Driver.c **** 		pomiaryAccel[counter].ax = accelX;
 1150              		.loc 1 230 0
 1151 0200 40F20003 		movw	r3, #:lower16:counter
 1152 0204 C0F20003 		movt	r3, #:upper16:counter
 1153 0208 1968     		ldr	r1, [r3, #0]
 1154 020a 40F20003 		movw	r3, #:lower16:accelX
 1155 020e C0F20003 		movt	r3, #:upper16:accelX
 1156 0212 1888     		ldrh	r0, [r3, #0]
 1157 0214 40F20002 		movw	r2, #:lower16:pomiaryAccel
 1158 0218 C0F20002 		movt	r2, #:upper16:pomiaryAccel
 1159 021c 0B46     		mov	r3, r1
 1160 021e 4FEA4303 		lsl	r3, r3, #1
 1161 0222 5B18     		adds	r3, r3, r1
 1162 0224 4FEA8303 		lsl	r3, r3, #2
 1163 0228 D318     		adds	r3, r2, r3
 1164 022a 0246     		mov	r2, r0	@ movhi
 1165 022c 1A80     		strh	r2, [r3, #0]	@ movhi
 231:../LSM9DS1_Driver.c **** 		pomiaryAccel[counter].ay = accelY;
 1166              		.loc 1 231 0
 1167 022e 40F20003 		movw	r3, #:lower16:counter
 1168 0232 C0F20003 		movt	r3, #:upper16:counter
 1169 0236 1968     		ldr	r1, [r3, #0]
 1170 0238 40F20003 		movw	r3, #:lower16:accelY
 1171 023c C0F20003 		movt	r3, #:upper16:accelY
 1172 0240 1888     		ldrh	r0, [r3, #0]
 1173 0242 40F20002 		movw	r2, #:lower16:pomiaryAccel
 1174 0246 C0F20002 		movt	r2, #:upper16:pomiaryAccel
 1175 024a 0B46     		mov	r3, r1
 1176 024c 4FEA4303 		lsl	r3, r3, #1
 1177 0250 5B18     		adds	r3, r3, r1
 1178 0252 4FEA8303 		lsl	r3, r3, #2
 1179 0256 D318     		adds	r3, r2, r3
 1180 0258 0246     		mov	r2, r0	@ movhi
 1181 025a 5A80     		strh	r2, [r3, #2]	@ movhi
 232:../LSM9DS1_Driver.c **** 		pomiaryAccel[counter].az = accelZ;
 1182              		.loc 1 232 0
 1183 025c 40F20003 		movw	r3, #:lower16:counter
 1184 0260 C0F20003 		movt	r3, #:upper16:counter
 1185 0264 1968     		ldr	r1, [r3, #0]
 1186 0266 40F20003 		movw	r3, #:lower16:accelZ
 1187 026a C0F20003 		movt	r3, #:upper16:accelZ
 1188 026e 1888     		ldrh	r0, [r3, #0]
 1189 0270 40F20002 		movw	r2, #:lower16:pomiaryAccel
 1190 0274 C0F20002 		movt	r2, #:upper16:pomiaryAccel
 1191 0278 0B46     		mov	r3, r1
 1192 027a 4FEA4303 		lsl	r3, r3, #1
 1193 027e 5B18     		adds	r3, r3, r1
 1194 0280 4FEA8303 		lsl	r3, r3, #2
 1195 0284 D318     		adds	r3, r2, r3
 1196 0286 0246     		mov	r2, r0	@ movhi
 1197 0288 9A80     		strh	r2, [r3, #4]	@ movhi
 233:../LSM9DS1_Driver.c **** 
 234:../LSM9DS1_Driver.c **** 
 235:../LSM9DS1_Driver.c **** 		gyroX = (adrAndData.dane[7] << 8) | adrAndData.dane[6];
 1198              		.loc 1 235 0
 1199 028a 40F20003 		movw	r3, #:lower16:adrAndData
 1200 028e C0F20003 		movt	r3, #:upper16:adrAndData
 1201 0292 DB79     		ldrb	r3, [r3, #7]	@ zero_extendqisi2
 1202 0294 4FEA0323 		lsl	r3, r3, #8
 1203 0298 9AB2     		uxth	r2, r3
 1204 029a 40F20003 		movw	r3, #:lower16:adrAndData
 1205 029e C0F20003 		movt	r3, #:upper16:adrAndData
 1206 02a2 9B79     		ldrb	r3, [r3, #6]	@ zero_extendqisi2
 1207 02a4 1343     		orrs	r3, r3, r2
 1208 02a6 9AB2     		uxth	r2, r3
 1209 02a8 40F20003 		movw	r3, #:lower16:gyroX
 1210 02ac C0F20003 		movt	r3, #:upper16:gyroX
 1211 02b0 1A80     		strh	r2, [r3, #0]	@ movhi
 236:../LSM9DS1_Driver.c **** 
 237:../LSM9DS1_Driver.c **** 		gyroY = (adrAndData.dane[9] << 8) | adrAndData.dane[8];
 1212              		.loc 1 237 0
 1213 02b2 40F20003 		movw	r3, #:lower16:adrAndData
 1214 02b6 C0F20003 		movt	r3, #:upper16:adrAndData
 1215 02ba 5B7A     		ldrb	r3, [r3, #9]	@ zero_extendqisi2
 1216 02bc 4FEA0323 		lsl	r3, r3, #8
 1217 02c0 9AB2     		uxth	r2, r3
 1218 02c2 40F20003 		movw	r3, #:lower16:adrAndData
 1219 02c6 C0F20003 		movt	r3, #:upper16:adrAndData
 1220 02ca 1B7A     		ldrb	r3, [r3, #8]	@ zero_extendqisi2
 1221 02cc 1343     		orrs	r3, r3, r2
 1222 02ce 9AB2     		uxth	r2, r3
 1223 02d0 40F20003 		movw	r3, #:lower16:gyroY
 1224 02d4 C0F20003 		movt	r3, #:upper16:gyroY
 1225 02d8 1A80     		strh	r2, [r3, #0]	@ movhi
 238:../LSM9DS1_Driver.c **** 
 239:../LSM9DS1_Driver.c **** 		gyroZ = (adrAndData.dane[11] << 8) | adrAndData.dane[10];
 1226              		.loc 1 239 0
 1227 02da 40F20003 		movw	r3, #:lower16:adrAndData
 1228 02de C0F20003 		movt	r3, #:upper16:adrAndData
 1229 02e2 DB7A     		ldrb	r3, [r3, #11]	@ zero_extendqisi2
 1230 02e4 4FEA0323 		lsl	r3, r3, #8
 1231 02e8 9AB2     		uxth	r2, r3
 1232 02ea 40F20003 		movw	r3, #:lower16:adrAndData
 1233 02ee C0F20003 		movt	r3, #:upper16:adrAndData
 1234 02f2 9B7A     		ldrb	r3, [r3, #10]	@ zero_extendqisi2
 1235 02f4 1343     		orrs	r3, r3, r2
 1236 02f6 9AB2     		uxth	r2, r3
 1237 02f8 40F20003 		movw	r3, #:lower16:gyroZ
 1238 02fc C0F20003 		movt	r3, #:upper16:gyroZ
 1239 0300 1A80     		strh	r2, [r3, #0]	@ movhi
 240:../LSM9DS1_Driver.c **** 
 241:../LSM9DS1_Driver.c **** 
 242:../LSM9DS1_Driver.c **** 		if (_autoCalc) //kalibracja
 1240              		.loc 1 242 0
 1241 0302 40F20003 		movw	r3, #:lower16:_autoCalc
 1242 0306 C0F20003 		movt	r3, #:upper16:_autoCalc
 1243 030a 1B78     		ldrb	r3, [r3, #0]	@ zero_extendqisi2
 1244 030c 002B     		cmp	r3, #0
 1245 030e 3BD0     		beq	.L43
 243:../LSM9DS1_Driver.c **** 		{
 244:../LSM9DS1_Driver.c **** 			gyroX -= gBiasRaw[X_AXIS];
 1246              		.loc 1 244 0
 1247 0310 40F20003 		movw	r3, #:lower16:gyroX
 1248 0314 C0F20003 		movt	r3, #:upper16:gyroX
 1249 0318 1B88     		ldrh	r3, [r3, #0]
 1250 031a 9AB2     		uxth	r2, r3
 1251 031c 40F20003 		movw	r3, #:lower16:gBiasRaw
 1252 0320 C0F20003 		movt	r3, #:upper16:gBiasRaw
 1253 0324 1B88     		ldrh	r3, [r3, #0]
 1254 0326 9BB2     		uxth	r3, r3
 1255 0328 D31A     		subs	r3, r2, r3
 1256 032a 9BB2     		uxth	r3, r3
 1257 032c 9AB2     		uxth	r2, r3
 1258 032e 40F20003 		movw	r3, #:lower16:gyroX
 1259 0332 C0F20003 		movt	r3, #:upper16:gyroX
 1260 0336 1A80     		strh	r2, [r3, #0]	@ movhi
 245:../LSM9DS1_Driver.c **** 			gyroY -= gBiasRaw[Y_AXIS];
 1261              		.loc 1 245 0
 1262 0338 40F20003 		movw	r3, #:lower16:gyroY
 1263 033c C0F20003 		movt	r3, #:upper16:gyroY
 1264 0340 1B88     		ldrh	r3, [r3, #0]
 1265 0342 9AB2     		uxth	r2, r3
 1266 0344 40F20003 		movw	r3, #:lower16:gBiasRaw
 1267 0348 C0F20003 		movt	r3, #:upper16:gBiasRaw
 1268 034c 5B88     		ldrh	r3, [r3, #2]
 1269 034e 9BB2     		uxth	r3, r3
 1270 0350 D31A     		subs	r3, r2, r3
 1271 0352 9BB2     		uxth	r3, r3
 1272 0354 9AB2     		uxth	r2, r3
 1273 0356 40F20003 		movw	r3, #:lower16:gyroY
 1274 035a C0F20003 		movt	r3, #:upper16:gyroY
 1275 035e 1A80     		strh	r2, [r3, #0]	@ movhi
 246:../LSM9DS1_Driver.c **** 			gyroZ -= gBiasRaw[Z_AXIS];
 1276              		.loc 1 246 0
 1277 0360 40F20003 		movw	r3, #:lower16:gyroZ
 1278 0364 C0F20003 		movt	r3, #:upper16:gyroZ
 1279 0368 1B88     		ldrh	r3, [r3, #0]
 1280 036a 9AB2     		uxth	r2, r3
 1281 036c 40F20003 		movw	r3, #:lower16:gBiasRaw
 1282 0370 C0F20003 		movt	r3, #:upper16:gBiasRaw
 1283 0374 9B88     		ldrh	r3, [r3, #4]
 1284 0376 9BB2     		uxth	r3, r3
 1285 0378 D31A     		subs	r3, r2, r3
 1286 037a 9BB2     		uxth	r3, r3
 1287 037c 9AB2     		uxth	r2, r3
 1288 037e 40F20003 		movw	r3, #:lower16:gyroZ
 1289 0382 C0F20003 		movt	r3, #:upper16:gyroZ
 1290 0386 1A80     		strh	r2, [r3, #0]	@ movhi
 1291              	.L43:
 247:../LSM9DS1_Driver.c **** 		}
 248:../LSM9DS1_Driver.c **** 
 249:../LSM9DS1_Driver.c **** 		gyroXf = calcGyro(gyroX);
 1292              		.loc 1 249 0
 1293 0388 40F20003 		movw	r3, #:lower16:gyroX
 1294 038c C0F20003 		movt	r3, #:upper16:gyroX
 1295 0390 1B88     		ldrh	r3, [r3, #0]
 1296 0392 1BB2     		sxth	r3, r3
 1297 0394 1846     		mov	r0, r3
 1298 0396 FFF7FEFF 		bl	calcGyro
 1299 039a 0246     		mov	r2, r0	@ float
 1300 039c 40F20003 		movw	r3, #:lower16:gyroXf
 1301 03a0 C0F20003 		movt	r3, #:upper16:gyroXf
 1302 03a4 1A60     		str	r2, [r3, #0]	@ float
 250:../LSM9DS1_Driver.c **** 		gyroYf = calcGyro(gyroY);
 1303              		.loc 1 250 0
 1304 03a6 40F20003 		movw	r3, #:lower16:gyroY
 1305 03aa C0F20003 		movt	r3, #:upper16:gyroY
 1306 03ae 1B88     		ldrh	r3, [r3, #0]
 1307 03b0 1BB2     		sxth	r3, r3
 1308 03b2 1846     		mov	r0, r3
 1309 03b4 FFF7FEFF 		bl	calcGyro
 1310 03b8 0246     		mov	r2, r0	@ float
 1311 03ba 40F20003 		movw	r3, #:lower16:gyroYf
 1312 03be C0F20003 		movt	r3, #:upper16:gyroYf
 1313 03c2 1A60     		str	r2, [r3, #0]	@ float
 251:../LSM9DS1_Driver.c **** 		gyroZf = calcGyro(gyroZ);
 1314              		.loc 1 251 0
 1315 03c4 40F20003 		movw	r3, #:lower16:gyroZ
 1316 03c8 C0F20003 		movt	r3, #:upper16:gyroZ
 1317 03cc 1B88     		ldrh	r3, [r3, #0]
 1318 03ce 1BB2     		sxth	r3, r3
 1319 03d0 1846     		mov	r0, r3
 1320 03d2 FFF7FEFF 		bl	calcGyro
 1321 03d6 0246     		mov	r2, r0	@ float
 1322 03d8 40F20003 		movw	r3, #:lower16:gyroZf
 1323 03dc C0F20003 		movt	r3, #:upper16:gyroZf
 1324 03e0 1A60     		str	r2, [r3, #0]	@ float
 252:../LSM9DS1_Driver.c **** 
 253:../LSM9DS1_Driver.c **** 		gyroX = calcGyro(gyroX);
 1325              		.loc 1 253 0
 1326 03e2 40F20003 		movw	r3, #:lower16:gyroX
 1327 03e6 C0F20003 		movt	r3, #:upper16:gyroX
 1328 03ea 1B88     		ldrh	r3, [r3, #0]
 1329 03ec 1BB2     		sxth	r3, r3
 1330 03ee 1846     		mov	r0, r3
 1331 03f0 FFF7FEFF 		bl	calcGyro
 1332 03f4 07EE900A 		fmsr	s15, r0
 1333 03f8 FDEEE77A 		ftosizs	s15, s15
 1334 03fc 17EE903A 		fmrs	r3, s15	@ int
 1335 0400 9AB2     		uxth	r2, r3
 1336 0402 40F20003 		movw	r3, #:lower16:gyroX
 1337 0406 C0F20003 		movt	r3, #:upper16:gyroX
 1338 040a 1A80     		strh	r2, [r3, #0]	@ movhi
 254:../LSM9DS1_Driver.c **** 		gyroY = calcGyro(gyroY);
 1339              		.loc 1 254 0
 1340 040c 40F20003 		movw	r3, #:lower16:gyroY
 1341 0410 C0F20003 		movt	r3, #:upper16:gyroY
 1342 0414 1B88     		ldrh	r3, [r3, #0]
 1343 0416 1BB2     		sxth	r3, r3
 1344 0418 1846     		mov	r0, r3
 1345 041a FFF7FEFF 		bl	calcGyro
 1346 041e 07EE900A 		fmsr	s15, r0
 1347 0422 FDEEE77A 		ftosizs	s15, s15
 1348 0426 17EE903A 		fmrs	r3, s15	@ int
 1349 042a 9AB2     		uxth	r2, r3
 1350 042c 40F20003 		movw	r3, #:lower16:gyroY
 1351 0430 C0F20003 		movt	r3, #:upper16:gyroY
 1352 0434 1A80     		strh	r2, [r3, #0]	@ movhi
 255:../LSM9DS1_Driver.c **** 		gyroZ = calcGyro(gyroZ);
 1353              		.loc 1 255 0
 1354 0436 40F20003 		movw	r3, #:lower16:gyroZ
 1355 043a C0F20003 		movt	r3, #:upper16:gyroZ
 1356 043e 1B88     		ldrh	r3, [r3, #0]
 1357 0440 1BB2     		sxth	r3, r3
 1358 0442 1846     		mov	r0, r3
 1359 0444 FFF7FEFF 		bl	calcGyro
 1360 0448 07EE900A 		fmsr	s15, r0
 1361 044c FDEEE77A 		ftosizs	s15, s15
 1362 0450 17EE903A 		fmrs	r3, s15	@ int
 1363 0454 9AB2     		uxth	r2, r3
 1364 0456 40F20003 		movw	r3, #:lower16:gyroZ
 1365 045a C0F20003 		movt	r3, #:upper16:gyroZ
 1366 045e 1A80     		strh	r2, [r3, #0]	@ movhi
 256:../LSM9DS1_Driver.c **** 
 257:../LSM9DS1_Driver.c **** 		pomiaryAccel[counter].gx = gyroX;
 1367              		.loc 1 257 0
 1368 0460 40F20003 		movw	r3, #:lower16:counter
 1369 0464 C0F20003 		movt	r3, #:upper16:counter
 1370 0468 1968     		ldr	r1, [r3, #0]
 1371 046a 40F20003 		movw	r3, #:lower16:gyroX
 1372 046e C0F20003 		movt	r3, #:upper16:gyroX
 1373 0472 1888     		ldrh	r0, [r3, #0]
 1374 0474 40F20002 		movw	r2, #:lower16:pomiaryAccel
 1375 0478 C0F20002 		movt	r2, #:upper16:pomiaryAccel
 1376 047c 0B46     		mov	r3, r1
 1377 047e 4FEA4303 		lsl	r3, r3, #1
 1378 0482 5B18     		adds	r3, r3, r1
 1379 0484 4FEA8303 		lsl	r3, r3, #2
 1380 0488 D318     		adds	r3, r2, r3
 1381 048a 0246     		mov	r2, r0	@ movhi
 1382 048c DA80     		strh	r2, [r3, #6]	@ movhi
 258:../LSM9DS1_Driver.c **** 		pomiaryAccel[counter].gy = gyroY;
 1383              		.loc 1 258 0
 1384 048e 40F20003 		movw	r3, #:lower16:counter
 1385 0492 C0F20003 		movt	r3, #:upper16:counter
 1386 0496 1968     		ldr	r1, [r3, #0]
 1387 0498 40F20003 		movw	r3, #:lower16:gyroY
 1388 049c C0F20003 		movt	r3, #:upper16:gyroY
 1389 04a0 1888     		ldrh	r0, [r3, #0]
 1390 04a2 40F20002 		movw	r2, #:lower16:pomiaryAccel
 1391 04a6 C0F20002 		movt	r2, #:upper16:pomiaryAccel
 1392 04aa 0B46     		mov	r3, r1
 1393 04ac 4FEA4303 		lsl	r3, r3, #1
 1394 04b0 5B18     		adds	r3, r3, r1
 1395 04b2 4FEA8303 		lsl	r3, r3, #2
 1396 04b6 D318     		adds	r3, r2, r3
 1397 04b8 03F10803 		add	r3, r3, #8
 1398 04bc 0246     		mov	r2, r0	@ movhi
 1399 04be 1A80     		strh	r2, [r3, #0]	@ movhi
 259:../LSM9DS1_Driver.c **** 		pomiaryAccel[counter].gz = gyroZ;
 1400              		.loc 1 259 0
 1401 04c0 40F20003 		movw	r3, #:lower16:counter
 1402 04c4 C0F20003 		movt	r3, #:upper16:counter
 1403 04c8 1968     		ldr	r1, [r3, #0]
 1404 04ca 40F20003 		movw	r3, #:lower16:gyroZ
 1405 04ce C0F20003 		movt	r3, #:upper16:gyroZ
 1406 04d2 1888     		ldrh	r0, [r3, #0]
 1407 04d4 40F20002 		movw	r2, #:lower16:pomiaryAccel
 1408 04d8 C0F20002 		movt	r2, #:upper16:pomiaryAccel
 1409 04dc 0B46     		mov	r3, r1
 1410 04de 4FEA4303 		lsl	r3, r3, #1
 1411 04e2 5B18     		adds	r3, r3, r1
 1412 04e4 4FEA8303 		lsl	r3, r3, #2
 1413 04e8 D318     		adds	r3, r2, r3
 1414 04ea 03F10803 		add	r3, r3, #8
 1415 04ee 0246     		mov	r2, r0	@ movhi
 1416 04f0 5A80     		strh	r2, [r3, #2]	@ movhi
 260:../LSM9DS1_Driver.c **** 
 261:../LSM9DS1_Driver.c **** 
 262:../LSM9DS1_Driver.c **** 
 263:../LSM9DS1_Driver.c **** 		magnetX = (adrAndData.dane[13] << 8) | adrAndData.dane[12];
 1417              		.loc 1 263 0
 1418 04f2 40F20003 		movw	r3, #:lower16:adrAndData
 1419 04f6 C0F20003 		movt	r3, #:upper16:adrAndData
 1420 04fa 5B7B     		ldrb	r3, [r3, #13]	@ zero_extendqisi2
 1421 04fc 4FEA0323 		lsl	r3, r3, #8
 1422 0500 9AB2     		uxth	r2, r3
 1423 0502 40F20003 		movw	r3, #:lower16:adrAndData
 1424 0506 C0F20003 		movt	r3, #:upper16:adrAndData
 1425 050a 1B7B     		ldrb	r3, [r3, #12]	@ zero_extendqisi2
 1426 050c 1343     		orrs	r3, r3, r2
 1427 050e 9AB2     		uxth	r2, r3
 1428 0510 40F20003 		movw	r3, #:lower16:magnetX
 1429 0514 C0F20003 		movt	r3, #:upper16:magnetX
 1430 0518 1A80     		strh	r2, [r3, #0]	@ movhi
 264:../LSM9DS1_Driver.c **** 
 265:../LSM9DS1_Driver.c **** 		magnetY = (adrAndData.dane[15] << 8) | adrAndData.dane[14];
 1431              		.loc 1 265 0
 1432 051a 40F20003 		movw	r3, #:lower16:adrAndData
 1433 051e C0F20003 		movt	r3, #:upper16:adrAndData
 1434 0522 DB7B     		ldrb	r3, [r3, #15]	@ zero_extendqisi2
 1435 0524 4FEA0323 		lsl	r3, r3, #8
 1436 0528 9AB2     		uxth	r2, r3
 1437 052a 40F20003 		movw	r3, #:lower16:adrAndData
 1438 052e C0F20003 		movt	r3, #:upper16:adrAndData
 1439 0532 9B7B     		ldrb	r3, [r3, #14]	@ zero_extendqisi2
 1440 0534 1343     		orrs	r3, r3, r2
 1441 0536 9AB2     		uxth	r2, r3
 1442 0538 40F20003 		movw	r3, #:lower16:magnetY
 1443 053c C0F20003 		movt	r3, #:upper16:magnetY
 1444 0540 1A80     		strh	r2, [r3, #0]	@ movhi
 266:../LSM9DS1_Driver.c **** 
 267:../LSM9DS1_Driver.c **** 		magnetZ = (adrAndData.dane[17] << 8) | adrAndData.dane[16];
 1445              		.loc 1 267 0
 1446 0542 40F20003 		movw	r3, #:lower16:adrAndData
 1447 0546 C0F20003 		movt	r3, #:upper16:adrAndData
 1448 054a 5B7C     		ldrb	r3, [r3, #17]	@ zero_extendqisi2
 1449 054c 4FEA0323 		lsl	r3, r3, #8
 1450 0550 9AB2     		uxth	r2, r3
 1451 0552 40F20003 		movw	r3, #:lower16:adrAndData
 1452 0556 C0F20003 		movt	r3, #:upper16:adrAndData
 1453 055a 1B7C     		ldrb	r3, [r3, #16]	@ zero_extendqisi2
 1454 055c 1343     		orrs	r3, r3, r2
 1455 055e 9AB2     		uxth	r2, r3
 1456 0560 40F20003 		movw	r3, #:lower16:magnetZ
 1457 0564 C0F20003 		movt	r3, #:upper16:magnetZ
 1458 0568 1A80     		strh	r2, [r3, #0]	@ movhi
 268:../LSM9DS1_Driver.c **** 
 269:../LSM9DS1_Driver.c **** 
 270:../LSM9DS1_Driver.c **** 		magnetXf = calcMag(magnetX);
 1459              		.loc 1 270 0
 1460 056a 40F20003 		movw	r3, #:lower16:magnetX
 1461 056e C0F20003 		movt	r3, #:upper16:magnetX
 1462 0572 1B88     		ldrh	r3, [r3, #0]
 1463 0574 1BB2     		sxth	r3, r3
 1464 0576 1846     		mov	r0, r3
 1465 0578 FFF7FEFF 		bl	calcMag
 1466 057c 0246     		mov	r2, r0	@ float
 1467 057e 40F20003 		movw	r3, #:lower16:magnetXf
 1468 0582 C0F20003 		movt	r3, #:upper16:magnetXf
 1469 0586 1A60     		str	r2, [r3, #0]	@ float
 271:../LSM9DS1_Driver.c **** 		magnetYf = calcMag(magnetY);
 1470              		.loc 1 271 0
 1471 0588 40F20003 		movw	r3, #:lower16:magnetY
 1472 058c C0F20003 		movt	r3, #:upper16:magnetY
 1473 0590 1B88     		ldrh	r3, [r3, #0]
 1474 0592 1BB2     		sxth	r3, r3
 1475 0594 1846     		mov	r0, r3
 1476 0596 FFF7FEFF 		bl	calcMag
 1477 059a 0246     		mov	r2, r0	@ float
 1478 059c 40F20003 		movw	r3, #:lower16:magnetYf
 1479 05a0 C0F20003 		movt	r3, #:upper16:magnetYf
 1480 05a4 1A60     		str	r2, [r3, #0]	@ float
 272:../LSM9DS1_Driver.c **** 		magnetZf = calcMag(magnetZ);
 1481              		.loc 1 272 0
 1482 05a6 40F20003 		movw	r3, #:lower16:magnetZ
 1483 05aa C0F20003 		movt	r3, #:upper16:magnetZ
 1484 05ae 1B88     		ldrh	r3, [r3, #0]
 1485 05b0 1BB2     		sxth	r3, r3
 1486 05b2 1846     		mov	r0, r3
 1487 05b4 FFF7FEFF 		bl	calcMag
 1488 05b8 0246     		mov	r2, r0	@ float
 1489 05ba 40F20003 		movw	r3, #:lower16:magnetZf
 1490 05be C0F20003 		movt	r3, #:upper16:magnetZf
 1491 05c2 1A60     		str	r2, [r3, #0]	@ float
 273:../LSM9DS1_Driver.c **** 
 274:../LSM9DS1_Driver.c **** 		magnetX = calcMag(magnetX);
 1492              		.loc 1 274 0
 1493 05c4 40F20003 		movw	r3, #:lower16:magnetX
 1494 05c8 C0F20003 		movt	r3, #:upper16:magnetX
 1495 05cc 1B88     		ldrh	r3, [r3, #0]
 1496 05ce 1BB2     		sxth	r3, r3
 1497 05d0 1846     		mov	r0, r3
 1498 05d2 FFF7FEFF 		bl	calcMag
 1499 05d6 07EE900A 		fmsr	s15, r0
 1500 05da FDEEE77A 		ftosizs	s15, s15
 1501 05de 17EE903A 		fmrs	r3, s15	@ int
 1502 05e2 9AB2     		uxth	r2, r3
 1503 05e4 40F20003 		movw	r3, #:lower16:magnetX
 1504 05e8 C0F20003 		movt	r3, #:upper16:magnetX
 1505 05ec 1A80     		strh	r2, [r3, #0]	@ movhi
 275:../LSM9DS1_Driver.c **** 		magnetY = calcMag(magnetY);
 1506              		.loc 1 275 0
 1507 05ee 40F20003 		movw	r3, #:lower16:magnetY
 1508 05f2 C0F20003 		movt	r3, #:upper16:magnetY
 1509 05f6 1B88     		ldrh	r3, [r3, #0]
 1510 05f8 1BB2     		sxth	r3, r3
 1511 05fa 1846     		mov	r0, r3
 1512 05fc FFF7FEFF 		bl	calcMag
 1513 0600 07EE900A 		fmsr	s15, r0
 1514 0604 FDEEE77A 		ftosizs	s15, s15
 1515 0608 17EE903A 		fmrs	r3, s15	@ int
 1516 060c 9AB2     		uxth	r2, r3
 1517 060e 40F20003 		movw	r3, #:lower16:magnetY
 1518 0612 C0F20003 		movt	r3, #:upper16:magnetY
 1519 0616 1A80     		strh	r2, [r3, #0]	@ movhi
 276:../LSM9DS1_Driver.c **** 		magnetZ = calcMag(magnetZ);
 1520              		.loc 1 276 0
 1521 0618 40F20003 		movw	r3, #:lower16:magnetZ
 1522 061c C0F20003 		movt	r3, #:upper16:magnetZ
 1523 0620 1B88     		ldrh	r3, [r3, #0]
 1524 0622 1BB2     		sxth	r3, r3
 1525 0624 1846     		mov	r0, r3
 1526 0626 FFF7FEFF 		bl	calcMag
 1527 062a 07EE900A 		fmsr	s15, r0
 1528 062e FDEEE77A 		ftosizs	s15, s15
 1529 0632 17EE903A 		fmrs	r3, s15	@ int
 1530 0636 9AB2     		uxth	r2, r3
 1531 0638 40F20003 		movw	r3, #:lower16:magnetZ
 1532 063c C0F20003 		movt	r3, #:upper16:magnetZ
 1533 0640 1A80     		strh	r2, [r3, #0]	@ movhi
 277:../LSM9DS1_Driver.c **** 
 278:../LSM9DS1_Driver.c **** 		counter++;
 1534              		.loc 1 278 0
 1535 0642 40F20003 		movw	r3, #:lower16:counter
 1536 0646 C0F20003 		movt	r3, #:upper16:counter
 1537 064a 1B68     		ldr	r3, [r3, #0]
 1538 064c 03F10102 		add	r2, r3, #1
 1539 0650 40F20003 		movw	r3, #:lower16:counter
 1540 0654 C0F20003 		movt	r3, #:upper16:counter
 1541 0658 1A60     		str	r2, [r3, #0]
 1542              	.L41:
 279:../LSM9DS1_Driver.c **** 
 280:../LSM9DS1_Driver.c **** 		/*if(counter < 50)
 281:../LSM9DS1_Driver.c **** 		{
 282:../LSM9DS1_Driver.c **** 			readingAllowed = TRUE;
 283:../LSM9DS1_Driver.c **** 		}*/
 284:../LSM9DS1_Driver.c **** 	}
 285:../LSM9DS1_Driver.c **** 
 286:../LSM9DS1_Driver.c **** 	if(counter >= 1/* && copied == 0*/)
 1543              		.loc 1 286 0
 1544 065a 40F20003 		movw	r3, #:lower16:counter
 1545 065e C0F20003 		movt	r3, #:upper16:counter
 1546 0662 1B68     		ldr	r3, [r3, #0]
 1547 0664 002B     		cmp	r3, #0
 1548 0666 17DD     		ble	.L40
 1549              	.LBB2:
 287:../LSM9DS1_Driver.c **** 	{
 288:../LSM9DS1_Driver.c **** 		int i = 0;
 1550              		.loc 1 288 0
 1551 0668 4FF00003 		mov	r3, #0
 1552 066c FB60     		str	r3, [r7, #12]
 289:../LSM9DS1_Driver.c **** 
 290:../LSM9DS1_Driver.c **** 		/*for(i = 0; i < 50; i++)
 291:../LSM9DS1_Driver.c **** 		{
 292:../LSM9DS1_Driver.c **** 			copiedData[i].ax = pomiaryAccel[i].ax;
 293:../LSM9DS1_Driver.c **** 			copiedData[i].ay = pomiaryAccel[i].ay;
 294:../LSM9DS1_Driver.c **** 			copiedData[i].az = pomiaryAccel[i].az;
 295:../LSM9DS1_Driver.c **** 
 296:../LSM9DS1_Driver.c **** 			copiedData[i].gx = pomiaryAccel[i].gx;
 297:../LSM9DS1_Driver.c **** 			copiedData[i].gy = pomiaryAccel[i].gy;
 298:../LSM9DS1_Driver.c **** 			copiedData[i].gz = pomiaryAccel[i].gz;
 299:../LSM9DS1_Driver.c **** 		}*/
 300:../LSM9DS1_Driver.c **** 
 301:../LSM9DS1_Driver.c **** 		counter = 0;
 1553              		.loc 1 301 0
 1554 066e 40F20003 		movw	r3, #:lower16:counter
 1555 0672 C0F20003 		movt	r3, #:upper16:counter
 1556 0676 4FF00002 		mov	r2, #0
 1557 067a 1A60     		str	r2, [r3, #0]
 302:../LSM9DS1_Driver.c **** 		copied = 1;
 1558              		.loc 1 302 0
 1559 067c 40F20003 		movw	r3, #:lower16:copied
 1560 0680 C0F20003 		movt	r3, #:upper16:copied
 1561 0684 4FF00102 		mov	r2, #1
 1562 0688 1A70     		strb	r2, [r3, #0]
 303:../LSM9DS1_Driver.c **** 		readingAllowed = TRUE;
 1563              		.loc 1 303 0
 1564 068a 40F20003 		movw	r3, #:lower16:readingAllowed
 1565 068e C0F20003 		movt	r3, #:upper16:readingAllowed
 1566 0692 4FF00102 		mov	r2, #1
 1567 0696 1A70     		strb	r2, [r3, #0]
 1568              	.L40:
 1569              	.LBE2:
 304:../LSM9DS1_Driver.c **** 	}
 305:../LSM9DS1_Driver.c **** }
 1570              		.loc 1 305 0
 1571 0698 07F11007 		add	r7, r7, #16
 1572 069c BD46     		mov	sp, r7
 1573 069e 80BD     		pop	{r7, pc}
 1574              		.cfi_endproc
 1575              	.LFE138:
 1577              		.section	.text.initAdrAndSubAdr,"ax",%progbits
 1578              		.align	2
 1579              		.global	initAdrAndSubAdr
 1580              		.thumb
 1581              		.thumb_func
 1583              	initAdrAndSubAdr:
 1584              	.LFB139:
 306:../LSM9DS1_Driver.c **** 
 307:../LSM9DS1_Driver.c **** void initAdrAndSubAdr(void)
 308:../LSM9DS1_Driver.c **** {
 1585              		.loc 1 308 0
 1586              		.cfi_startproc
 1587              		@ args = 0, pretend = 0, frame = 0
 1588              		@ frame_needed = 1, uses_anonymous_args = 0
 1589              		@ link register save eliminated.
 1590 0000 80B4     		push	{r7}
 1591              	.LCFI45:
 1592              		.cfi_def_cfa_offset 4
 1593              		.cfi_offset 7, -4
 1594 0002 00AF     		add	r7, sp, #0
 1595              	.LCFI46:
 1596              		.cfi_def_cfa_register 7
 309:../LSM9DS1_Driver.c **** 	adrAndData.adr.addressDevice[0] = 0x6B;
 1597              		.loc 1 309 0
 1598 0004 40F20003 		movw	r3, #:lower16:adrAndData
 1599 0008 C0F20003 		movt	r3, #:upper16:adrAndData
 1600 000c 4FF06B02 		mov	r2, #107
 1601 0010 9A74     		strb	r2, [r3, #18]
 310:../LSM9DS1_Driver.c **** 	adrAndData.adr.addressDevice[1] = 0x1E;
 1602              		.loc 1 310 0
 1603 0012 40F20003 		movw	r3, #:lower16:adrAndData
 1604 0016 C0F20003 		movt	r3, #:upper16:adrAndData
 1605 001a 4FF01E02 		mov	r2, #30
 1606 001e DA74     		strb	r2, [r3, #19]
 311:../LSM9DS1_Driver.c **** 	adrAndData.adr.subAddress[0] =  OUT_X_L_XL; //subaddres for accel
 1607              		.loc 1 311 0
 1608 0020 40F20003 		movw	r3, #:lower16:adrAndData
 1609 0024 C0F20003 		movt	r3, #:upper16:adrAndData
 1610 0028 4FF02802 		mov	r2, #40
 1611 002c 1A75     		strb	r2, [r3, #20]
 312:../LSM9DS1_Driver.c **** 	adrAndData.adr.subAddress[1] =  OUT_X_L_G; //sub address for gyroscope
 1612              		.loc 1 312 0
 1613 002e 40F20003 		movw	r3, #:lower16:adrAndData
 1614 0032 C0F20003 		movt	r3, #:upper16:adrAndData
 1615 0036 4FF01802 		mov	r2, #24
 1616 003a 5A75     		strb	r2, [r3, #21]
 313:../LSM9DS1_Driver.c **** 	adrAndData.adr.subAddress[2] =  OUT_X_L_M;
 1617              		.loc 1 313 0
 1618 003c 40F20003 		movw	r3, #:lower16:adrAndData
 1619 0040 C0F20003 		movt	r3, #:upper16:adrAndData
 1620 0044 4FF02802 		mov	r2, #40
 1621 0048 9A75     		strb	r2, [r3, #22]
 314:../LSM9DS1_Driver.c **** }
 1622              		.loc 1 314 0
 1623 004a BD46     		mov	sp, r7
 1624 004c 80BC     		pop	{r7}
 1625 004e 7047     		bx	lr
 1626              		.cfi_endproc
 1627              	.LFE139:
 1629              		.section	.text.initLSM9DS1,"ax",%progbits
 1630              		.align	2
 1631              		.global	initLSM9DS1
 1632              		.thumb
 1633              		.thumb_func
 1635              	initLSM9DS1:
 1636              	.LFB140:
 315:../LSM9DS1_Driver.c **** 
 316:../LSM9DS1_Driver.c **** void initLSM9DS1(void)
 317:../LSM9DS1_Driver.c **** {
 1637              		.loc 1 317 0
 1638              		.cfi_startproc
 1639              		@ args = 0, pretend = 0, frame = 8
 1640              		@ frame_needed = 1, uses_anonymous_args = 0
 1641 0000 80B5     		push	{r7, lr}
 1642              	.LCFI47:
 1643              		.cfi_def_cfa_offset 8
 1644              		.cfi_offset 7, -8
 1645              		.cfi_offset 14, -4
 1646 0002 82B0     		sub	sp, sp, #8
 1647              	.LCFI48:
 1648              		.cfi_def_cfa_offset 16
 1649 0004 00AF     		add	r7, sp, #0
 1650              	.LCFI49:
 1651              		.cfi_def_cfa_register 7
 318:../LSM9DS1_Driver.c **** 	init(IMU_MODE_I2C, LSM9DS1_AG_ADDR(1), LSM9DS1_M_ADDR(1));
 1652              		.loc 1 318 0
 1653 0006 4FF00100 		mov	r0, #1
 1654 000a 4FF06B01 		mov	r1, #107
 1655 000e 4FF01E02 		mov	r2, #30
 1656 0012 FFF7FEFF 		bl	init
 319:../LSM9DS1_Driver.c **** 
 320:../LSM9DS1_Driver.c **** 	settings.device.commInterface = IMU_MODE_I2C;
 1657              		.loc 1 320 0
 1658 0016 40F20003 		movw	r3, #:lower16:settings
 1659 001a C0F20003 		movt	r3, #:upper16:settings
 1660 001e 4FF00102 		mov	r2, #1
 1661 0022 1A70     		strb	r2, [r3, #0]
 321:../LSM9DS1_Driver.c **** 	settings.device.mAddress = LSM9DS1_M;
 1662              		.loc 1 321 0
 1663 0024 40F20003 		movw	r3, #:lower16:settings
 1664 0028 C0F20003 		movt	r3, #:upper16:settings
 1665 002c 4FF01E02 		mov	r2, #30
 1666 0030 9A70     		strb	r2, [r3, #2]
 322:../LSM9DS1_Driver.c **** 	settings.device.agAddress = LSM9DS1_AG;
 1667              		.loc 1 322 0
 1668 0032 40F20003 		movw	r3, #:lower16:settings
 1669 0036 C0F20003 		movt	r3, #:upper16:settings
 1670 003a 4FF06B02 		mov	r2, #107
 1671 003e 5A70     		strb	r2, [r3, #1]
 323:../LSM9DS1_Driver.c **** 
 324:../LSM9DS1_Driver.c **** 	initAdrAndSubAdr();
 1672              		.loc 1 324 0
 1673 0040 FFF7FEFF 		bl	initAdrAndSubAdr
 325:../LSM9DS1_Driver.c **** 
 326:../LSM9DS1_Driver.c **** 	if(!begin())
 1674              		.loc 1 326 0
 1675 0044 FFF7FEFF 		bl	begin
 1676 0048 0346     		mov	r3, r0
 1677 004a 002B     		cmp	r3, #0
 1678 004c 02D1     		bne	.L46
 1679              	.LBB3:
 327:../LSM9DS1_Driver.c **** 	{
 328:../LSM9DS1_Driver.c **** 		int k = 0;
 1680              		.loc 1 328 0
 1681 004e 4FF00003 		mov	r3, #0
 1682 0052 7B60     		str	r3, [r7, #4]
 1683              	.L46:
 1684              	.LBE3:
 329:../LSM9DS1_Driver.c **** 	}
 330:../LSM9DS1_Driver.c **** }
 1685              		.loc 1 330 0
 1686 0054 07F10807 		add	r7, r7, #8
 1687 0058 BD46     		mov	sp, r7
 1688 005a 80BD     		pop	{r7, pc}
 1689              		.cfi_endproc
 1690              	.LFE140:
 1692              		.section	.text.init,"ax",%progbits
 1693              		.align	2
 1694              		.global	init
 1695              		.thumb
 1696              		.thumb_func
 1698              	init:
 1699              	.LFB141:
 331:../LSM9DS1_Driver.c **** 
 332:../LSM9DS1_Driver.c **** void init(interface_mode interface, uint8_t xgAddr, uint8_t mAddr)
 333:../LSM9DS1_Driver.c **** {
 1700              		.loc 1 333 0
 1701              		.cfi_startproc
 1702              		@ args = 0, pretend = 0, frame = 16
 1703              		@ frame_needed = 1, uses_anonymous_args = 0
 1704              		@ link register save eliminated.
 1705 0000 80B4     		push	{r7}
 1706              	.LCFI50:
 1707              		.cfi_def_cfa_offset 4
 1708              		.cfi_offset 7, -4
 1709 0002 85B0     		sub	sp, sp, #20
 1710              	.LCFI51:
 1711              		.cfi_def_cfa_offset 24
 1712 0004 00AF     		add	r7, sp, #0
 1713              	.LCFI52:
 1714              		.cfi_def_cfa_register 7
 1715 0006 1346     		mov	r3, r2
 1716 0008 0246     		mov	r2, r0
 1717 000a FA71     		strb	r2, [r7, #7]
 1718 000c 0A46     		mov	r2, r1
 1719 000e BA71     		strb	r2, [r7, #6]
 1720 0010 7B71     		strb	r3, [r7, #5]
 334:../LSM9DS1_Driver.c **** 	//measurementsLSMRead = 0;
 335:../LSM9DS1_Driver.c **** 
 336:../LSM9DS1_Driver.c **** 	settings.device.commInterface = interface;
 1721              		.loc 1 336 0
 1722 0012 40F20003 		movw	r3, #:lower16:settings
 1723 0016 C0F20003 		movt	r3, #:upper16:settings
 1724 001a FA79     		ldrb	r2, [r7, #7]
 1725 001c 1A70     		strb	r2, [r3, #0]
 337:../LSM9DS1_Driver.c **** 	settings.device.agAddress = xgAddr;
 1726              		.loc 1 337 0
 1727 001e 40F20003 		movw	r3, #:lower16:settings
 1728 0022 C0F20003 		movt	r3, #:upper16:settings
 1729 0026 BA79     		ldrb	r2, [r7, #6]
 1730 0028 5A70     		strb	r2, [r3, #1]
 338:../LSM9DS1_Driver.c **** 	settings.device.mAddress = mAddr;
 1731              		.loc 1 338 0
 1732 002a 40F20003 		movw	r3, #:lower16:settings
 1733 002e C0F20003 		movt	r3, #:upper16:settings
 1734 0032 7A79     		ldrb	r2, [r7, #5]
 1735 0034 9A70     		strb	r2, [r3, #2]
 339:../LSM9DS1_Driver.c **** 
 340:../LSM9DS1_Driver.c **** 	settings.gyro.enabled = TRUE;
 1736              		.loc 1 340 0
 1737 0036 40F20003 		movw	r3, #:lower16:settings
 1738 003a C0F20003 		movt	r3, #:upper16:settings
 1739 003e 4FF00102 		mov	r2, #1
 1740 0042 1A71     		strb	r2, [r3, #4]
 341:../LSM9DS1_Driver.c **** 	settings.gyro.enableX = TRUE;
 1741              		.loc 1 341 0
 1742 0044 40F20003 		movw	r3, #:lower16:settings
 1743 0048 C0F20003 		movt	r3, #:upper16:settings
 1744 004c 4FF00102 		mov	r2, #1
 1745 0050 5A74     		strb	r2, [r3, #17]
 342:../LSM9DS1_Driver.c **** 	settings.gyro.enableY = TRUE;
 1746              		.loc 1 342 0
 1747 0052 40F20003 		movw	r3, #:lower16:settings
 1748 0056 C0F20003 		movt	r3, #:upper16:settings
 1749 005a 4FF00102 		mov	r2, #1
 1750 005e 9A74     		strb	r2, [r3, #18]
 343:../LSM9DS1_Driver.c **** 	settings.gyro.enableZ = TRUE;
 1751              		.loc 1 343 0
 1752 0060 40F20003 		movw	r3, #:lower16:settings
 1753 0064 C0F20003 		movt	r3, #:upper16:settings
 1754 0068 4FF00102 		mov	r2, #1
 1755 006c DA74     		strb	r2, [r3, #19]
 344:../LSM9DS1_Driver.c **** 	// gyro scale can be 245, 500, or 2000
 345:../LSM9DS1_Driver.c **** 	settings.gyro.scale = 245;
 1756              		.loc 1 345 0
 1757 006e 40F20003 		movw	r3, #:lower16:settings
 1758 0072 C0F20003 		movt	r3, #:upper16:settings
 1759 0076 4FF0F502 		mov	r2, #245
 1760 007a DA80     		strh	r2, [r3, #6]	@ movhi
 346:../LSM9DS1_Driver.c **** 	// gyro sample rate: value between 1-6
 347:../LSM9DS1_Driver.c **** 	// 1 = 14.9    4 = 238
 348:../LSM9DS1_Driver.c **** 	// 2 = 59.5    5 = 476
 349:../LSM9DS1_Driver.c **** 	// 3 = 119     6 = 952
 350:../LSM9DS1_Driver.c **** 	settings.gyro.sampleRate = 3;//byo 3
 1761              		.loc 1 350 0
 1762 007c 40F20003 		movw	r3, #:lower16:settings
 1763 0080 C0F20003 		movt	r3, #:upper16:settings
 1764 0084 4FF00302 		mov	r2, #3
 1765 0088 1A72     		strb	r2, [r3, #8]
 351:../LSM9DS1_Driver.c **** 	// gyro cutoff frequency: value between 0-3
 352:../LSM9DS1_Driver.c **** 	// Actual value of cutoff frequency depends
 353:../LSM9DS1_Driver.c **** 	// on sample rate.
 354:../LSM9DS1_Driver.c **** 	settings.gyro.bandwidth = 0;
 1766              		.loc 1 354 0
 1767 008a 40F20003 		movw	r3, #:lower16:settings
 1768 008e C0F20003 		movt	r3, #:upper16:settings
 1769 0092 4FF00002 		mov	r2, #0
 1770 0096 5A72     		strb	r2, [r3, #9]
 355:../LSM9DS1_Driver.c **** 	settings.gyro.lowPowerEnable = FALSE;
 1771              		.loc 1 355 0
 1772 0098 40F20003 		movw	r3, #:lower16:settings
 1773 009c C0F20003 		movt	r3, #:upper16:settings
 1774 00a0 4FF00002 		mov	r2, #0
 1775 00a4 9A72     		strb	r2, [r3, #10]
 356:../LSM9DS1_Driver.c **** 
 357:../LSM9DS1_Driver.c **** 	settings.gyro.HPFEnable = FALSE;
 1776              		.loc 1 357 0
 1777 00a6 40F20003 		movw	r3, #:lower16:settings
 1778 00aa C0F20003 		movt	r3, #:upper16:settings
 1779 00ae 4FF00002 		mov	r2, #0
 1780 00b2 DA72     		strb	r2, [r3, #11]
 358:../LSM9DS1_Driver.c **** 	// Gyro HPF cutoff frequency: value between 0-9
 359:../LSM9DS1_Driver.c **** 	// Actual value depends on sample rate. Only applies
 360:../LSM9DS1_Driver.c **** 	// if gyroHPFEnable is TRUE.
 361:../LSM9DS1_Driver.c **** 	settings.gyro.HPFCutoff = 0;
 1781              		.loc 1 361 0
 1782 00b4 40F20003 		movw	r3, #:lower16:settings
 1783 00b8 C0F20003 		movt	r3, #:upper16:settings
 1784 00bc 4FF00002 		mov	r2, #0
 1785 00c0 1A73     		strb	r2, [r3, #12]
 362:../LSM9DS1_Driver.c **** 	settings.gyro.flipX = FALSE;
 1786              		.loc 1 362 0
 1787 00c2 40F20003 		movw	r3, #:lower16:settings
 1788 00c6 C0F20003 		movt	r3, #:upper16:settings
 1789 00ca 4FF00002 		mov	r2, #0
 1790 00ce 5A73     		strb	r2, [r3, #13]
 363:../LSM9DS1_Driver.c **** 	settings.gyro.flipY = FALSE;
 1791              		.loc 1 363 0
 1792 00d0 40F20003 		movw	r3, #:lower16:settings
 1793 00d4 C0F20003 		movt	r3, #:upper16:settings
 1794 00d8 4FF00002 		mov	r2, #0
 1795 00dc 9A73     		strb	r2, [r3, #14]
 364:../LSM9DS1_Driver.c **** 	settings.gyro.flipZ = FALSE;
 1796              		.loc 1 364 0
 1797 00de 40F20003 		movw	r3, #:lower16:settings
 1798 00e2 C0F20003 		movt	r3, #:upper16:settings
 1799 00e6 4FF00002 		mov	r2, #0
 1800 00ea DA73     		strb	r2, [r3, #15]
 365:../LSM9DS1_Driver.c **** 	settings.gyro.orientation = 0;
 1801              		.loc 1 365 0
 1802 00ec 40F20003 		movw	r3, #:lower16:settings
 1803 00f0 C0F20003 		movt	r3, #:upper16:settings
 1804 00f4 4FF00002 		mov	r2, #0
 1805 00f8 1A74     		strb	r2, [r3, #16]
 366:../LSM9DS1_Driver.c **** 	settings.gyro.latchInterrupt = TRUE;
 1806              		.loc 1 366 0
 1807 00fa 40F20003 		movw	r3, #:lower16:settings
 1808 00fe C0F20003 		movt	r3, #:upper16:settings
 1809 0102 4FF00102 		mov	r2, #1
 1810 0106 1A75     		strb	r2, [r3, #20]
 367:../LSM9DS1_Driver.c **** 
 368:../LSM9DS1_Driver.c **** 	settings.accel.enabled = TRUE;
 1811              		.loc 1 368 0
 1812 0108 40F20003 		movw	r3, #:lower16:settings
 1813 010c C0F20003 		movt	r3, #:upper16:settings
 1814 0110 4FF00102 		mov	r2, #1
 1815 0114 9A75     		strb	r2, [r3, #22]
 369:../LSM9DS1_Driver.c **** 	settings.accel.enableX = TRUE;
 1816              		.loc 1 369 0
 1817 0116 40F20003 		movw	r3, #:lower16:settings
 1818 011a C0F20003 		movt	r3, #:upper16:settings
 1819 011e 4FF00102 		mov	r2, #1
 1820 0122 5A76     		strb	r2, [r3, #25]
 370:../LSM9DS1_Driver.c **** 	settings.accel.enableY = TRUE;
 1821              		.loc 1 370 0
 1822 0124 40F20003 		movw	r3, #:lower16:settings
 1823 0128 C0F20003 		movt	r3, #:upper16:settings
 1824 012c 4FF00102 		mov	r2, #1
 1825 0130 9A76     		strb	r2, [r3, #26]
 371:../LSM9DS1_Driver.c **** 	settings.accel.enableZ = TRUE;
 1826              		.loc 1 371 0
 1827 0132 40F20003 		movw	r3, #:lower16:settings
 1828 0136 C0F20003 		movt	r3, #:upper16:settings
 1829 013a 4FF00102 		mov	r2, #1
 1830 013e DA76     		strb	r2, [r3, #27]
 372:../LSM9DS1_Driver.c **** 	// accel scale can be 2, 4, 8, or 16
 373:../LSM9DS1_Driver.c **** 	settings.accel.scale = 2;
 1831              		.loc 1 373 0
 1832 0140 40F20003 		movw	r3, #:lower16:settings
 1833 0144 C0F20003 		movt	r3, #:upper16:settings
 1834 0148 4FF00202 		mov	r2, #2
 1835 014c DA75     		strb	r2, [r3, #23]
 374:../LSM9DS1_Driver.c **** 	// accel sample rate can be 1-6
 375:../LSM9DS1_Driver.c **** 	// 1 = 10 Hz    4 = 238 Hz
 376:../LSM9DS1_Driver.c **** 	// 2 = 50 Hz    5 = 476 Hz
 377:../LSM9DS1_Driver.c **** 	// 3 = 119 Hz   6 = 952 Hz
 378:../LSM9DS1_Driver.c **** 	settings.accel.sampleRate = 6;
 1836              		.loc 1 378 0
 1837 014e 40F20003 		movw	r3, #:lower16:settings
 1838 0152 C0F20003 		movt	r3, #:upper16:settings
 1839 0156 4FF00602 		mov	r2, #6
 1840 015a 1A76     		strb	r2, [r3, #24]
 379:../LSM9DS1_Driver.c **** 	// Accel cutoff freqeuncy can be any value between -1 - 3.
 380:../LSM9DS1_Driver.c **** 	// -1 = bandwidth determined by sample rate
 381:../LSM9DS1_Driver.c **** 	// 0 = 408 Hz   2 = 105 Hz
 382:../LSM9DS1_Driver.c **** 	// 1 = 211 Hz   3 = 50 Hz
 383:../LSM9DS1_Driver.c **** 	settings.accel.bandwidth = -1;
 1841              		.loc 1 383 0
 1842 015c 40F20003 		movw	r3, #:lower16:settings
 1843 0160 C0F20003 		movt	r3, #:upper16:settings
 1844 0164 4FF0FF02 		mov	r2, #255
 1845 0168 1A77     		strb	r2, [r3, #28]
 384:../LSM9DS1_Driver.c **** 	settings.accel.highResEnable = FALSE;
 1846              		.loc 1 384 0
 1847 016a 40F20003 		movw	r3, #:lower16:settings
 1848 016e C0F20003 		movt	r3, #:upper16:settings
 1849 0172 4FF00002 		mov	r2, #0
 1850 0176 5A77     		strb	r2, [r3, #29]
 385:../LSM9DS1_Driver.c **** 	// accelHighResBandwidth can be any value between 0-3
 386:../LSM9DS1_Driver.c **** 	// LP cutoff is set to a factor of sample rate
 387:../LSM9DS1_Driver.c **** 	// 0 = ODR/50    2 = ODR/9
 388:../LSM9DS1_Driver.c **** 	// 1 = ODR/100   3 = ODR/400
 389:../LSM9DS1_Driver.c **** 	settings.accel.highResBandwidth = 0;
 1851              		.loc 1 389 0
 1852 0178 40F20003 		movw	r3, #:lower16:settings
 1853 017c C0F20003 		movt	r3, #:upper16:settings
 1854 0180 4FF00002 		mov	r2, #0
 1855 0184 9A77     		strb	r2, [r3, #30]
 390:../LSM9DS1_Driver.c **** 
 391:../LSM9DS1_Driver.c **** 	settings.mag.enabled = TRUE;
 1856              		.loc 1 391 0
 1857 0186 40F20003 		movw	r3, #:lower16:settings
 1858 018a C0F20003 		movt	r3, #:upper16:settings
 1859 018e 4FF00102 		mov	r2, #1
 1860 0192 DA77     		strb	r2, [r3, #31]
 392:../LSM9DS1_Driver.c **** 	// mag scale can be 4, 8, 12, or 16
 393:../LSM9DS1_Driver.c **** 	settings.mag.scale = 4;
 1861              		.loc 1 393 0
 1862 0194 40F20003 		movw	r3, #:lower16:settings
 1863 0198 C0F20003 		movt	r3, #:upper16:settings
 1864 019c 4FF00402 		mov	r2, #4
 1865 01a0 83F82020 		strb	r2, [r3, #32]
 394:../LSM9DS1_Driver.c **** 	// mag data rate can be 0-7
 395:../LSM9DS1_Driver.c **** 	// 0 = 0.625 Hz  4 = 10 Hz
 396:../LSM9DS1_Driver.c **** 	// 1 = 1.25 Hz   5 = 20 Hz
 397:../LSM9DS1_Driver.c **** 	// 2 = 2.5 Hz    6 = 40 Hz
 398:../LSM9DS1_Driver.c **** 	// 3 = 5 Hz      7 = 80 Hz
 399:../LSM9DS1_Driver.c **** 	settings.mag.sampleRate = 7;
 1866              		.loc 1 399 0
 1867 01a4 40F20003 		movw	r3, #:lower16:settings
 1868 01a8 C0F20003 		movt	r3, #:upper16:settings
 1869 01ac 4FF00702 		mov	r2, #7
 1870 01b0 83F82120 		strb	r2, [r3, #33]
 400:../LSM9DS1_Driver.c **** 	settings.mag.tempCompensationEnable = FALSE;
 1871              		.loc 1 400 0
 1872 01b4 40F20003 		movw	r3, #:lower16:settings
 1873 01b8 C0F20003 		movt	r3, #:upper16:settings
 1874 01bc 4FF00002 		mov	r2, #0
 1875 01c0 83F82220 		strb	r2, [r3, #34]
 401:../LSM9DS1_Driver.c **** 	// magPerformance can be any value between 0-3
 402:../LSM9DS1_Driver.c **** 	// 0 = Low power mode      2 = high performance
 403:../LSM9DS1_Driver.c **** 	// 1 = medium performance  3 = ultra-high performance
 404:../LSM9DS1_Driver.c **** 	settings.mag.XYPerformance = 3;
 1876              		.loc 1 404 0
 1877 01c4 40F20003 		movw	r3, #:lower16:settings
 1878 01c8 C0F20003 		movt	r3, #:upper16:settings
 1879 01cc 4FF00302 		mov	r2, #3
 1880 01d0 83F82320 		strb	r2, [r3, #35]
 405:../LSM9DS1_Driver.c **** 	settings.mag.ZPerformance = 3;
 1881              		.loc 1 405 0
 1882 01d4 40F20003 		movw	r3, #:lower16:settings
 1883 01d8 C0F20003 		movt	r3, #:upper16:settings
 1884 01dc 4FF00302 		mov	r2, #3
 1885 01e0 83F82420 		strb	r2, [r3, #36]
 406:../LSM9DS1_Driver.c **** 	settings.mag.lowPowerEnable = FALSE;
 1886              		.loc 1 406 0
 1887 01e4 40F20003 		movw	r3, #:lower16:settings
 1888 01e8 C0F20003 		movt	r3, #:upper16:settings
 1889 01ec 4FF00002 		mov	r2, #0
 1890 01f0 83F82520 		strb	r2, [r3, #37]
 407:../LSM9DS1_Driver.c **** 	// magOperatingMode can be 0-2
 408:../LSM9DS1_Driver.c **** 	// 0 = continuous conversion
 409:../LSM9DS1_Driver.c **** 	// 1 = single-conversion
 410:../LSM9DS1_Driver.c **** 	// 2 = power down
 411:../LSM9DS1_Driver.c **** 	settings.mag.operatingMode = 0;
 1891              		.loc 1 411 0
 1892 01f4 40F20003 		movw	r3, #:lower16:settings
 1893 01f8 C0F20003 		movt	r3, #:upper16:settings
 1894 01fc 4FF00002 		mov	r2, #0
 1895 0200 83F82620 		strb	r2, [r3, #38]
 412:../LSM9DS1_Driver.c **** 
 413:../LSM9DS1_Driver.c **** 	settings.temp.enabled = TRUE;
 1896              		.loc 1 413 0
 1897 0204 40F20003 		movw	r3, #:lower16:settings
 1898 0208 C0F20003 		movt	r3, #:upper16:settings
 1899 020c 4FF00102 		mov	r2, #1
 1900 0210 83F82720 		strb	r2, [r3, #39]
 1901              	.LBB4:
 414:../LSM9DS1_Driver.c **** 
 415:../LSM9DS1_Driver.c **** 	for (int i=0; i<3; i++)
 1902              		.loc 1 415 0
 1903 0214 4FF00003 		mov	r3, #0
 1904 0218 FB60     		str	r3, [r7, #12]
 1905 021a 3FE0     		b	.L49
 1906              	.L50:
 416:../LSM9DS1_Driver.c **** 	{
 417:../LSM9DS1_Driver.c **** 		gBias[i] = 0;
 1907              		.loc 1 417 0 discriminator 2
 1908 021c 40F20003 		movw	r3, #:lower16:gBias
 1909 0220 C0F20003 		movt	r3, #:upper16:gBias
 1910 0224 FA68     		ldr	r2, [r7, #12]
 1911 0226 4FEA8202 		lsl	r2, r2, #2
 1912 022a 9B18     		adds	r3, r3, r2
 1913 022c 4FF00002 		mov	r2, #0
 1914 0230 1A60     		str	r2, [r3, #0]	@ float
 418:../LSM9DS1_Driver.c **** 		aBias[i] = 0;
 1915              		.loc 1 418 0 discriminator 2
 1916 0232 40F20003 		movw	r3, #:lower16:aBias
 1917 0236 C0F20003 		movt	r3, #:upper16:aBias
 1918 023a FA68     		ldr	r2, [r7, #12]
 1919 023c 4FEA8202 		lsl	r2, r2, #2
 1920 0240 9B18     		adds	r3, r3, r2
 1921 0242 4FF00002 		mov	r2, #0
 1922 0246 1A60     		str	r2, [r3, #0]	@ float
 419:../LSM9DS1_Driver.c **** 		mBias[i] = 0;
 1923              		.loc 1 419 0 discriminator 2
 1924 0248 40F20003 		movw	r3, #:lower16:mBias
 1925 024c C0F20003 		movt	r3, #:upper16:mBias
 1926 0250 FA68     		ldr	r2, [r7, #12]
 1927 0252 4FEA8202 		lsl	r2, r2, #2
 1928 0256 9B18     		adds	r3, r3, r2
 1929 0258 4FF00002 		mov	r2, #0
 1930 025c 1A60     		str	r2, [r3, #0]	@ float
 420:../LSM9DS1_Driver.c **** 		gBiasRaw[i] = 0;
 1931              		.loc 1 420 0 discriminator 2
 1932 025e 40F20003 		movw	r3, #:lower16:gBiasRaw
 1933 0262 C0F20003 		movt	r3, #:upper16:gBiasRaw
 1934 0266 FA68     		ldr	r2, [r7, #12]
 1935 0268 4FF00001 		mov	r1, #0
 1936 026c 23F81210 		strh	r1, [r3, r2, lsl #1]	@ movhi
 421:../LSM9DS1_Driver.c **** 		aBiasRaw[i] = 0;
 1937              		.loc 1 421 0 discriminator 2
 1938 0270 40F20003 		movw	r3, #:lower16:aBiasRaw
 1939 0274 C0F20003 		movt	r3, #:upper16:aBiasRaw
 1940 0278 FA68     		ldr	r2, [r7, #12]
 1941 027a 4FF00001 		mov	r1, #0
 1942 027e 23F81210 		strh	r1, [r3, r2, lsl #1]	@ movhi
 422:../LSM9DS1_Driver.c **** 		mBiasRaw[i] = 0;
 1943              		.loc 1 422 0 discriminator 2
 1944 0282 40F20003 		movw	r3, #:lower16:mBiasRaw
 1945 0286 C0F20003 		movt	r3, #:upper16:mBiasRaw
 1946 028a FA68     		ldr	r2, [r7, #12]
 1947 028c 4FF00001 		mov	r1, #0
 1948 0290 23F81210 		strh	r1, [r3, r2, lsl #1]	@ movhi
 415:../LSM9DS1_Driver.c **** 	for (int i=0; i<3; i++)
 1949              		.loc 1 415 0 discriminator 2
 1950 0294 FB68     		ldr	r3, [r7, #12]
 1951 0296 03F10103 		add	r3, r3, #1
 1952 029a FB60     		str	r3, [r7, #12]
 1953              	.L49:
 415:../LSM9DS1_Driver.c **** 	for (int i=0; i<3; i++)
 1954              		.loc 1 415 0 is_stmt 0 discriminator 1
 1955 029c FB68     		ldr	r3, [r7, #12]
 1956 029e 022B     		cmp	r3, #2
 1957 02a0 BCDD     		ble	.L50
 1958              	.LBE4:
 423:../LSM9DS1_Driver.c **** 	}
 424:../LSM9DS1_Driver.c **** 
 425:../LSM9DS1_Driver.c **** 	_autoCalc = FALSE;
 1959              		.loc 1 425 0 is_stmt 1
 1960 02a2 40F20003 		movw	r3, #:lower16:_autoCalc
 1961 02a6 C0F20003 		movt	r3, #:upper16:_autoCalc
 1962 02aa 4FF00002 		mov	r2, #0
 1963 02ae 1A70     		strb	r2, [r3, #0]
 426:../LSM9DS1_Driver.c **** }
 1964              		.loc 1 426 0
 1965 02b0 07F11407 		add	r7, r7, #20
 1966 02b4 BD46     		mov	sp, r7
 1967 02b6 80BC     		pop	{r7}
 1968 02b8 7047     		bx	lr
 1969              		.cfi_endproc
 1970              	.LFE141:
 1972 02ba 00BF     		.section	.text.begin,"ax",%progbits
 1973              		.align	2
 1974              		.global	begin
 1975              		.thumb
 1976              		.thumb_func
 1978              	begin:
 1979              	.LFB142:
 427:../LSM9DS1_Driver.c **** 
 428:../LSM9DS1_Driver.c **** uint16_t begin(void)
 429:../LSM9DS1_Driver.c **** {
 1980              		.loc 1 429 0
 1981              		.cfi_startproc
 1982              		@ args = 0, pretend = 0, frame = 8
 1983              		@ frame_needed = 1, uses_anonymous_args = 0
 1984 0000 80B5     		push	{r7, lr}
 1985              	.LCFI53:
 1986              		.cfi_def_cfa_offset 8
 1987              		.cfi_offset 7, -8
 1988              		.cfi_offset 14, -4
 1989 0002 82B0     		sub	sp, sp, #8
 1990              	.LCFI54:
 1991              		.cfi_def_cfa_offset 16
 1992 0004 00AF     		add	r7, sp, #0
 1993              	.LCFI55:
 1994              		.cfi_def_cfa_register 7
 430:../LSM9DS1_Driver.c **** 	//! Todo: don't use _xgAddress or _mAddress, duplicating memory
 431:../LSM9DS1_Driver.c **** 	_xgAddress = settings.device.agAddress;
 1995              		.loc 1 431 0
 1996 0006 40F20003 		movw	r3, #:lower16:settings
 1997 000a C0F20003 		movt	r3, #:upper16:settings
 1998 000e 5A78     		ldrb	r2, [r3, #1]	@ zero_extendqisi2
 1999 0010 40F20003 		movw	r3, #:lower16:_xgAddress
 2000 0014 C0F20003 		movt	r3, #:upper16:_xgAddress
 2001 0018 1A70     		strb	r2, [r3, #0]
 432:../LSM9DS1_Driver.c **** 	_mAddress = settings.device.mAddress;
 2002              		.loc 1 432 0
 2003 001a 40F20003 		movw	r3, #:lower16:settings
 2004 001e C0F20003 		movt	r3, #:upper16:settings
 2005 0022 9A78     		ldrb	r2, [r3, #2]	@ zero_extendqisi2
 2006 0024 40F20003 		movw	r3, #:lower16:_mAddress
 2007 0028 C0F20003 		movt	r3, #:upper16:_mAddress
 2008 002c 1A70     		strb	r2, [r3, #0]
 433:../LSM9DS1_Driver.c **** 
 434:../LSM9DS1_Driver.c **** 	constrainScales();
 2009              		.loc 1 434 0
 2010 002e FFF7FEFF 		bl	constrainScales
 435:../LSM9DS1_Driver.c **** 
 436:../LSM9DS1_Driver.c **** 	// Once we have the scale values, we can calculate the resolution
 437:../LSM9DS1_Driver.c **** 	// of each sensor. That's what these functions are for. One for each sensor
 438:../LSM9DS1_Driver.c **** 	calcgRes(); // Calculate DPS / ADC tick, stored in gRes variable
 2011              		.loc 1 438 0
 2012 0032 FFF7FEFF 		bl	calcgRes
 439:../LSM9DS1_Driver.c **** 	calcmRes(); // Calculate Gs / ADC tick, stored in mRes variable
 2013              		.loc 1 439 0
 2014 0036 FFF7FEFF 		bl	calcmRes
 440:../LSM9DS1_Driver.c **** 	calcaRes(); // Calculate g / ADC tick, stored in aRes variable
 2015              		.loc 1 440 0
 2016 003a FFF7FEFF 		bl	calcaRes
 441:../LSM9DS1_Driver.c **** 
 442:../LSM9DS1_Driver.c **** 	if (settings.device.commInterface == IMU_MODE_I2C)	// If we're using I2C
 2017              		.loc 1 442 0
 2018 003e 40F20003 		movw	r3, #:lower16:settings
 2019 0042 C0F20003 		movt	r3, #:upper16:settings
 2020 0046 1B78     		ldrb	r3, [r3, #0]	@ zero_extendqisi2
 2021 0048 012B     		cmp	r3, #1
 2022 004a 02D1     		bne	.L52
 443:../LSM9DS1_Driver.c **** 		initI2C();	// Initialize I2C
 2023              		.loc 1 443 0
 2024 004c FFF7FEFF 		bl	initI2C
 2025 0050 08E0     		b	.L53
 2026              	.L52:
 444:../LSM9DS1_Driver.c **** 	else if (settings.device.commInterface == IMU_MODE_SPI) 	// else, if we're using SPI
 2027              		.loc 1 444 0
 2028 0052 40F20003 		movw	r3, #:lower16:settings
 2029 0056 C0F20003 		movt	r3, #:upper16:settings
 2030 005a 1B78     		ldrb	r3, [r3, #0]	@ zero_extendqisi2
 2031 005c 002B     		cmp	r3, #0
 2032 005e 01D1     		bne	.L53
 445:../LSM9DS1_Driver.c **** 		initSPI();	// Initialize SPI
 2033              		.loc 1 445 0
 2034 0060 FFF7FEFF 		bl	initSPI
 2035              	.L53:
 446:../LSM9DS1_Driver.c **** 
 447:../LSM9DS1_Driver.c **** 	// To verify communication, we can read from the WHO_AM_I register of
 448:../LSM9DS1_Driver.c **** 	// each device. Store those in a variable so we can return them.
 449:../LSM9DS1_Driver.c **** 	uint8_t mTest = mReadByte(WHO_AM_I_M);		// Read the gyro WHO_AM_I
 2036              		.loc 1 449 0
 2037 0064 4FF00F00 		mov	r0, #15
 2038 0068 FFF7FEFF 		bl	mReadByte
 2039 006c 0346     		mov	r3, r0
 2040 006e FB71     		strb	r3, [r7, #7]
 450:../LSM9DS1_Driver.c **** 	delay(DELAY * 150);
 2041              		.loc 1 450 0
 2042 0070 4BF62070 		movw	r0, #48928
 2043 0074 C0F20200 		movt	r0, 2
 2044 0078 FFF7FEFF 		bl	delay
 451:../LSM9DS1_Driver.c **** 	uint8_t xgTest = xgReadByte(WHO_AM_I_XG);	// Read the accel/mag WHO_AM_I
 2045              		.loc 1 451 0
 2046 007c 4FF00F00 		mov	r0, #15
 2047 0080 FFF7FEFF 		bl	xgReadByte
 2048 0084 0346     		mov	r3, r0
 2049 0086 BB71     		strb	r3, [r7, #6]
 452:../LSM9DS1_Driver.c **** 
 453:../LSM9DS1_Driver.c **** 	uint16_t whoAmICombined = (xgTest << 8) | mTest;
 2050              		.loc 1 453 0
 2051 0088 BB79     		ldrb	r3, [r7, #6]	@ zero_extendqisi2
 2052 008a 4FEA0323 		lsl	r3, r3, #8
 2053 008e 9AB2     		uxth	r2, r3
 2054 0090 FB79     		ldrb	r3, [r7, #7]	@ zero_extendqisi2
 2055 0092 9BB2     		uxth	r3, r3
 2056 0094 1343     		orrs	r3, r3, r2
 2057 0096 9BB2     		uxth	r3, r3
 2058 0098 BB80     		strh	r3, [r7, #4]	@ movhi
 454:../LSM9DS1_Driver.c **** 
 455:../LSM9DS1_Driver.c **** 	if (whoAmICombined != ((WHO_AM_I_AG_RSP << 8) | WHO_AM_I_M_RSP))
 2059              		.loc 1 455 0
 2060 009a BA88     		ldrh	r2, [r7, #4]
 2061 009c 46F63D03 		movw	r3, #26685
 2062 00a0 9A42     		cmp	r2, r3
 2063 00a2 02D0     		beq	.L54
 456:../LSM9DS1_Driver.c **** 	{
 457:../LSM9DS1_Driver.c **** 		return 0;
 2064              		.loc 1 457 0
 2065 00a4 4FF00003 		mov	r3, #0
 2066 00a8 06E0     		b	.L55
 2067              	.L54:
 458:../LSM9DS1_Driver.c **** 	}
 459:../LSM9DS1_Driver.c **** 
 460:../LSM9DS1_Driver.c **** 	// Gyro initialization stuff:
 461:../LSM9DS1_Driver.c **** 	initGyro();	// This will "turn on" the gyro. Setting up interrupts, etc.
 2068              		.loc 1 461 0
 2069 00aa FFF7FEFF 		bl	initGyro
 462:../LSM9DS1_Driver.c **** 
 463:../LSM9DS1_Driver.c **** 	// Accelerometer initialization stuff:
 464:../LSM9DS1_Driver.c **** 	initAccel(); // "Turn on" all axes of the accel. Set up interrupts, etc.
 2070              		.loc 1 464 0
 2071 00ae FFF7FEFF 		bl	initAccel
 465:../LSM9DS1_Driver.c **** 
 466:../LSM9DS1_Driver.c **** 	// Magnetometer initialization stuff:
 467:../LSM9DS1_Driver.c **** 	initMag(); // "Turn on" all axes of the mag. Set up interrupts, etc.
 2072              		.loc 1 467 0
 2073 00b2 FFF7FEFF 		bl	initMag
 468:../LSM9DS1_Driver.c **** 
 469:../LSM9DS1_Driver.c **** 	// Once everything is initialized, return the WHO_AM_I registers we read:
 470:../LSM9DS1_Driver.c **** 	return whoAmICombined;
 2074              		.loc 1 470 0
 2075 00b6 BB88     		ldrh	r3, [r7, #4]
 2076              	.L55:
 471:../LSM9DS1_Driver.c **** 
 472:../LSM9DS1_Driver.c **** }
 2077              		.loc 1 472 0
 2078 00b8 1846     		mov	r0, r3
 2079 00ba 07F10807 		add	r7, r7, #8
 2080 00be BD46     		mov	sp, r7
 2081 00c0 80BD     		pop	{r7, pc}
 2082              		.cfi_endproc
 2083              	.LFE142:
 2085 00c2 00BF     		.section	.text.constrainScales,"ax",%progbits
 2086              		.align	2
 2087              		.global	constrainScales
 2088              		.thumb
 2089              		.thumb_func
 2091              	constrainScales:
 2092              	.LFB143:
 473:../LSM9DS1_Driver.c **** 
 474:../LSM9DS1_Driver.c **** void constrainScales()
 475:../LSM9DS1_Driver.c **** {
 2093              		.loc 1 475 0
 2094              		.cfi_startproc
 2095              		@ args = 0, pretend = 0, frame = 0
 2096              		@ frame_needed = 1, uses_anonymous_args = 0
 2097              		@ link register save eliminated.
 2098 0000 80B4     		push	{r7}
 2099              	.LCFI56:
 2100              		.cfi_def_cfa_offset 4
 2101              		.cfi_offset 7, -4
 2102 0002 00AF     		add	r7, sp, #0
 2103              	.LCFI57:
 2104              		.cfi_def_cfa_register 7
 476:../LSM9DS1_Driver.c **** 	if ((settings.gyro.scale != 245) && (settings.gyro.scale != 500) && (settings.gyro.scale != 2000))
 2105              		.loc 1 476 0
 2106 0004 40F20003 		movw	r3, #:lower16:settings
 2107 0008 C0F20003 		movt	r3, #:upper16:settings
 2108 000c DB88     		ldrh	r3, [r3, #6]
 2109 000e F52B     		cmp	r3, #245
 2110 0010 16D0     		beq	.L57
 2111              		.loc 1 476 0 is_stmt 0 discriminator 1
 2112 0012 40F20003 		movw	r3, #:lower16:settings
 2113 0016 C0F20003 		movt	r3, #:upper16:settings
 2114 001a DB88     		ldrh	r3, [r3, #6]
 2115 001c B3F5FA7F 		cmp	r3, #500
 2116 0020 0ED0     		beq	.L57
 2117 0022 40F20003 		movw	r3, #:lower16:settings
 2118 0026 C0F20003 		movt	r3, #:upper16:settings
 2119 002a DB88     		ldrh	r3, [r3, #6]
 2120 002c B3F5FA6F 		cmp	r3, #2000
 2121 0030 06D0     		beq	.L57
 477:../LSM9DS1_Driver.c **** 	{
 478:../LSM9DS1_Driver.c **** 		settings.gyro.scale = 245;
 2122              		.loc 1 478 0 is_stmt 1
 2123 0032 40F20003 		movw	r3, #:lower16:settings
 2124 0036 C0F20003 		movt	r3, #:upper16:settings
 2125 003a 4FF0F502 		mov	r2, #245
 2126 003e DA80     		strh	r2, [r3, #6]	@ movhi
 2127              	.L57:
 479:../LSM9DS1_Driver.c **** 	}
 480:../LSM9DS1_Driver.c **** 
 481:../LSM9DS1_Driver.c **** 	if ((settings.accel.scale != 2) && (settings.accel.scale != 4) && (settings.accel.scale != 8) && (
 2128              		.loc 1 481 0
 2129 0040 40F20003 		movw	r3, #:lower16:settings
 2130 0044 C0F20003 		movt	r3, #:upper16:settings
 2131 0048 DB7D     		ldrb	r3, [r3, #23]	@ zero_extendqisi2
 2132 004a 022B     		cmp	r3, #2
 2133 004c 1BD0     		beq	.L58
 2134              		.loc 1 481 0 is_stmt 0 discriminator 1
 2135 004e 40F20003 		movw	r3, #:lower16:settings
 2136 0052 C0F20003 		movt	r3, #:upper16:settings
 2137 0056 DB7D     		ldrb	r3, [r3, #23]	@ zero_extendqisi2
 2138 0058 042B     		cmp	r3, #4
 2139 005a 14D0     		beq	.L58
 2140 005c 40F20003 		movw	r3, #:lower16:settings
 2141 0060 C0F20003 		movt	r3, #:upper16:settings
 2142 0064 DB7D     		ldrb	r3, [r3, #23]	@ zero_extendqisi2
 2143 0066 082B     		cmp	r3, #8
 2144 0068 0DD0     		beq	.L58
 2145 006a 40F20003 		movw	r3, #:lower16:settings
 2146 006e C0F20003 		movt	r3, #:upper16:settings
 2147 0072 DB7D     		ldrb	r3, [r3, #23]	@ zero_extendqisi2
 2148 0074 102B     		cmp	r3, #16
 2149 0076 06D0     		beq	.L58
 482:../LSM9DS1_Driver.c **** 	{
 483:../LSM9DS1_Driver.c **** 		settings.accel.scale = 2;
 2150              		.loc 1 483 0 is_stmt 1
 2151 0078 40F20003 		movw	r3, #:lower16:settings
 2152 007c C0F20003 		movt	r3, #:upper16:settings
 2153 0080 4FF00202 		mov	r2, #2
 2154 0084 DA75     		strb	r2, [r3, #23]
 2155              	.L58:
 484:../LSM9DS1_Driver.c **** 	}
 485:../LSM9DS1_Driver.c **** 
 486:../LSM9DS1_Driver.c **** 	if ((settings.mag.scale != 4) && (settings.mag.scale != 8) && (settings.mag.scale != 12) && (setti
 2156              		.loc 1 486 0
 2157 0086 40F20003 		movw	r3, #:lower16:settings
 2158 008a C0F20003 		movt	r3, #:upper16:settings
 2159 008e 93F82030 		ldrb	r3, [r3, #32]	@ zero_extendqisi2
 2160 0092 042B     		cmp	r3, #4
 2161 0094 1FD0     		beq	.L56
 2162              		.loc 1 486 0 is_stmt 0 discriminator 1
 2163 0096 40F20003 		movw	r3, #:lower16:settings
 2164 009a C0F20003 		movt	r3, #:upper16:settings
 2165 009e 93F82030 		ldrb	r3, [r3, #32]	@ zero_extendqisi2
 2166 00a2 082B     		cmp	r3, #8
 2167 00a4 17D0     		beq	.L56
 2168 00a6 40F20003 		movw	r3, #:lower16:settings
 2169 00aa C0F20003 		movt	r3, #:upper16:settings
 2170 00ae 93F82030 		ldrb	r3, [r3, #32]	@ zero_extendqisi2
 2171 00b2 0C2B     		cmp	r3, #12
 2172 00b4 0FD0     		beq	.L56
 2173 00b6 40F20003 		movw	r3, #:lower16:settings
 2174 00ba C0F20003 		movt	r3, #:upper16:settings
 2175 00be 93F82030 		ldrb	r3, [r3, #32]	@ zero_extendqisi2
 2176 00c2 102B     		cmp	r3, #16
 2177 00c4 07D0     		beq	.L56
 487:../LSM9DS1_Driver.c **** 	{
 488:../LSM9DS1_Driver.c **** 		settings.mag.scale = 4;
 2178              		.loc 1 488 0 is_stmt 1
 2179 00c6 40F20003 		movw	r3, #:lower16:settings
 2180 00ca C0F20003 		movt	r3, #:upper16:settings
 2181 00ce 4FF00402 		mov	r2, #4
 2182 00d2 83F82020 		strb	r2, [r3, #32]
 2183              	.L56:
 489:../LSM9DS1_Driver.c **** 	}
 490:../LSM9DS1_Driver.c **** }
 2184              		.loc 1 490 0
 2185 00d6 BD46     		mov	sp, r7
 2186 00d8 80BC     		pop	{r7}
 2187 00da 7047     		bx	lr
 2188              		.cfi_endproc
 2189              	.LFE143:
 2191              		.section	.text.initI2C,"ax",%progbits
 2192              		.align	2
 2193              		.global	initI2C
 2194              		.thumb
 2195              		.thumb_func
 2197              	initI2C:
 2198              	.LFB144:
 491:../LSM9DS1_Driver.c **** 
 492:../LSM9DS1_Driver.c **** 
 493:../LSM9DS1_Driver.c **** void initI2C(void)
 494:../LSM9DS1_Driver.c **** {
 2199              		.loc 1 494 0
 2200              		.cfi_startproc
 2201              		@ args = 0, pretend = 0, frame = 0
 2202              		@ frame_needed = 1, uses_anonymous_args = 0
 2203              		@ link register save eliminated.
 2204 0000 80B4     		push	{r7}
 2205              	.LCFI58:
 2206              		.cfi_def_cfa_offset 4
 2207              		.cfi_offset 7, -4
 2208 0002 00AF     		add	r7, sp, #0
 2209              	.LCFI59:
 2210              		.cfi_def_cfa_register 7
 495:../LSM9DS1_Driver.c **** 	;
 496:../LSM9DS1_Driver.c **** }
 2211              		.loc 1 496 0
 2212 0004 BD46     		mov	sp, r7
 2213 0006 80BC     		pop	{r7}
 2214 0008 7047     		bx	lr
 2215              		.cfi_endproc
 2216              	.LFE144:
 2218 000a 00BF     		.section	.text.initSPI,"ax",%progbits
 2219              		.align	2
 2220              		.global	initSPI
 2221              		.thumb
 2222              		.thumb_func
 2224              	initSPI:
 2225              	.LFB145:
 497:../LSM9DS1_Driver.c **** 
 498:../LSM9DS1_Driver.c **** void initSPI(void)
 499:../LSM9DS1_Driver.c **** {
 2226              		.loc 1 499 0
 2227              		.cfi_startproc
 2228              		@ args = 0, pretend = 0, frame = 0
 2229              		@ frame_needed = 1, uses_anonymous_args = 0
 2230              		@ link register save eliminated.
 2231 0000 80B4     		push	{r7}
 2232              	.LCFI60:
 2233              		.cfi_def_cfa_offset 4
 2234              		.cfi_offset 7, -4
 2235 0002 00AF     		add	r7, sp, #0
 2236              	.LCFI61:
 2237              		.cfi_def_cfa_register 7
 500:../LSM9DS1_Driver.c **** 	;
 501:../LSM9DS1_Driver.c **** }
 2238              		.loc 1 501 0
 2239 0004 BD46     		mov	sp, r7
 2240 0006 80BC     		pop	{r7}
 2241 0008 7047     		bx	lr
 2242              		.cfi_endproc
 2243              	.LFE145:
 2245 000a 00BF     		.section	.text.calcgRes,"ax",%progbits
 2246              		.align	2
 2247              		.global	calcgRes
 2248              		.thumb
 2249              		.thumb_func
 2251              	calcgRes:
 2252              	.LFB146:
 502:../LSM9DS1_Driver.c **** 
 503:../LSM9DS1_Driver.c **** void calcgRes()
 504:../LSM9DS1_Driver.c **** {
 2253              		.loc 1 504 0
 2254              		.cfi_startproc
 2255              		@ args = 0, pretend = 0, frame = 0
 2256              		@ frame_needed = 1, uses_anonymous_args = 0
 2257              		@ link register save eliminated.
 2258 0000 80B4     		push	{r7}
 2259              	.LCFI62:
 2260              		.cfi_def_cfa_offset 4
 2261              		.cfi_offset 7, -4
 2262 0002 00AF     		add	r7, sp, #0
 2263              	.LCFI63:
 2264              		.cfi_def_cfa_register 7
 505:../LSM9DS1_Driver.c **** 	gRes = ((float) settings.gyro.scale) / 32768.0;
 2265              		.loc 1 505 0
 2266 0004 40F20003 		movw	r3, #:lower16:settings
 2267 0008 C0F20003 		movt	r3, #:upper16:settings
 2268 000c DB88     		ldrh	r3, [r3, #6]
 2269 000e 07EE903A 		fmsr	s15, r3	@ int
 2270 0012 B8EE677A 		fuitos	s14, s15
 2271 0016 DFED067A 		flds	s15, .L63
 2272 001a C7EE277A 		fdivs	s15, s14, s15
 2273 001e 40F20003 		movw	r3, #:lower16:gRes
 2274 0022 C0F20003 		movt	r3, #:upper16:gRes
 2275 0026 C3ED007A 		fsts	s15, [r3, #0]
 506:../LSM9DS1_Driver.c **** }
 2276              		.loc 1 506 0
 2277 002a BD46     		mov	sp, r7
 2278 002c 80BC     		pop	{r7}
 2279 002e 7047     		bx	lr
 2280              	.L64:
 2281              		.align	2
 2282              	.L63:
 2283 0030 00000047 		.word	1191182336
 2284              		.cfi_endproc
 2285              	.LFE146:
 2287              		.section	.text.calcaRes,"ax",%progbits
 2288              		.align	2
 2289              		.global	calcaRes
 2290              		.thumb
 2291              		.thumb_func
 2293              	calcaRes:
 2294              	.LFB147:
 507:../LSM9DS1_Driver.c **** 
 508:../LSM9DS1_Driver.c **** void calcaRes()
 509:../LSM9DS1_Driver.c **** {
 2295              		.loc 1 509 0
 2296              		.cfi_startproc
 2297              		@ args = 0, pretend = 0, frame = 0
 2298              		@ frame_needed = 1, uses_anonymous_args = 0
 2299              		@ link register save eliminated.
 2300 0000 80B4     		push	{r7}
 2301              	.LCFI64:
 2302              		.cfi_def_cfa_offset 4
 2303              		.cfi_offset 7, -4
 2304 0002 00AF     		add	r7, sp, #0
 2305              	.LCFI65:
 2306              		.cfi_def_cfa_register 7
 510:../LSM9DS1_Driver.c **** 	aRes = ((float) settings.accel.scale) / 32768.0;
 2307              		.loc 1 510 0
 2308 0004 40F20003 		movw	r3, #:lower16:settings
 2309 0008 C0F20003 		movt	r3, #:upper16:settings
 2310 000c DB7D     		ldrb	r3, [r3, #23]	@ zero_extendqisi2
 2311 000e 07EE903A 		fmsr	s15, r3	@ int
 2312 0012 B8EE677A 		fuitos	s14, s15
 2313 0016 DFED067A 		flds	s15, .L66
 2314 001a C7EE277A 		fdivs	s15, s14, s15
 2315 001e 40F20003 		movw	r3, #:lower16:aRes
 2316 0022 C0F20003 		movt	r3, #:upper16:aRes
 2317 0026 C3ED007A 		fsts	s15, [r3, #0]
 511:../LSM9DS1_Driver.c **** }
 2318              		.loc 1 511 0
 2319 002a BD46     		mov	sp, r7
 2320 002c 80BC     		pop	{r7}
 2321 002e 7047     		bx	lr
 2322              	.L67:
 2323              		.align	2
 2324              	.L66:
 2325 0030 00000047 		.word	1191182336
 2326              		.cfi_endproc
 2327              	.LFE147:
 2329              		.section	.text.calcmRes,"ax",%progbits
 2330              		.align	2
 2331              		.global	calcmRes
 2332              		.thumb
 2333              		.thumb_func
 2335              	calcmRes:
 2336              	.LFB148:
 512:../LSM9DS1_Driver.c **** 
 513:../LSM9DS1_Driver.c **** 
 514:../LSM9DS1_Driver.c **** void calcmRes()
 515:../LSM9DS1_Driver.c **** {
 2337              		.loc 1 515 0
 2338              		.cfi_startproc
 2339              		@ args = 0, pretend = 0, frame = 0
 2340              		@ frame_needed = 1, uses_anonymous_args = 0
 2341              		@ link register save eliminated.
 2342 0000 80B4     		push	{r7}
 2343              	.LCFI66:
 2344              		.cfi_def_cfa_offset 4
 2345              		.cfi_offset 7, -4
 2346 0002 00AF     		add	r7, sp, #0
 2347              	.LCFI67:
 2348              		.cfi_def_cfa_register 7
 516:../LSM9DS1_Driver.c **** 	//mRes = ((float) settings.mag.scale) / 32768.0;
 517:../LSM9DS1_Driver.c **** 	switch (settings.mag.scale)
 2349              		.loc 1 517 0
 2350 0004 40F20003 		movw	r3, #:lower16:settings
 2351 0008 C0F20003 		movt	r3, #:upper16:settings
 2352 000c 93F82030 		ldrb	r3, [r3, #32]	@ zero_extendqisi2
 2353 0010 A3F10403 		sub	r3, r3, #4
 2354 0014 0C2B     		cmp	r3, #12
 2355 0016 49D8     		bhi	.L68
 2356 0018 01A2     		adr	r2, .L74
 2357 001a 52F823F0 		ldr	pc, [r2, r3, lsl #2]
 2358 001e 00BF     		.align	2
 2359              	.L74:
 2360 0020 55000000 		.word	.L70+1
 2361 0024 AD000000 		.word	.L68+1
 2362 0028 AD000000 		.word	.L68+1
 2363 002c AD000000 		.word	.L68+1
 2364 0030 6B000000 		.word	.L71+1
 2365 0034 AD000000 		.word	.L68+1
 2366 0038 AD000000 		.word	.L68+1
 2367 003c AD000000 		.word	.L68+1
 2368 0040 81000000 		.word	.L72+1
 2369 0044 AD000000 		.word	.L68+1
 2370 0048 AD000000 		.word	.L68+1
 2371 004c AD000000 		.word	.L68+1
 2372 0050 97000000 		.word	.L73+1
 2373              	.L70:
 518:../LSM9DS1_Driver.c **** 	{
 519:../LSM9DS1_Driver.c **** 		case 4:
 520:../LSM9DS1_Driver.c **** 			mRes = magSensitivity[0];
 2374              		.loc 1 520 0
 2375 0054 40F20003 		movw	r3, #:lower16:magSensitivity
 2376 0058 C0F20003 		movt	r3, #:upper16:magSensitivity
 2377 005c 1A68     		ldr	r2, [r3, #0]	@ float
 2378 005e 40F20003 		movw	r3, #:lower16:mRes
 2379 0062 C0F20003 		movt	r3, #:upper16:mRes
 2380 0066 1A60     		str	r2, [r3, #0]	@ float
 521:../LSM9DS1_Driver.c **** 			break;
 2381              		.loc 1 521 0
 2382 0068 20E0     		b	.L68
 2383              	.L71:
 522:../LSM9DS1_Driver.c **** 		case 8:
 523:../LSM9DS1_Driver.c **** 			mRes = magSensitivity[1];
 2384              		.loc 1 523 0
 2385 006a 40F20003 		movw	r3, #:lower16:magSensitivity
 2386 006e C0F20003 		movt	r3, #:upper16:magSensitivity
 2387 0072 5A68     		ldr	r2, [r3, #4]	@ float
 2388 0074 40F20003 		movw	r3, #:lower16:mRes
 2389 0078 C0F20003 		movt	r3, #:upper16:mRes
 2390 007c 1A60     		str	r2, [r3, #0]	@ float
 524:../LSM9DS1_Driver.c **** 			break;
 2391              		.loc 1 524 0
 2392 007e 15E0     		b	.L68
 2393              	.L72:
 525:../LSM9DS1_Driver.c **** 		case 12:
 526:../LSM9DS1_Driver.c **** 			mRes = magSensitivity[2];
 2394              		.loc 1 526 0
 2395 0080 40F20003 		movw	r3, #:lower16:magSensitivity
 2396 0084 C0F20003 		movt	r3, #:upper16:magSensitivity
 2397 0088 9A68     		ldr	r2, [r3, #8]	@ float
 2398 008a 40F20003 		movw	r3, #:lower16:mRes
 2399 008e C0F20003 		movt	r3, #:upper16:mRes
 2400 0092 1A60     		str	r2, [r3, #0]	@ float
 527:../LSM9DS1_Driver.c **** 			break;
 2401              		.loc 1 527 0
 2402 0094 0AE0     		b	.L68
 2403              	.L73:
 528:../LSM9DS1_Driver.c **** 		case 16:
 529:../LSM9DS1_Driver.c **** 			mRes = magSensitivity[3];
 2404              		.loc 1 529 0
 2405 0096 40F20003 		movw	r3, #:lower16:magSensitivity
 2406 009a C0F20003 		movt	r3, #:upper16:magSensitivity
 2407 009e DA68     		ldr	r2, [r3, #12]	@ float
 2408 00a0 40F20003 		movw	r3, #:lower16:mRes
 2409 00a4 C0F20003 		movt	r3, #:upper16:mRes
 2410 00a8 1A60     		str	r2, [r3, #0]	@ float
 530:../LSM9DS1_Driver.c **** 			break;
 2411              		.loc 1 530 0
 2412 00aa 00BF     		nop
 2413              	.L68:
 531:../LSM9DS1_Driver.c **** 	}
 532:../LSM9DS1_Driver.c **** 
 533:../LSM9DS1_Driver.c **** }
 2414              		.loc 1 533 0
 2415 00ac BD46     		mov	sp, r7
 2416 00ae 80BC     		pop	{r7}
 2417 00b0 7047     		bx	lr
 2418              		.cfi_endproc
 2419              	.LFE148:
 2421 00b2 00BF     		.section	.text.delay,"ax",%progbits
 2422              		.align	2
 2423              		.global	delay
 2424              		.thumb
 2425              		.thumb_func
 2427              	delay:
 2428              	.LFB149:
 534:../LSM9DS1_Driver.c **** 
 535:../LSM9DS1_Driver.c **** void delay(int d)
 536:../LSM9DS1_Driver.c **** {
 2429              		.loc 1 536 0
 2430              		.cfi_startproc
 2431              		@ args = 0, pretend = 0, frame = 16
 2432              		@ frame_needed = 1, uses_anonymous_args = 0
 2433              		@ link register save eliminated.
 2434 0000 80B4     		push	{r7}
 2435              	.LCFI68:
 2436              		.cfi_def_cfa_offset 4
 2437              		.cfi_offset 7, -4
 2438 0002 85B0     		sub	sp, sp, #20
 2439              	.LCFI69:
 2440              		.cfi_def_cfa_offset 24
 2441 0004 00AF     		add	r7, sp, #0
 2442              	.LCFI70:
 2443              		.cfi_def_cfa_register 7
 2444 0006 7860     		str	r0, [r7, #4]
 2445              	.LBB5:
 537:../LSM9DS1_Driver.c **** 	for(int i = 0; i < d; i++) i++;
 2446              		.loc 1 537 0
 2447 0008 4FF00003 		mov	r3, #0
 2448 000c FB60     		str	r3, [r7, #12]
 2449 000e 07E0     		b	.L76
 2450              	.L77:
 2451              		.loc 1 537 0 is_stmt 0 discriminator 2
 2452 0010 FB68     		ldr	r3, [r7, #12]
 2453 0012 03F10103 		add	r3, r3, #1
 2454 0016 FB60     		str	r3, [r7, #12]
 2455 0018 FB68     		ldr	r3, [r7, #12]
 2456 001a 03F10103 		add	r3, r3, #1
 2457 001e FB60     		str	r3, [r7, #12]
 2458              	.L76:
 2459              		.loc 1 537 0 discriminator 1
 2460 0020 FA68     		ldr	r2, [r7, #12]
 2461 0022 7B68     		ldr	r3, [r7, #4]
 2462 0024 9A42     		cmp	r2, r3
 2463 0026 F3DB     		blt	.L77
 2464              	.LBE5:
 538:../LSM9DS1_Driver.c **** }
 2465              		.loc 1 538 0 is_stmt 1
 2466 0028 07F11407 		add	r7, r7, #20
 2467 002c BD46     		mov	sp, r7
 2468 002e 80BC     		pop	{r7}
 2469 0030 7047     		bx	lr
 2470              		.cfi_endproc
 2471              	.LFE149:
 2473 0032 00BF     		.section	.text.I2CreadByte,"ax",%progbits
 2474              		.align	2
 2475              		.global	I2CreadByte
 2476              		.thumb
 2477              		.thumb_func
 2479              	I2CreadByte:
 2480              	.LFB150:
 539:../LSM9DS1_Driver.c **** 
 540:../LSM9DS1_Driver.c **** uint8_t I2CreadByte(uint8_t address, uint8_t subAddress)
 541:../LSM9DS1_Driver.c **** {
 2481              		.loc 1 541 0
 2482              		.cfi_startproc
 2483              		@ args = 0, pretend = 0, frame = 40
 2484              		@ frame_needed = 1, uses_anonymous_args = 0
 2485 0000 80B5     		push	{r7, lr}
 2486              	.LCFI71:
 2487              		.cfi_def_cfa_offset 8
 2488              		.cfi_offset 7, -8
 2489              		.cfi_offset 14, -4
 2490 0002 8AB0     		sub	sp, sp, #40
 2491              	.LCFI72:
 2492              		.cfi_def_cfa_offset 48
 2493 0004 00AF     		add	r7, sp, #0
 2494              	.LCFI73:
 2495              		.cfi_def_cfa_register 7
 2496 0006 0246     		mov	r2, r0
 2497 0008 0B46     		mov	r3, r1
 2498 000a FA71     		strb	r2, [r7, #7]
 2499 000c BB71     		strb	r3, [r7, #6]
 542:../LSM9DS1_Driver.c **** 	uint32_t stageOfReading = 0;
 2500              		.loc 1 542 0
 2501 000e 4FF00003 		mov	r3, #0
 2502 0012 3B62     		str	r3, [r7, #32]
 543:../LSM9DS1_Driver.c **** 
 544:../LSM9DS1_Driver.c **** 	//deviceAddress address = *((deviceAddress*)T);
 545:../LSM9DS1_Driver.c **** 
 546:../LSM9DS1_Driver.c **** 		I2C001_DataType data1;
 547:../LSM9DS1_Driver.c **** 		data1.Data1.TDF_Type = I2C_TDF_MStart;
 2503              		.loc 1 547 0
 2504 0014 4FF00403 		mov	r3, #4
 2505 0018 7B76     		strb	r3, [r7, #25]
 548:../LSM9DS1_Driver.c **** 		data1.Data1.Data = ((address<<1) | I2C_WRITE);
 2506              		.loc 1 548 0
 2507 001a FB79     		ldrb	r3, [r7, #7]
 2508 001c 4FEA4303 		lsl	r3, r3, #1
 2509 0020 DBB2     		uxtb	r3, r3
 2510 0022 3B76     		strb	r3, [r7, #24]
 549:../LSM9DS1_Driver.c **** 		/*while(!*/I2C001_WriteData(&I2C001_Handle0,&data1);/*);*/
 2511              		.loc 1 549 0
 2512 0024 07F11803 		add	r3, r7, #24
 2513 0028 40F20000 		movw	r0, #:lower16:I2C001_Handle0
 2514 002c C0F20000 		movt	r0, #:upper16:I2C001_Handle0
 2515 0030 1946     		mov	r1, r3
 2516 0032 FFF7FEFF 		bl	I2C001_WriteData
 550:../LSM9DS1_Driver.c **** 
 551:../LSM9DS1_Driver.c **** 		delay(DELAY*10);
 2517              		.loc 1 551 0
 2518 0036 42F6E060 		movw	r0, #12000
 2519 003a FFF7FEFF 		bl	delay
 552:../LSM9DS1_Driver.c **** 
 553:../LSM9DS1_Driver.c **** 		I2C001_DataType data2;
 554:../LSM9DS1_Driver.c **** 		data2.Data1.TDF_Type = I2C_TDF_MTxData;
 2520              		.loc 1 554 0
 2521 003e 4FF00003 		mov	r3, #0
 2522 0042 7B75     		strb	r3, [r7, #21]
 555:../LSM9DS1_Driver.c **** 		data2.Data1.Data = subAddress;
 2523              		.loc 1 555 0
 2524 0044 BB79     		ldrb	r3, [r7, #6]
 2525 0046 3B75     		strb	r3, [r7, #20]
 556:../LSM9DS1_Driver.c **** 		/*while(!*/I2C001_WriteData(&I2C001_Handle0,&data2);/*);*/
 2526              		.loc 1 556 0
 2527 0048 07F11403 		add	r3, r7, #20
 2528 004c 40F20000 		movw	r0, #:lower16:I2C001_Handle0
 2529 0050 C0F20000 		movt	r0, #:upper16:I2C001_Handle0
 2530 0054 1946     		mov	r1, r3
 2531 0056 FFF7FEFF 		bl	I2C001_WriteData
 557:../LSM9DS1_Driver.c **** 
 558:../LSM9DS1_Driver.c **** 		delay(DELAY*10);
 2532              		.loc 1 558 0
 2533 005a 42F6E060 		movw	r0, #12000
 2534 005e FFF7FEFF 		bl	delay
 559:../LSM9DS1_Driver.c **** 
 560:../LSM9DS1_Driver.c **** 		//delay(15000);
 561:../LSM9DS1_Driver.c **** 		I2C001_DataType data3;
 562:../LSM9DS1_Driver.c **** 		data3.Data1.TDF_Type = I2C_TDF_MRStart;
 2535              		.loc 1 562 0
 2536 0062 4FF00503 		mov	r3, #5
 2537 0066 7B74     		strb	r3, [r7, #17]
 563:../LSM9DS1_Driver.c **** 		data3.Data1.Data = ((address<<1) | I2C_READ);
 2538              		.loc 1 563 0
 2539 0068 FB79     		ldrb	r3, [r7, #7]
 2540 006a 4FEA4303 		lsl	r3, r3, #1
 2541 006e DBB2     		uxtb	r3, r3
 2542 0070 43F00103 		orr	r3, r3, #1
 2543 0074 DBB2     		uxtb	r3, r3
 2544 0076 3B74     		strb	r3, [r7, #16]
 564:../LSM9DS1_Driver.c **** 		/*while(!*/I2C001_WriteData(&I2C001_Handle0,&data3);/*);*/
 2545              		.loc 1 564 0
 2546 0078 07F11003 		add	r3, r7, #16
 2547 007c 40F20000 		movw	r0, #:lower16:I2C001_Handle0
 2548 0080 C0F20000 		movt	r0, #:upper16:I2C001_Handle0
 2549 0084 1946     		mov	r1, r3
 2550 0086 FFF7FEFF 		bl	I2C001_WriteData
 565:../LSM9DS1_Driver.c **** 
 566:../LSM9DS1_Driver.c **** 		delay(DELAY*10);
 2551              		.loc 1 566 0
 2552 008a 42F6E060 		movw	r0, #12000
 2553 008e FFF7FEFF 		bl	delay
 567:../LSM9DS1_Driver.c **** 
 568:../LSM9DS1_Driver.c **** 
 569:../LSM9DS1_Driver.c **** 		I2C001_DataType data4;
 570:../LSM9DS1_Driver.c **** 		data4.Data1.TDF_Type = I2C_TDF_MRxAck1;
 2554              		.loc 1 570 0
 2555 0092 4FF00303 		mov	r3, #3
 2556 0096 7B73     		strb	r3, [r7, #13]
 571:../LSM9DS1_Driver.c **** 		data4.Data1.Data = ubyteFF;
 2557              		.loc 1 571 0
 2558 0098 4FF0FF03 		mov	r3, #255
 2559 009c 3B73     		strb	r3, [r7, #12]
 572:../LSM9DS1_Driver.c **** 		/*while(!*/I2C001_WriteData(&I2C001_Handle0,&data4);/*);*/
 2560              		.loc 1 572 0
 2561 009e 07F10C03 		add	r3, r7, #12
 2562 00a2 40F20000 		movw	r0, #:lower16:I2C001_Handle0
 2563 00a6 C0F20000 		movt	r0, #:upper16:I2C001_Handle0
 2564 00aa 1946     		mov	r1, r3
 2565 00ac FFF7FEFF 		bl	I2C001_WriteData
 573:../LSM9DS1_Driver.c **** 
 574:../LSM9DS1_Driver.c **** 
 575:../LSM9DS1_Driver.c **** 		/*while (!(I2C001_SET == I2C001_GetFlagStatus(&I2C001_Handle0, I2C001_FLAG_RIF)))
 576:../LSM9DS1_Driver.c **** 		{
 577:../LSM9DS1_Driver.c **** 			int i = 0;
 578:../LSM9DS1_Driver.c **** 			if(I2C001_GetFlagStatus(&I2C001_Handle0, I2C001_FLAG_NACK_RECEIVED))
 579:../LSM9DS1_Driver.c **** 			{
 580:../LSM9DS1_Driver.c **** 				break;
 581:../LSM9DS1_Driver.c **** 			}
 582:../LSM9DS1_Driver.c **** 		};*/
 583:../LSM9DS1_Driver.c **** 
 584:../LSM9DS1_Driver.c **** 		delay(DELAY);
 2566              		.loc 1 584 0
 2567 00b0 4FF49660 		mov	r0, #1200
 2568 00b4 FFF7FEFF 		bl	delay
 585:../LSM9DS1_Driver.c **** 
 586:../LSM9DS1_Driver.c **** 		I2C001_DataType data5;
 587:../LSM9DS1_Driver.c **** 		data5.Data1.TDF_Type = I2C_TDF_MStop;
 2569              		.loc 1 587 0
 2570 00b8 4FF00603 		mov	r3, #6
 2571 00bc 7B72     		strb	r3, [r7, #9]
 588:../LSM9DS1_Driver.c **** 		data5.Data1.Data = ubyteFF;
 2572              		.loc 1 588 0
 2573 00be 4FF0FF03 		mov	r3, #255
 2574 00c2 3B72     		strb	r3, [r7, #8]
 589:../LSM9DS1_Driver.c **** 		/*while(!*/I2C001_WriteData(&I2C001_Handle0,&data5);/*);*/
 2575              		.loc 1 589 0
 2576 00c4 07F10803 		add	r3, r7, #8
 2577 00c8 40F20000 		movw	r0, #:lower16:I2C001_Handle0
 2578 00cc C0F20000 		movt	r0, #:upper16:I2C001_Handle0
 2579 00d0 1946     		mov	r1, r3
 2580 00d2 FFF7FEFF 		bl	I2C001_WriteData
 590:../LSM9DS1_Driver.c **** 		stageOfReading++;
 2581              		.loc 1 590 0
 2582 00d6 3B6A     		ldr	r3, [r7, #32]
 2583 00d8 03F10103 		add	r3, r3, #1
 2584 00dc 3B62     		str	r3, [r7, #32]
 591:../LSM9DS1_Driver.c **** 
 592:../LSM9DS1_Driver.c **** 
 593:../LSM9DS1_Driver.c **** 		int k = 0;
 2585              		.loc 1 593 0
 2586 00de 4FF00003 		mov	r3, #0
 2587 00e2 7B62     		str	r3, [r7, #36]
 594:../LSM9DS1_Driver.c **** 		while(0 == received){k++; if(k > 4000) break; }
 2588              		.loc 1 594 0
 2589 00e4 07E0     		b	.L79
 2590              	.L81:
 2591              		.loc 1 594 0 is_stmt 0 discriminator 2
 2592 00e6 7B6A     		ldr	r3, [r7, #36]
 2593 00e8 03F10103 		add	r3, r3, #1
 2594 00ec 7B62     		str	r3, [r7, #36]
 2595 00ee 7B6A     		ldr	r3, [r7, #36]
 2596 00f0 B3F57A6F 		cmp	r3, #4000
 2597 00f4 07DC     		bgt	.L83
 2598              	.L79:
 2599              		.loc 1 594 0 discriminator 1
 2600 00f6 40F20003 		movw	r3, #:lower16:received
 2601 00fa C0F20003 		movt	r3, #:upper16:received
 2602 00fe 1B78     		ldrb	r3, [r3, #0]	@ zero_extendqisi2
 2603 0100 002B     		cmp	r3, #0
 2604 0102 F0D0     		beq	.L81
 2605 0104 00E0     		b	.L80
 2606              	.L83:
 2607              		.loc 1 594 0
 2608 0106 00BF     		nop
 2609              	.L80:
 595:../LSM9DS1_Driver.c **** 		received = 0;
 2610              		.loc 1 595 0 is_stmt 1
 2611 0108 40F20003 		movw	r3, #:lower16:received
 2612 010c C0F20003 		movt	r3, #:upper16:received
 2613 0110 4FF00002 		mov	r2, #0
 2614 0114 1A70     		strb	r2, [r3, #0]
 596:../LSM9DS1_Driver.c **** 		delay(DELAY*10);
 2615              		.loc 1 596 0
 2616 0116 42F6E060 		movw	r0, #12000
 2617 011a FFF7FEFF 		bl	delay
 597:../LSM9DS1_Driver.c **** 		int j = USIC_GetRxFIFOFillingLevel(I2C001_Handle0.I2CRegs);
 2618              		.loc 1 597 0
 2619 011e 40F20003 		movw	r3, #:lower16:I2C001_Handle0
 2620 0122 C0F20003 		movt	r3, #:upper16:I2C001_Handle0
 2621 0126 5B68     		ldr	r3, [r3, #4]
 2622 0128 D3F81431 		ldr	r3, [r3, #276]
 2623 012c 03F4FE03 		and	r3, r3, #8323072
 2624 0130 4FEA1343 		lsr	r3, r3, #16
 2625 0134 FB61     		str	r3, [r7, #28]
 598:../LSM9DS1_Driver.c **** 
 599:../LSM9DS1_Driver.c **** 		//uint16_t DataReceive1 = 0;
 600:../LSM9DS1_Driver.c **** 		//(USIC_ubIsRxFIFOempty(I2C001_Handle0.I2CRegs)){};
 601:../LSM9DS1_Driver.c **** 		//delay(15000);
 602:../LSM9DS1_Driver.c **** 
 603:../LSM9DS1_Driver.c **** 
 604:../LSM9DS1_Driver.c **** 		/*while(I2C001_GetFlagStatus(&I2C001_Handle0, I2C001_FLAG_SRBI) ==
 605:../LSM9DS1_Driver.c **** 		I2C001_RESET)
 606:../LSM9DS1_Driver.c **** 		{
 607:../LSM9DS1_Driver.c **** 			int i = 0;
 608:../LSM9DS1_Driver.c **** 			I2C001_ClearFlag(&I2C001_Handle0, I2C001_FLAG_RIF);
 609:../LSM9DS1_Driver.c **** 			I2C001_ClearFlag(&I2C001_Handle0, I2C001_FLAG_RSIF);
 610:../LSM9DS1_Driver.c **** 		}
 611:../LSM9DS1_Driver.c **** 		while(USIC_ubIsRxFIFOempty(I2C001_Handle0.I2CRegs));
 612:../LSM9DS1_Driver.c **** 		I2C001_ReadData(&I2C001_Handle0,&DataReceive1);
 613:../LSM9DS1_Driver.c **** 		int j = USIC_GetRxFIFOFillingLevel(I2C001_Handle0.I2CRegs);*/
 614:../LSM9DS1_Driver.c **** 
 615:../LSM9DS1_Driver.c **** 
 616:../LSM9DS1_Driver.c **** 		//I2C001_Handle0.I2CRegs->TRBSCR;
 617:../LSM9DS1_Driver.c **** 		/*while(I2C001_SET == I2C001_GetFlagStatus(&I2C001_Handle0, I2C001_FLAG_RIF))
 618:../LSM9DS1_Driver.c **** 		{
 619:../LSM9DS1_Driver.c **** 			I2C001_ClearFlag(&I2C001_Handle0, I2C001_FLAG_RIF);
 620:../LSM9DS1_Driver.c **** 		}
 621:../LSM9DS1_Driver.c **** 
 622:../LSM9DS1_Driver.c **** 		while(I2C001_SET == I2C001_GetFlagStatus(&I2C001_Handle0, I2C001_FLAG_RSIF))
 623:../LSM9DS1_Driver.c **** 		{
 624:../LSM9DS1_Driver.c **** 			I2C001_ClearFlag(&I2C001_Handle0, I2C001_FLAG_RSIF);
 625:../LSM9DS1_Driver.c **** 		}
 626:../LSM9DS1_Driver.c **** 
 627:../LSM9DS1_Driver.c **** 		while(I2C001_SET == I2C001_GetFlagStatus(&I2C001_Handle0, I2C001_FLAG_DLIF))
 628:../LSM9DS1_Driver.c **** 		{
 629:../LSM9DS1_Driver.c **** 			I2C001_ClearFlag(&I2C001_Handle0, I2C001_FLAG_DLIF);
 630:../LSM9DS1_Driver.c **** 		}
 631:../LSM9DS1_Driver.c **** 
 632:../LSM9DS1_Driver.c **** 		while(I2C001_SET == I2C001_GetFlagStatus(&I2C001_Handle0, I2C001_FLAG_RBERI))
 633:../LSM9DS1_Driver.c **** 		{
 634:../LSM9DS1_Driver.c **** 			I2C001_ClearFlag(&I2C001_Handle0, I2C001_FLAG_RBERI);
 635:../LSM9DS1_Driver.c **** 		}*/
 636:../LSM9DS1_Driver.c **** 		//I2C001_ClearFlag(&I2C001_Handle0, I2C001_FLAG_RSIF);
 637:../LSM9DS1_Driver.c **** 
 638:../LSM9DS1_Driver.c **** 		/*uint16_t DataReceive1 = 0;
 639:../LSM9DS1_Driver.c **** 		while (!I2C001_GetFlagStatus(&I2C001_Handle0, I2C001_FLAG_RIF));
 640:../LSM9DS1_Driver.c **** 		if(I2C001_ReadData(&I2C001_Handle0,&DataReceive1))
 641:../LSM9DS1_Driver.c **** 		{
 642:../LSM9DS1_Driver.c **** 			I2C001_ClearFlag(&I2C001_Handle0, I2C001_FLAG_RIF);
 643:../LSM9DS1_Driver.c **** 			I2C001_ClearFlag(&I2C001_Handle0, I2C001_FLAG_RSIF);
 644:../LSM9DS1_Driver.c **** 
 645:../LSM9DS1_Driver.c **** 			stageOfReading++;
 646:../LSM9DS1_Driver.c **** 			delay(DELAY);
 647:../LSM9DS1_Driver.c **** 		}
 648:../LSM9DS1_Driver.c **** 		else
 649:../LSM9DS1_Driver.c **** 		{
 650:../LSM9DS1_Driver.c **** 			stageOfReading--;
 651:../LSM9DS1_Driver.c **** 		}*/
 652:../LSM9DS1_Driver.c **** 
 653:../LSM9DS1_Driver.c **** 		return (uint8_t)DataReceive1;
 2626              		.loc 1 653 0
 2627 0136 40F20003 		movw	r3, #:lower16:DataReceive1
 2628 013a C0F20003 		movt	r3, #:upper16:DataReceive1
 2629 013e 1B88     		ldrh	r3, [r3, #0]
 2630 0140 DBB2     		uxtb	r3, r3
 654:../LSM9DS1_Driver.c **** }
 2631              		.loc 1 654 0
 2632 0142 1846     		mov	r0, r3
 2633 0144 07F12807 		add	r7, r7, #40
 2634 0148 BD46     		mov	sp, r7
 2635 014a 80BD     		pop	{r7, pc}
 2636              		.cfi_endproc
 2637              	.LFE150:
 2639              		.section	.text.USIC2_2_IRQHandler,"ax",%progbits
 2640              		.align	2
 2641              		.global	USIC2_2_IRQHandler
 2642              		.thumb
 2643              		.thumb_func
 2645              	USIC2_2_IRQHandler:
 2646              	.LFB151:
 655:../LSM9DS1_Driver.c **** 
 656:../LSM9DS1_Driver.c **** void FIFO_Receive_Int_Handler(void)
 657:../LSM9DS1_Driver.c **** {
 2647              		.loc 1 657 0
 2648              		.cfi_startproc
 2649              		@ args = 0, pretend = 0, frame = 0
 2650              		@ frame_needed = 1, uses_anonymous_args = 0
 2651 0000 80B5     		push	{r7, lr}
 2652              	.LCFI74:
 2653              		.cfi_def_cfa_offset 8
 2654              		.cfi_offset 7, -8
 2655              		.cfi_offset 14, -4
 2656 0002 00AF     		add	r7, sp, #0
 2657              	.LCFI75:
 2658              		.cfi_def_cfa_register 7
 658:../LSM9DS1_Driver.c **** 	/*uint16_t */DataReceive1 = 0;
 2659              		.loc 1 658 0
 2660 0004 40F20003 		movw	r3, #:lower16:DataReceive1
 2661 0008 C0F20003 		movt	r3, #:upper16:DataReceive1
 2662 000c 4FF00002 		mov	r2, #0
 2663 0010 1A80     		strh	r2, [r3, #0]	@ movhi
 659:../LSM9DS1_Driver.c **** 
 660:../LSM9DS1_Driver.c **** 	I2C001_ReadData(&I2C001_Handle0,&DataReceive1);
 2664              		.loc 1 660 0
 2665 0012 40F20000 		movw	r0, #:lower16:I2C001_Handle0
 2666 0016 C0F20000 		movt	r0, #:upper16:I2C001_Handle0
 2667 001a 40F20001 		movw	r1, #:lower16:DataReceive1
 2668 001e C0F20001 		movt	r1, #:upper16:DataReceive1
 2669 0022 FFF7FEFF 		bl	I2C001_ReadData
 661:../LSM9DS1_Driver.c **** 	//delay(10000);
 662:../LSM9DS1_Driver.c **** 	received = 1;
 2670              		.loc 1 662 0
 2671 0026 40F20003 		movw	r3, #:lower16:received
 2672 002a C0F20003 		movt	r3, #:upper16:received
 2673 002e 4FF00102 		mov	r2, #1
 2674 0032 1A70     		strb	r2, [r3, #0]
 663:../LSM9DS1_Driver.c **** }
 2675              		.loc 1 663 0
 2676 0034 80BD     		pop	{r7, pc}
 2677              		.cfi_endproc
 2678              	.LFE151:
 2680 0036 00BF     		.section	.text.CCU81_0_IRQHandler,"ax",%progbits
 2681              		.align	2
 2682              		.global	CCU81_0_IRQHandler
 2683              		.thumb
 2684              		.thumb_func
 2686              	CCU81_0_IRQHandler:
 2687              	.LFB152:
 664:../LSM9DS1_Driver.c **** 
 665:../LSM9DS1_Driver.c **** void IIC_Prot_Int_Handler(void)
 666:../LSM9DS1_Driver.c **** {
 2688              		.loc 1 666 0
 2689              		.cfi_startproc
 2690              		@ args = 0, pretend = 0, frame = 0
 2691              		@ frame_needed = 1, uses_anonymous_args = 0
 2692              		@ link register save eliminated.
 2693 0000 80B4     		push	{r7}
 2694              	.LCFI76:
 2695              		.cfi_def_cfa_offset 4
 2696              		.cfi_offset 7, -4
 2697 0002 00AF     		add	r7, sp, #0
 2698              	.LCFI77:
 2699              		.cfi_def_cfa_register 7
 667:../LSM9DS1_Driver.c **** 	  I2C001_Handle0.I2CRegs->FMR = 0x00000002U  << USIC_CH_FMR_MTDV_Pos;	// clear TDV and TE
 2700              		.loc 1 667 0
 2701 0004 40F20003 		movw	r3, #:lower16:I2C001_Handle0
 2702 0008 C0F20003 		movt	r3, #:upper16:I2C001_Handle0
 2703 000c 5B68     		ldr	r3, [r3, #4]
 2704 000e 4FF00202 		mov	r2, #2
 2705 0012 9A66     		str	r2, [r3, #104]
 668:../LSM9DS1_Driver.c **** 	  I2C001_Handle0.I2CRegs->TRBSCR = USIC_CH_TRBSCR_FLUSHTB_Msk;			// flush FIFO transmit buffer
 2706              		.loc 1 668 0
 2707 0014 40F20003 		movw	r3, #:lower16:I2C001_Handle0
 2708 0018 C0F20003 		movt	r3, #:upper16:I2C001_Handle0
 2709 001c 5B68     		ldr	r3, [r3, #4]
 2710 001e 4FF40042 		mov	r2, #32768
 2711 0022 C3F81821 		str	r2, [r3, #280]
 669:../LSM9DS1_Driver.c **** 	  I2C001_Handle0.I2CRegs->PSCR |= USIC_CH_PSCR_CST5_Msk;				// clear PSR.NACK flag
 2712              		.loc 1 669 0
 2713 0026 40F20003 		movw	r3, #:lower16:I2C001_Handle0
 2714 002a C0F20003 		movt	r3, #:upper16:I2C001_Handle0
 2715 002e 5A68     		ldr	r2, [r3, #4]
 2716 0030 40F20003 		movw	r3, #:lower16:I2C001_Handle0
 2717 0034 C0F20003 		movt	r3, #:upper16:I2C001_Handle0
 2718 0038 5B68     		ldr	r3, [r3, #4]
 2719 003a DB6C     		ldr	r3, [r3, #76]
 2720 003c 43F02003 		orr	r3, r3, #32
 2721 0040 D364     		str	r3, [r2, #76]
 670:../LSM9DS1_Driver.c **** 	  IO004_ResetPin(IO004_Handle0);
 2722              		.loc 1 670 0
 2723 0042 40F20003 		movw	r3, #:lower16:IO004_Handle0
 2724 0046 C0F20003 		movt	r3, #:upper16:IO004_Handle0
 2725 004a 5A68     		ldr	r2, [r3, #4]
 2726 004c 40F20003 		movw	r3, #:lower16:IO004_Handle0
 2727 0050 C0F20003 		movt	r3, #:upper16:IO004_Handle0
 2728 0054 5B78     		ldrb	r3, [r3, #1]	@ zero_extendqisi2
 2729 0056 4FF48031 		mov	r1, #65536
 2730 005a 01FA03F3 		lsl	r3, r1, r3
 2731 005e 5360     		str	r3, [r2, #4]
 671:../LSM9DS1_Driver.c **** }
 2732              		.loc 1 671 0
 2733 0060 BD46     		mov	sp, r7
 2734 0062 80BC     		pop	{r7}
 2735 0064 7047     		bx	lr
 2736              		.cfi_endproc
 2737              	.LFE152:
 2739 0066 00BF     		.section	.text.mReadByte,"ax",%progbits
 2740              		.align	2
 2741              		.global	mReadByte
 2742              		.thumb
 2743              		.thumb_func
 2745              	mReadByte:
 2746              	.LFB153:
 672:../LSM9DS1_Driver.c **** 
 673:../LSM9DS1_Driver.c **** 
 674:../LSM9DS1_Driver.c **** uint8_t mReadByte(uint8_t subAddress)
 675:../LSM9DS1_Driver.c **** {
 2747              		.loc 1 675 0
 2748              		.cfi_startproc
 2749              		@ args = 0, pretend = 0, frame = 8
 2750              		@ frame_needed = 1, uses_anonymous_args = 0
 2751 0000 80B5     		push	{r7, lr}
 2752              	.LCFI78:
 2753              		.cfi_def_cfa_offset 8
 2754              		.cfi_offset 7, -8
 2755              		.cfi_offset 14, -4
 2756 0002 82B0     		sub	sp, sp, #8
 2757              	.LCFI79:
 2758              		.cfi_def_cfa_offset 16
 2759 0004 00AF     		add	r7, sp, #0
 2760              	.LCFI80:
 2761              		.cfi_def_cfa_register 7
 2762 0006 0346     		mov	r3, r0
 2763 0008 FB71     		strb	r3, [r7, #7]
 676:../LSM9DS1_Driver.c **** 	// Whether we're using I2C or SPI, read a byte using the
 677:../LSM9DS1_Driver.c **** 	// accelerometer-specific I2C address or SPI CS pin.
 678:../LSM9DS1_Driver.c **** 	if (settings.device.commInterface == IMU_MODE_I2C)
 2764              		.loc 1 678 0
 2765 000a 40F20003 		movw	r3, #:lower16:settings
 2766 000e C0F20003 		movt	r3, #:upper16:settings
 2767 0012 1B78     		ldrb	r3, [r3, #0]	@ zero_extendqisi2
 2768 0014 012B     		cmp	r3, #1
 2769 0016 0BD1     		bne	.L87
 679:../LSM9DS1_Driver.c **** 		return I2CreadByte(_mAddress, subAddress);
 2770              		.loc 1 679 0
 2771 0018 40F20003 		movw	r3, #:lower16:_mAddress
 2772 001c C0F20003 		movt	r3, #:upper16:_mAddress
 2773 0020 1A78     		ldrb	r2, [r3, #0]	@ zero_extendqisi2
 2774 0022 FB79     		ldrb	r3, [r7, #7]	@ zero_extendqisi2
 2775 0024 1046     		mov	r0, r2
 2776 0026 1946     		mov	r1, r3
 2777 0028 FFF7FEFF 		bl	I2CreadByte
 2778 002c 0346     		mov	r3, r0
 2779 002e FFE7     		b	.L86
 2780              	.L87:
 2781              	.L86:
 680:../LSM9DS1_Driver.c **** 	/*else if (settings.device.commInterface == IMU_MODE_SPI)
 681:../LSM9DS1_Driver.c **** 		return SPIreadByte(_mAddress, subAddress);*/
 682:../LSM9DS1_Driver.c **** }
 2782              		.loc 1 682 0
 2783 0030 1846     		mov	r0, r3
 2784 0032 07F10807 		add	r7, r7, #8
 2785 0036 BD46     		mov	sp, r7
 2786 0038 80BD     		pop	{r7, pc}
 2787              		.cfi_endproc
 2788              	.LFE153:
 2790 003a 00BF     		.section	.text.xgReadByte,"ax",%progbits
 2791              		.align	2
 2792              		.global	xgReadByte
 2793              		.thumb
 2794              		.thumb_func
 2796              	xgReadByte:
 2797              	.LFB154:
 683:../LSM9DS1_Driver.c **** 
 684:../LSM9DS1_Driver.c **** uint8_t xgReadByte(uint8_t subAddress)
 685:../LSM9DS1_Driver.c **** {
 2798              		.loc 1 685 0
 2799              		.cfi_startproc
 2800              		@ args = 0, pretend = 0, frame = 8
 2801              		@ frame_needed = 1, uses_anonymous_args = 0
 2802 0000 80B5     		push	{r7, lr}
 2803              	.LCFI81:
 2804              		.cfi_def_cfa_offset 8
 2805              		.cfi_offset 7, -8
 2806              		.cfi_offset 14, -4
 2807 0002 82B0     		sub	sp, sp, #8
 2808              	.LCFI82:
 2809              		.cfi_def_cfa_offset 16
 2810 0004 00AF     		add	r7, sp, #0
 2811              	.LCFI83:
 2812              		.cfi_def_cfa_register 7
 2813 0006 0346     		mov	r3, r0
 2814 0008 FB71     		strb	r3, [r7, #7]
 686:../LSM9DS1_Driver.c **** 	// Whether we're using I2C or SPI, read a byte using the
 687:../LSM9DS1_Driver.c **** 	// gyro-specific I2C address or SPI CS pin.
 688:../LSM9DS1_Driver.c **** 	if (settings.device.commInterface == IMU_MODE_I2C)
 2815              		.loc 1 688 0
 2816 000a 40F20003 		movw	r3, #:lower16:settings
 2817 000e C0F20003 		movt	r3, #:upper16:settings
 2818 0012 1B78     		ldrb	r3, [r3, #0]	@ zero_extendqisi2
 2819 0014 012B     		cmp	r3, #1
 2820 0016 0BD1     		bne	.L90
 689:../LSM9DS1_Driver.c **** 		return I2CreadByte(_xgAddress, subAddress);
 2821              		.loc 1 689 0
 2822 0018 40F20003 		movw	r3, #:lower16:_xgAddress
 2823 001c C0F20003 		movt	r3, #:upper16:_xgAddress
 2824 0020 1A78     		ldrb	r2, [r3, #0]	@ zero_extendqisi2
 2825 0022 FB79     		ldrb	r3, [r7, #7]	@ zero_extendqisi2
 2826 0024 1046     		mov	r0, r2
 2827 0026 1946     		mov	r1, r3
 2828 0028 FFF7FEFF 		bl	I2CreadByte
 2829 002c 0346     		mov	r3, r0
 2830 002e FFE7     		b	.L89
 2831              	.L90:
 2832              	.L89:
 690:../LSM9DS1_Driver.c **** 	/*else if (settings.device.commInterface == IMU_MODE_SPI)
 691:../LSM9DS1_Driver.c **** 		return SPIreadByte(_xgAddress, subAddress);*/
 692:../LSM9DS1_Driver.c **** }
 2833              		.loc 1 692 0
 2834 0030 1846     		mov	r0, r3
 2835 0032 07F10807 		add	r7, r7, #8
 2836 0036 BD46     		mov	sp, r7
 2837 0038 80BD     		pop	{r7, pc}
 2838              		.cfi_endproc
 2839              	.LFE154:
 2841 003a 00BF     		.section	.text.initGyro,"ax",%progbits
 2842              		.align	2
 2843              		.global	initGyro
 2844              		.thumb
 2845              		.thumb_func
 2847              	initGyro:
 2848              	.LFB155:
 693:../LSM9DS1_Driver.c **** 
 694:../LSM9DS1_Driver.c **** void initGyro(void)
 695:../LSM9DS1_Driver.c **** {
 2849              		.loc 1 695 0
 2850              		.cfi_startproc
 2851              		@ args = 0, pretend = 0, frame = 8
 2852              		@ frame_needed = 1, uses_anonymous_args = 0
 2853 0000 80B5     		push	{r7, lr}
 2854              	.LCFI84:
 2855              		.cfi_def_cfa_offset 8
 2856              		.cfi_offset 7, -8
 2857              		.cfi_offset 14, -4
 2858 0002 82B0     		sub	sp, sp, #8
 2859              	.LCFI85:
 2860              		.cfi_def_cfa_offset 16
 2861 0004 00AF     		add	r7, sp, #0
 2862              	.LCFI86:
 2863              		.cfi_def_cfa_register 7
 696:../LSM9DS1_Driver.c **** 	uint8_t tempRegValue = 0;
 2864              		.loc 1 696 0
 2865 0006 4FF00003 		mov	r3, #0
 2866 000a FB71     		strb	r3, [r7, #7]
 697:../LSM9DS1_Driver.c **** 
 698:../LSM9DS1_Driver.c **** 	// CTRL_REG1_G (Default value: 0x00)
 699:../LSM9DS1_Driver.c **** 	// [ODR_G2][ODR_G1][ODR_G0][FS_G1][FS_G0][0][BW_G1][BW_G0]
 700:../LSM9DS1_Driver.c **** 	// ODR_G[2:0] - Output data rate selection
 701:../LSM9DS1_Driver.c **** 	// FS_G[1:0] - Gyroscope full-scale selection
 702:../LSM9DS1_Driver.c **** 	// BW_G[1:0] - Gyroscope bandwidth selection
 703:../LSM9DS1_Driver.c **** 
 704:../LSM9DS1_Driver.c **** 	// To disable gyro, set sample rate bits to 0. We'll only set sample
 705:../LSM9DS1_Driver.c **** 	// rate if the gyro is enabled.
 706:../LSM9DS1_Driver.c **** 	if (settings.gyro.enabled)
 2867              		.loc 1 706 0
 2868 000c 40F20003 		movw	r3, #:lower16:settings
 2869 0010 C0F20003 		movt	r3, #:upper16:settings
 2870 0014 1B79     		ldrb	r3, [r3, #4]	@ zero_extendqisi2
 2871 0016 002B     		cmp	r3, #0
 2872 0018 07D0     		beq	.L93
 707:../LSM9DS1_Driver.c **** 	{
 708:../LSM9DS1_Driver.c **** 		tempRegValue = (settings.gyro.sampleRate & 0x07) << 5;
 2873              		.loc 1 708 0
 2874 001a 40F20003 		movw	r3, #:lower16:settings
 2875 001e C0F20003 		movt	r3, #:upper16:settings
 2876 0022 1B7A     		ldrb	r3, [r3, #8]	@ zero_extendqisi2
 2877 0024 4FEA4313 		lsl	r3, r3, #5
 2878 0028 FB71     		strb	r3, [r7, #7]
 2879              	.L93:
 709:../LSM9DS1_Driver.c **** 	}
 710:../LSM9DS1_Driver.c **** 
 711:../LSM9DS1_Driver.c **** 	switch (settings.gyro.scale)
 2880              		.loc 1 711 0
 2881 002a 40F20003 		movw	r3, #:lower16:settings
 2882 002e C0F20003 		movt	r3, #:upper16:settings
 2883 0032 DB88     		ldrh	r3, [r3, #6]
 2884 0034 B3F5FA7F 		cmp	r3, #500
 2885 0038 03D0     		beq	.L95
 2886 003a B3F5FA6F 		cmp	r3, #2000
 2887 003e 05D0     		beq	.L96
 2888 0040 09E0     		b	.L94
 2889              	.L95:
 712:../LSM9DS1_Driver.c **** 	{
 713:../LSM9DS1_Driver.c **** 		case 500:
 714:../LSM9DS1_Driver.c **** 			tempRegValue |= (0x1 << 3);
 2890              		.loc 1 714 0
 2891 0042 FB79     		ldrb	r3, [r7, #7]
 2892 0044 43F00803 		orr	r3, r3, #8
 2893 0048 FB71     		strb	r3, [r7, #7]
 715:../LSM9DS1_Driver.c **** 			break;
 2894              		.loc 1 715 0
 2895 004a 04E0     		b	.L94
 2896              	.L96:
 716:../LSM9DS1_Driver.c **** 		case 2000:
 717:../LSM9DS1_Driver.c **** 			tempRegValue |= (0x3 << 3);
 2897              		.loc 1 717 0
 2898 004c FB79     		ldrb	r3, [r7, #7]
 2899 004e 43F01803 		orr	r3, r3, #24
 2900 0052 FB71     		strb	r3, [r7, #7]
 718:../LSM9DS1_Driver.c **** 			break;
 2901              		.loc 1 718 0
 2902 0054 00BF     		nop
 2903              	.L94:
 719:../LSM9DS1_Driver.c **** 		// Otherwise we'll set it to 245 dps (0x0 << 4)
 720:../LSM9DS1_Driver.c **** 	}
 721:../LSM9DS1_Driver.c **** 	tempRegValue |= (settings.gyro.bandwidth & 0x3);
 2904              		.loc 1 721 0
 2905 0056 40F20003 		movw	r3, #:lower16:settings
 2906 005a C0F20003 		movt	r3, #:upper16:settings
 2907 005e 5B7A     		ldrb	r3, [r3, #9]	@ zero_extendqisi2
 2908 0060 DBB2     		uxtb	r3, r3
 2909 0062 03F00303 		and	r3, r3, #3
 2910 0066 DAB2     		uxtb	r2, r3
 2911 0068 FB79     		ldrb	r3, [r7, #7]	@ zero_extendqisi2
 2912 006a 1343     		orrs	r3, r3, r2
 2913 006c DBB2     		uxtb	r3, r3
 2914 006e FB71     		strb	r3, [r7, #7]
 722:../LSM9DS1_Driver.c **** 	xgWriteByte(CTRL_REG1_G, tempRegValue);
 2915              		.loc 1 722 0
 2916 0070 FB79     		ldrb	r3, [r7, #7]	@ zero_extendqisi2
 2917 0072 4FF01000 		mov	r0, #16
 2918 0076 1946     		mov	r1, r3
 2919 0078 FFF7FEFF 		bl	xgWriteByte
 723:../LSM9DS1_Driver.c **** 
 724:../LSM9DS1_Driver.c **** 	// CTRL_REG2_G (Default value: 0x00)
 725:../LSM9DS1_Driver.c **** 	// [0][0][0][0][INT_SEL1][INT_SEL0][OUT_SEL1][OUT_SEL0]
 726:../LSM9DS1_Driver.c **** 	// INT_SEL[1:0] - INT selection configuration
 727:../LSM9DS1_Driver.c **** 	// OUT_SEL[1:0] - Out selection configuration
 728:../LSM9DS1_Driver.c **** 	xgWriteByte(CTRL_REG2_G, 0x00);
 2920              		.loc 1 728 0
 2921 007c 4FF01100 		mov	r0, #17
 2922 0080 4FF00001 		mov	r1, #0
 2923 0084 FFF7FEFF 		bl	xgWriteByte
 729:../LSM9DS1_Driver.c **** 
 730:../LSM9DS1_Driver.c **** 	// CTRL_REG3_G (Default value: 0x00)
 731:../LSM9DS1_Driver.c **** 	// [LP_mode][HP_EN][0][0][HPCF3_G][HPCF2_G][HPCF1_G][HPCF0_G]
 732:../LSM9DS1_Driver.c **** 	// LP_mode - Low-power mode enable (0: disabled, 1: enabled)
 733:../LSM9DS1_Driver.c **** 	// HP_EN - HPF enable (0:disabled, 1: enabled)
 734:../LSM9DS1_Driver.c **** 	// HPCF_G[3:0] - HPF cutoff frequency
 735:../LSM9DS1_Driver.c **** 	tempRegValue = settings.gyro.lowPowerEnable ? (1<<7) : 0;
 2924              		.loc 1 735 0
 2925 0088 40F20003 		movw	r3, #:lower16:settings
 2926 008c C0F20003 		movt	r3, #:upper16:settings
 2927 0090 9B7A     		ldrb	r3, [r3, #10]	@ zero_extendqisi2
 2928 0092 002B     		cmp	r3, #0
 2929 0094 02D0     		beq	.L97
 2930              		.loc 1 735 0 is_stmt 0 discriminator 1
 2931 0096 4FF08003 		mov	r3, #128
 2932 009a 01E0     		b	.L98
 2933              	.L97:
 2934              		.loc 1 735 0 discriminator 2
 2935 009c 4FF00003 		mov	r3, #0
 2936              	.L98:
 2937              		.loc 1 735 0 discriminator 3
 2938 00a0 FB71     		strb	r3, [r7, #7]
 736:../LSM9DS1_Driver.c **** 	if (settings.gyro.HPFEnable)
 2939              		.loc 1 736 0 is_stmt 1 discriminator 3
 2940 00a2 40F20003 		movw	r3, #:lower16:settings
 2941 00a6 C0F20003 		movt	r3, #:upper16:settings
 2942 00aa DB7A     		ldrb	r3, [r3, #11]	@ zero_extendqisi2
 2943 00ac 002B     		cmp	r3, #0
 2944 00ae 0FD0     		beq	.L99
 737:../LSM9DS1_Driver.c **** 	{
 738:../LSM9DS1_Driver.c **** 		tempRegValue |= ((1<<6) | (settings.gyro.HPFCutoff & 0x0F));
 2945              		.loc 1 738 0
 2946 00b0 40F20003 		movw	r3, #:lower16:settings
 2947 00b4 C0F20003 		movt	r3, #:upper16:settings
 2948 00b8 1B7B     		ldrb	r3, [r3, #12]	@ zero_extendqisi2
 2949 00ba DBB2     		uxtb	r3, r3
 2950 00bc 03F00F03 		and	r3, r3, #15
 2951 00c0 DBB2     		uxtb	r3, r3
 2952 00c2 43F04003 		orr	r3, r3, #64
 2953 00c6 DAB2     		uxtb	r2, r3
 2954 00c8 FB79     		ldrb	r3, [r7, #7]	@ zero_extendqisi2
 2955 00ca 1343     		orrs	r3, r3, r2
 2956 00cc DBB2     		uxtb	r3, r3
 2957 00ce FB71     		strb	r3, [r7, #7]
 2958              	.L99:
 739:../LSM9DS1_Driver.c **** 	}
 740:../LSM9DS1_Driver.c **** 	xgWriteByte(CTRL_REG3_G, tempRegValue);
 2959              		.loc 1 740 0
 2960 00d0 FB79     		ldrb	r3, [r7, #7]	@ zero_extendqisi2
 2961 00d2 4FF01200 		mov	r0, #18
 2962 00d6 1946     		mov	r1, r3
 2963 00d8 FFF7FEFF 		bl	xgWriteByte
 741:../LSM9DS1_Driver.c **** 
 742:../LSM9DS1_Driver.c **** 	// CTRL_REG4 (Default value: 0x38)
 743:../LSM9DS1_Driver.c **** 	// [0][0][Zen_G][Yen_G][Xen_G][0][LIR_XL1][4D_XL1]
 744:../LSM9DS1_Driver.c **** 	// Zen_G - Z-axis output enable (0:disable, 1:enable)
 745:../LSM9DS1_Driver.c **** 	// Yen_G - Y-axis output enable (0:disable, 1:enable)
 746:../LSM9DS1_Driver.c **** 	// Xen_G - X-axis output enable (0:disable, 1:enable)
 747:../LSM9DS1_Driver.c **** 	// LIR_XL1 - Latched interrupt (0:not latched, 1:latched)
 748:../LSM9DS1_Driver.c **** 	// 4D_XL1 - 4D option on interrupt (0:6D used, 1:4D used)
 749:../LSM9DS1_Driver.c **** 	tempRegValue = 0;
 2964              		.loc 1 749 0
 2965 00dc 4FF00003 		mov	r3, #0
 2966 00e0 FB71     		strb	r3, [r7, #7]
 750:../LSM9DS1_Driver.c **** 	if (settings.gyro.enableZ) tempRegValue |= (1<<5);
 2967              		.loc 1 750 0
 2968 00e2 40F20003 		movw	r3, #:lower16:settings
 2969 00e6 C0F20003 		movt	r3, #:upper16:settings
 2970 00ea DB7C     		ldrb	r3, [r3, #19]	@ zero_extendqisi2
 2971 00ec 002B     		cmp	r3, #0
 2972 00ee 03D0     		beq	.L100
 2973              		.loc 1 750 0 is_stmt 0 discriminator 1
 2974 00f0 FB79     		ldrb	r3, [r7, #7]
 2975 00f2 43F02003 		orr	r3, r3, #32
 2976 00f6 FB71     		strb	r3, [r7, #7]
 2977              	.L100:
 751:../LSM9DS1_Driver.c **** 	if (settings.gyro.enableY) tempRegValue |= (1<<4);
 2978              		.loc 1 751 0 is_stmt 1
 2979 00f8 40F20003 		movw	r3, #:lower16:settings
 2980 00fc C0F20003 		movt	r3, #:upper16:settings
 2981 0100 9B7C     		ldrb	r3, [r3, #18]	@ zero_extendqisi2
 2982 0102 002B     		cmp	r3, #0
 2983 0104 03D0     		beq	.L101
 2984              		.loc 1 751 0 is_stmt 0 discriminator 1
 2985 0106 FB79     		ldrb	r3, [r7, #7]
 2986 0108 43F01003 		orr	r3, r3, #16
 2987 010c FB71     		strb	r3, [r7, #7]
 2988              	.L101:
 752:../LSM9DS1_Driver.c **** 	if (settings.gyro.enableX) tempRegValue |= (1<<3);
 2989              		.loc 1 752 0 is_stmt 1
 2990 010e 40F20003 		movw	r3, #:lower16:settings
 2991 0112 C0F20003 		movt	r3, #:upper16:settings
 2992 0116 5B7C     		ldrb	r3, [r3, #17]	@ zero_extendqisi2
 2993 0118 002B     		cmp	r3, #0
 2994 011a 03D0     		beq	.L102
 2995              		.loc 1 752 0 is_stmt 0 discriminator 1
 2996 011c FB79     		ldrb	r3, [r7, #7]
 2997 011e 43F00803 		orr	r3, r3, #8
 2998 0122 FB71     		strb	r3, [r7, #7]
 2999              	.L102:
 753:../LSM9DS1_Driver.c **** 	if (settings.gyro.latchInterrupt) tempRegValue |= (1<<1);
 3000              		.loc 1 753 0 is_stmt 1
 3001 0124 40F20003 		movw	r3, #:lower16:settings
 3002 0128 C0F20003 		movt	r3, #:upper16:settings
 3003 012c 1B7D     		ldrb	r3, [r3, #20]	@ zero_extendqisi2
 3004 012e 002B     		cmp	r3, #0
 3005 0130 03D0     		beq	.L103
 3006              		.loc 1 753 0 is_stmt 0 discriminator 1
 3007 0132 FB79     		ldrb	r3, [r7, #7]
 3008 0134 43F00203 		orr	r3, r3, #2
 3009 0138 FB71     		strb	r3, [r7, #7]
 3010              	.L103:
 754:../LSM9DS1_Driver.c **** 	xgWriteByte(CTRL_REG4, tempRegValue);
 3011              		.loc 1 754 0 is_stmt 1
 3012 013a FB79     		ldrb	r3, [r7, #7]	@ zero_extendqisi2
 3013 013c 4FF01E00 		mov	r0, #30
 3014 0140 1946     		mov	r1, r3
 3015 0142 FFF7FEFF 		bl	xgWriteByte
 755:../LSM9DS1_Driver.c **** 
 756:../LSM9DS1_Driver.c **** 	// ORIENT_CFG_G (Default value: 0x00)
 757:../LSM9DS1_Driver.c **** 	// [0][0][SignX_G][SignY_G][SignZ_G][Orient_2][Orient_1][Orient_0]
 758:../LSM9DS1_Driver.c **** 	// SignX_G - Pitch axis (X) angular rate sign (0: positive, 1: negative)
 759:../LSM9DS1_Driver.c **** 	// Orient [2:0] - Directional user orientation selection
 760:../LSM9DS1_Driver.c **** 	tempRegValue = 0;
 3016              		.loc 1 760 0
 3017 0146 4FF00003 		mov	r3, #0
 3018 014a FB71     		strb	r3, [r7, #7]
 761:../LSM9DS1_Driver.c **** 	if (settings.gyro.flipX) tempRegValue |= (1<<5);
 3019              		.loc 1 761 0
 3020 014c 40F20003 		movw	r3, #:lower16:settings
 3021 0150 C0F20003 		movt	r3, #:upper16:settings
 3022 0154 5B7B     		ldrb	r3, [r3, #13]	@ zero_extendqisi2
 3023 0156 002B     		cmp	r3, #0
 3024 0158 03D0     		beq	.L104
 3025              		.loc 1 761 0 is_stmt 0 discriminator 1
 3026 015a FB79     		ldrb	r3, [r7, #7]
 3027 015c 43F02003 		orr	r3, r3, #32
 3028 0160 FB71     		strb	r3, [r7, #7]
 3029              	.L104:
 762:../LSM9DS1_Driver.c **** 	if (settings.gyro.flipY) tempRegValue |= (1<<4);
 3030              		.loc 1 762 0 is_stmt 1
 3031 0162 40F20003 		movw	r3, #:lower16:settings
 3032 0166 C0F20003 		movt	r3, #:upper16:settings
 3033 016a 9B7B     		ldrb	r3, [r3, #14]	@ zero_extendqisi2
 3034 016c 002B     		cmp	r3, #0
 3035 016e 03D0     		beq	.L105
 3036              		.loc 1 762 0 is_stmt 0 discriminator 1
 3037 0170 FB79     		ldrb	r3, [r7, #7]
 3038 0172 43F01003 		orr	r3, r3, #16
 3039 0176 FB71     		strb	r3, [r7, #7]
 3040              	.L105:
 763:../LSM9DS1_Driver.c **** 	if (settings.gyro.flipZ) tempRegValue |= (1<<3);
 3041              		.loc 1 763 0 is_stmt 1
 3042 0178 40F20003 		movw	r3, #:lower16:settings
 3043 017c C0F20003 		movt	r3, #:upper16:settings
 3044 0180 DB7B     		ldrb	r3, [r3, #15]	@ zero_extendqisi2
 3045 0182 002B     		cmp	r3, #0
 3046 0184 03D0     		beq	.L106
 3047              		.loc 1 763 0 is_stmt 0 discriminator 1
 3048 0186 FB79     		ldrb	r3, [r7, #7]
 3049 0188 43F00803 		orr	r3, r3, #8
 3050 018c FB71     		strb	r3, [r7, #7]
 3051              	.L106:
 764:../LSM9DS1_Driver.c **** 	xgWriteByte(ORIENT_CFG_G, tempRegValue);
 3052              		.loc 1 764 0 is_stmt 1
 3053 018e FB79     		ldrb	r3, [r7, #7]	@ zero_extendqisi2
 3054 0190 4FF01300 		mov	r0, #19
 3055 0194 1946     		mov	r1, r3
 3056 0196 FFF7FEFF 		bl	xgWriteByte
 765:../LSM9DS1_Driver.c **** }
 3057              		.loc 1 765 0
 3058 019a 07F10807 		add	r7, r7, #8
 3059 019e BD46     		mov	sp, r7
 3060 01a0 80BD     		pop	{r7, pc}
 3061              		.cfi_endproc
 3062              	.LFE155:
 3064 01a2 00BF     		.section	.text.xgWriteByte,"ax",%progbits
 3065              		.align	2
 3066              		.global	xgWriteByte
 3067              		.thumb
 3068              		.thumb_func
 3070              	xgWriteByte:
 3071              	.LFB156:
 766:../LSM9DS1_Driver.c **** 
 767:../LSM9DS1_Driver.c **** 
 768:../LSM9DS1_Driver.c **** void xgWriteByte(uint8_t subAddress, uint8_t data)
 769:../LSM9DS1_Driver.c **** {
 3072              		.loc 1 769 0
 3073              		.cfi_startproc
 3074              		@ args = 0, pretend = 0, frame = 8
 3075              		@ frame_needed = 1, uses_anonymous_args = 0
 3076 0000 80B5     		push	{r7, lr}
 3077              	.LCFI87:
 3078              		.cfi_def_cfa_offset 8
 3079              		.cfi_offset 7, -8
 3080              		.cfi_offset 14, -4
 3081 0002 82B0     		sub	sp, sp, #8
 3082              	.LCFI88:
 3083              		.cfi_def_cfa_offset 16
 3084 0004 00AF     		add	r7, sp, #0
 3085              	.LCFI89:
 3086              		.cfi_def_cfa_register 7
 3087 0006 0246     		mov	r2, r0
 3088 0008 0B46     		mov	r3, r1
 3089 000a FA71     		strb	r2, [r7, #7]
 3090 000c BB71     		strb	r3, [r7, #6]
 770:../LSM9DS1_Driver.c **** 	// Whether we're using I2C or SPI, write a byte using the
 771:../LSM9DS1_Driver.c **** 	// gyro-specific I2C address or SPI CS pin.
 772:../LSM9DS1_Driver.c **** 	if (settings.device.commInterface == IMU_MODE_I2C)
 3091              		.loc 1 772 0
 3092 000e 40F20003 		movw	r3, #:lower16:settings
 3093 0012 C0F20003 		movt	r3, #:upper16:settings
 3094 0016 1B78     		ldrb	r3, [r3, #0]	@ zero_extendqisi2
 3095 0018 012B     		cmp	r3, #1
 3096 001a 0BD1     		bne	.L107
 773:../LSM9DS1_Driver.c **** 	{
 774:../LSM9DS1_Driver.c **** 		I2CwriteByte(_xgAddress, subAddress, data);
 3097              		.loc 1 774 0
 3098 001c 40F20003 		movw	r3, #:lower16:_xgAddress
 3099 0020 C0F20003 		movt	r3, #:upper16:_xgAddress
 3100 0024 1978     		ldrb	r1, [r3, #0]	@ zero_extendqisi2
 3101 0026 FA79     		ldrb	r2, [r7, #7]	@ zero_extendqisi2
 3102 0028 BB79     		ldrb	r3, [r7, #6]	@ zero_extendqisi2
 3103 002a 0846     		mov	r0, r1
 3104 002c 1146     		mov	r1, r2
 3105 002e 1A46     		mov	r2, r3
 3106 0030 FFF7FEFF 		bl	I2CwriteByte
 3107              	.L107:
 775:../LSM9DS1_Driver.c **** 	}
 776:../LSM9DS1_Driver.c **** }
 3108              		.loc 1 776 0
 3109 0034 07F10807 		add	r7, r7, #8
 3110 0038 BD46     		mov	sp, r7
 3111 003a 80BD     		pop	{r7, pc}
 3112              		.cfi_endproc
 3113              	.LFE156:
 3115              		.section	.text.I2CwriteByte,"ax",%progbits
 3116              		.align	2
 3117              		.global	I2CwriteByte
 3118              		.thumb
 3119              		.thumb_func
 3121              	I2CwriteByte:
 3122              	.LFB157:
 777:../LSM9DS1_Driver.c **** 
 778:../LSM9DS1_Driver.c **** void I2CwriteByte(uint8_t address, uint8_t subAddress, uint8_t data)
 779:../LSM9DS1_Driver.c **** {
 3123              		.loc 1 779 0
 3124              		.cfi_startproc
 3125              		@ args = 0, pretend = 0, frame = 24
 3126              		@ frame_needed = 1, uses_anonymous_args = 0
 3127 0000 80B5     		push	{r7, lr}
 3128              	.LCFI90:
 3129              		.cfi_def_cfa_offset 8
 3130              		.cfi_offset 7, -8
 3131              		.cfi_offset 14, -4
 3132 0002 86B0     		sub	sp, sp, #24
 3133              	.LCFI91:
 3134              		.cfi_def_cfa_offset 32
 3135 0004 00AF     		add	r7, sp, #0
 3136              	.LCFI92:
 3137              		.cfi_def_cfa_register 7
 3138 0006 1346     		mov	r3, r2
 3139 0008 0246     		mov	r2, r0
 3140 000a FA71     		strb	r2, [r7, #7]
 3141 000c 0A46     		mov	r2, r1
 3142 000e BA71     		strb	r2, [r7, #6]
 3143 0010 7B71     		strb	r3, [r7, #5]
 780:../LSM9DS1_Driver.c **** 
 781:../LSM9DS1_Driver.c **** 		uint8_t c = (address<<1);
 3144              		.loc 1 781 0
 3145 0012 FB79     		ldrb	r3, [r7, #7]
 3146 0014 4FEA4303 		lsl	r3, r3, #1
 3147 0018 FB75     		strb	r3, [r7, #23]
 782:../LSM9DS1_Driver.c **** 		I2C001_DataType data1;
 783:../LSM9DS1_Driver.c **** 		data1.Data1.TDF_Type = I2C_TDF_MStart;
 3148              		.loc 1 783 0
 3149 001a 4FF00403 		mov	r3, #4
 3150 001e 7B75     		strb	r3, [r7, #21]
 784:../LSM9DS1_Driver.c **** 		data1.Data1.Data = (c | I2C_WRITE);
 3151              		.loc 1 784 0
 3152 0020 FB7D     		ldrb	r3, [r7, #23]
 3153 0022 3B75     		strb	r3, [r7, #20]
 785:../LSM9DS1_Driver.c **** 		/*while(!*/I2C001_WriteData(&I2C001_Handle0,&data1);/*);*/
 3154              		.loc 1 785 0
 3155 0024 07F11403 		add	r3, r7, #20
 3156 0028 40F20000 		movw	r0, #:lower16:I2C001_Handle0
 3157 002c C0F20000 		movt	r0, #:upper16:I2C001_Handle0
 3158 0030 1946     		mov	r1, r3
 3159 0032 FFF7FEFF 		bl	I2C001_WriteData
 786:../LSM9DS1_Driver.c **** 
 787:../LSM9DS1_Driver.c **** 		delay(DELAY);
 3160              		.loc 1 787 0
 3161 0036 4FF49660 		mov	r0, #1200
 3162 003a FFF7FEFF 		bl	delay
 788:../LSM9DS1_Driver.c **** 
 789:../LSM9DS1_Driver.c **** 		I2C001_DataType data2;
 790:../LSM9DS1_Driver.c **** 		data2.Data1.TDF_Type = I2C_TDF_MTxData;
 3163              		.loc 1 790 0
 3164 003e 4FF00003 		mov	r3, #0
 3165 0042 7B74     		strb	r3, [r7, #17]
 791:../LSM9DS1_Driver.c **** 		data2.Data1.Data = subAddress;
 3166              		.loc 1 791 0
 3167 0044 BB79     		ldrb	r3, [r7, #6]
 3168 0046 3B74     		strb	r3, [r7, #16]
 792:../LSM9DS1_Driver.c **** 		/*while(!*/I2C001_WriteData(&I2C001_Handle0,&data2);/*);*/
 3169              		.loc 1 792 0
 3170 0048 07F11003 		add	r3, r7, #16
 3171 004c 40F20000 		movw	r0, #:lower16:I2C001_Handle0
 3172 0050 C0F20000 		movt	r0, #:upper16:I2C001_Handle0
 3173 0054 1946     		mov	r1, r3
 3174 0056 FFF7FEFF 		bl	I2C001_WriteData
 793:../LSM9DS1_Driver.c **** 
 794:../LSM9DS1_Driver.c **** 		delay(DELAY);
 3175              		.loc 1 794 0
 3176 005a 4FF49660 		mov	r0, #1200
 3177 005e FFF7FEFF 		bl	delay
 795:../LSM9DS1_Driver.c **** 
 796:../LSM9DS1_Driver.c **** 		I2C001_DataType data3;
 797:../LSM9DS1_Driver.c **** 		data3.Data1.TDF_Type = I2C_TDF_MTxData;
 3178              		.loc 1 797 0
 3179 0062 4FF00003 		mov	r3, #0
 3180 0066 7B73     		strb	r3, [r7, #13]
 798:../LSM9DS1_Driver.c **** 		data3.Data1.Data = data;
 3181              		.loc 1 798 0
 3182 0068 7B79     		ldrb	r3, [r7, #5]
 3183 006a 3B73     		strb	r3, [r7, #12]
 799:../LSM9DS1_Driver.c **** 		/*while(!*/I2C001_WriteData(&I2C001_Handle0,&data3);/*);*/
 3184              		.loc 1 799 0
 3185 006c 07F10C03 		add	r3, r7, #12
 3186 0070 40F20000 		movw	r0, #:lower16:I2C001_Handle0
 3187 0074 C0F20000 		movt	r0, #:upper16:I2C001_Handle0
 3188 0078 1946     		mov	r1, r3
 3189 007a FFF7FEFF 		bl	I2C001_WriteData
 800:../LSM9DS1_Driver.c **** 
 801:../LSM9DS1_Driver.c **** 		delay(DELAY);
 3190              		.loc 1 801 0
 3191 007e 4FF49660 		mov	r0, #1200
 3192 0082 FFF7FEFF 		bl	delay
 802:../LSM9DS1_Driver.c **** 
 803:../LSM9DS1_Driver.c **** 		I2C001_DataType data4;
 804:../LSM9DS1_Driver.c **** 		data4.Data1.TDF_Type = I2C_TDF_MStop;
 3193              		.loc 1 804 0
 3194 0086 4FF00603 		mov	r3, #6
 3195 008a 7B72     		strb	r3, [r7, #9]
 805:../LSM9DS1_Driver.c **** 		data4.Data1.Data = ubyteFF;
 3196              		.loc 1 805 0
 3197 008c 4FF0FF03 		mov	r3, #255
 3198 0090 3B72     		strb	r3, [r7, #8]
 806:../LSM9DS1_Driver.c **** 		/*while(!*/I2C001_WriteData(&I2C001_Handle0,&data4);/*);*/
 3199              		.loc 1 806 0
 3200 0092 07F10803 		add	r3, r7, #8
 3201 0096 40F20000 		movw	r0, #:lower16:I2C001_Handle0
 3202 009a C0F20000 		movt	r0, #:upper16:I2C001_Handle0
 3203 009e 1946     		mov	r1, r3
 3204 00a0 FFF7FEFF 		bl	I2C001_WriteData
 807:../LSM9DS1_Driver.c **** 
 808:../LSM9DS1_Driver.c **** 		delay(DELAY * 100);
 3205              		.loc 1 808 0
 3206 00a4 4DF2C040 		movw	r0, #54464
 3207 00a8 C0F20100 		movt	r0, 1
 3208 00ac FFF7FEFF 		bl	delay
 809:../LSM9DS1_Driver.c **** }
 3209              		.loc 1 809 0
 3210 00b0 07F11807 		add	r7, r7, #24
 3211 00b4 BD46     		mov	sp, r7
 3212 00b6 80BD     		pop	{r7, pc}
 3213              		.cfi_endproc
 3214              	.LFE157:
 3216              		.section	.text.initAccel,"ax",%progbits
 3217              		.align	2
 3218              		.global	initAccel
 3219              		.thumb
 3220              		.thumb_func
 3222              	initAccel:
 3223              	.LFB158:
 810:../LSM9DS1_Driver.c **** 
 811:../LSM9DS1_Driver.c **** void initAccel(void)
 812:../LSM9DS1_Driver.c **** {
 3224              		.loc 1 812 0
 3225              		.cfi_startproc
 3226              		@ args = 0, pretend = 0, frame = 8
 3227              		@ frame_needed = 1, uses_anonymous_args = 0
 3228 0000 80B5     		push	{r7, lr}
 3229              	.LCFI93:
 3230              		.cfi_def_cfa_offset 8
 3231              		.cfi_offset 7, -8
 3232              		.cfi_offset 14, -4
 3233 0002 82B0     		sub	sp, sp, #8
 3234              	.LCFI94:
 3235              		.cfi_def_cfa_offset 16
 3236 0004 00AF     		add	r7, sp, #0
 3237              	.LCFI95:
 3238              		.cfi_def_cfa_register 7
 813:../LSM9DS1_Driver.c **** 	uint8_t tempRegValue = 0;
 3239              		.loc 1 813 0
 3240 0006 4FF00003 		mov	r3, #0
 3241 000a FB71     		strb	r3, [r7, #7]
 814:../LSM9DS1_Driver.c **** 
 815:../LSM9DS1_Driver.c **** 	//	CTRL_REG5_XL (0x1F) (Default value: 0x38)
 816:../LSM9DS1_Driver.c **** 	//	[DEC_1][DEC_0][Zen_XL][Yen_XL][Zen_XL][0][0][0]
 817:../LSM9DS1_Driver.c **** 	//	DEC[0:1] - Decimation of accel data on OUT REG and FIFO.
 818:../LSM9DS1_Driver.c **** 	//		00: None, 01: 2 samples, 10: 4 samples 11: 8 samples
 819:../LSM9DS1_Driver.c **** 	//	Zen_XL - Z-axis output enabled
 820:../LSM9DS1_Driver.c **** 	//	Yen_XL - Y-axis output enabled
 821:../LSM9DS1_Driver.c **** 	//	Xen_XL - X-axis output enabled
 822:../LSM9DS1_Driver.c **** 	if (settings.accel.enableZ) tempRegValue |= (1<<5);
 3242              		.loc 1 822 0
 3243 000c 40F20003 		movw	r3, #:lower16:settings
 3244 0010 C0F20003 		movt	r3, #:upper16:settings
 3245 0014 DB7E     		ldrb	r3, [r3, #27]	@ zero_extendqisi2
 3246 0016 002B     		cmp	r3, #0
 3247 0018 03D0     		beq	.L111
 3248              		.loc 1 822 0 is_stmt 0 discriminator 1
 3249 001a FB79     		ldrb	r3, [r7, #7]
 3250 001c 43F02003 		orr	r3, r3, #32
 3251 0020 FB71     		strb	r3, [r7, #7]
 3252              	.L111:
 823:../LSM9DS1_Driver.c **** 	if (settings.accel.enableY) tempRegValue |= (1<<4);
 3253              		.loc 1 823 0 is_stmt 1
 3254 0022 40F20003 		movw	r3, #:lower16:settings
 3255 0026 C0F20003 		movt	r3, #:upper16:settings
 3256 002a 9B7E     		ldrb	r3, [r3, #26]	@ zero_extendqisi2
 3257 002c 002B     		cmp	r3, #0
 3258 002e 03D0     		beq	.L112
 3259              		.loc 1 823 0 is_stmt 0 discriminator 1
 3260 0030 FB79     		ldrb	r3, [r7, #7]
 3261 0032 43F01003 		orr	r3, r3, #16
 3262 0036 FB71     		strb	r3, [r7, #7]
 3263              	.L112:
 824:../LSM9DS1_Driver.c **** 	if (settings.accel.enableX) tempRegValue |= (1<<3);
 3264              		.loc 1 824 0 is_stmt 1
 3265 0038 40F20003 		movw	r3, #:lower16:settings
 3266 003c C0F20003 		movt	r3, #:upper16:settings
 3267 0040 5B7E     		ldrb	r3, [r3, #25]	@ zero_extendqisi2
 3268 0042 002B     		cmp	r3, #0
 3269 0044 03D0     		beq	.L113
 3270              		.loc 1 824 0 is_stmt 0 discriminator 1
 3271 0046 FB79     		ldrb	r3, [r7, #7]
 3272 0048 43F00803 		orr	r3, r3, #8
 3273 004c FB71     		strb	r3, [r7, #7]
 3274              	.L113:
 825:../LSM9DS1_Driver.c **** 
 826:../LSM9DS1_Driver.c **** 	xgWriteByte(CTRL_REG5_XL, tempRegValue);
 3275              		.loc 1 826 0 is_stmt 1
 3276 004e FB79     		ldrb	r3, [r7, #7]	@ zero_extendqisi2
 3277 0050 4FF01F00 		mov	r0, #31
 3278 0054 1946     		mov	r1, r3
 3279 0056 FFF7FEFF 		bl	xgWriteByte
 827:../LSM9DS1_Driver.c **** 
 828:../LSM9DS1_Driver.c **** 	// CTRL_REG6_XL (0x20) (Default value: 0x00)
 829:../LSM9DS1_Driver.c **** 	// [ODR_XL2][ODR_XL1][ODR_XL0][FS1_XL][FS0_XL][BW_SCAL_ODR][BW_XL1][BW_XL0]
 830:../LSM9DS1_Driver.c **** 	// ODR_XL[2:0] - Output data rate & power mode selection
 831:../LSM9DS1_Driver.c **** 	// FS_XL[1:0] - Full-scale selection
 832:../LSM9DS1_Driver.c **** 	// BW_SCAL_ODR - Bandwidth selection
 833:../LSM9DS1_Driver.c **** 	// BW_XL[1:0] - Anti-aliasing filter bandwidth selection
 834:../LSM9DS1_Driver.c **** 	tempRegValue = 0;
 3280              		.loc 1 834 0
 3281 005a 4FF00003 		mov	r3, #0
 3282 005e FB71     		strb	r3, [r7, #7]
 835:../LSM9DS1_Driver.c **** 	// To disable the accel, set the sampleRate bits to 0.
 836:../LSM9DS1_Driver.c **** 	if (settings.accel.enabled)
 3283              		.loc 1 836 0
 3284 0060 40F20003 		movw	r3, #:lower16:settings
 3285 0064 C0F20003 		movt	r3, #:upper16:settings
 3286 0068 9B7D     		ldrb	r3, [r3, #22]	@ zero_extendqisi2
 3287 006a 002B     		cmp	r3, #0
 3288 006c 0BD0     		beq	.L114
 837:../LSM9DS1_Driver.c **** 	{
 838:../LSM9DS1_Driver.c **** 		tempRegValue |= ((settings.accel.sampleRate & 0x07) << 5);
 3289              		.loc 1 838 0
 3290 006e 40F20003 		movw	r3, #:lower16:settings
 3291 0072 C0F20003 		movt	r3, #:upper16:settings
 3292 0076 1B7E     		ldrb	r3, [r3, #24]	@ zero_extendqisi2
 3293 0078 4FEA4313 		lsl	r3, r3, #5
 3294 007c DAB2     		uxtb	r2, r3
 3295 007e FB79     		ldrb	r3, [r7, #7]	@ zero_extendqisi2
 3296 0080 1343     		orrs	r3, r3, r2
 3297 0082 DBB2     		uxtb	r3, r3
 3298 0084 FB71     		strb	r3, [r7, #7]
 3299              	.L114:
 839:../LSM9DS1_Driver.c **** 	}
 840:../LSM9DS1_Driver.c **** 	switch (settings.accel.scale)
 3300              		.loc 1 840 0
 3301 0086 40F20003 		movw	r3, #:lower16:settings
 3302 008a C0F20003 		movt	r3, #:upper16:settings
 3303 008e DB7D     		ldrb	r3, [r3, #23]	@ zero_extendqisi2
 3304 0090 082B     		cmp	r3, #8
 3305 0092 08D0     		beq	.L117
 3306 0094 102B     		cmp	r3, #16
 3307 0096 0BD0     		beq	.L118
 3308 0098 042B     		cmp	r3, #4
 3309 009a 0ED1     		bne	.L115
 3310              	.L116:
 841:../LSM9DS1_Driver.c **** 	{
 842:../LSM9DS1_Driver.c **** 		case 4:
 843:../LSM9DS1_Driver.c **** 			tempRegValue |= (0x2 << 3);
 3311              		.loc 1 843 0
 3312 009c FB79     		ldrb	r3, [r7, #7]
 3313 009e 43F01003 		orr	r3, r3, #16
 3314 00a2 FB71     		strb	r3, [r7, #7]
 844:../LSM9DS1_Driver.c **** 			break;
 3315              		.loc 1 844 0
 3316 00a4 09E0     		b	.L115
 3317              	.L117:
 845:../LSM9DS1_Driver.c **** 		case 8:
 846:../LSM9DS1_Driver.c **** 			tempRegValue |= (0x3 << 3);
 3318              		.loc 1 846 0
 3319 00a6 FB79     		ldrb	r3, [r7, #7]
 3320 00a8 43F01803 		orr	r3, r3, #24
 3321 00ac FB71     		strb	r3, [r7, #7]
 847:../LSM9DS1_Driver.c **** 			break;
 3322              		.loc 1 847 0
 3323 00ae 04E0     		b	.L115
 3324              	.L118:
 848:../LSM9DS1_Driver.c **** 		case 16:
 849:../LSM9DS1_Driver.c **** 			tempRegValue |= (0x1 << 3);
 3325              		.loc 1 849 0
 3326 00b0 FB79     		ldrb	r3, [r7, #7]
 3327 00b2 43F00803 		orr	r3, r3, #8
 3328 00b6 FB71     		strb	r3, [r7, #7]
 850:../LSM9DS1_Driver.c **** 			break;
 3329              		.loc 1 850 0
 3330 00b8 00BF     		nop
 3331              	.L115:
 851:../LSM9DS1_Driver.c **** 		// Otherwise it'll be set to 2g (0x0 << 3)
 852:../LSM9DS1_Driver.c **** 	}
 853:../LSM9DS1_Driver.c **** 	if (settings.accel.bandwidth >= 0)
 3332              		.loc 1 853 0
 3333 00ba 40F20003 		movw	r3, #:lower16:settings
 3334 00be C0F20003 		movt	r3, #:upper16:settings
 3335 00c2 1B7F     		ldrb	r3, [r3, #28]	@ zero_extendqisi2
 3336 00c4 5BB2     		sxtb	r3, r3
 3337 00c6 002B     		cmp	r3, #0
 3338 00c8 0FDB     		blt	.L119
 854:../LSM9DS1_Driver.c **** 	{
 855:../LSM9DS1_Driver.c **** 		tempRegValue |= (1<<2); // Set BW_SCAL_ODR
 3339              		.loc 1 855 0
 3340 00ca FB79     		ldrb	r3, [r7, #7]
 3341 00cc 43F00403 		orr	r3, r3, #4
 3342 00d0 FB71     		strb	r3, [r7, #7]
 856:../LSM9DS1_Driver.c **** 		tempRegValue |= (settings.accel.bandwidth & 0x03);
 3343              		.loc 1 856 0
 3344 00d2 40F20003 		movw	r3, #:lower16:settings
 3345 00d6 C0F20003 		movt	r3, #:upper16:settings
 3346 00da 1B7F     		ldrb	r3, [r3, #28]	@ zero_extendqisi2
 3347 00dc 03F00303 		and	r3, r3, #3
 3348 00e0 DAB2     		uxtb	r2, r3
 3349 00e2 FB79     		ldrb	r3, [r7, #7]	@ zero_extendqisi2
 3350 00e4 1343     		orrs	r3, r3, r2
 3351 00e6 DBB2     		uxtb	r3, r3
 3352 00e8 FB71     		strb	r3, [r7, #7]
 3353              	.L119:
 857:../LSM9DS1_Driver.c **** 	}
 858:../LSM9DS1_Driver.c **** 	xgWriteByte(CTRL_REG6_XL, tempRegValue);
 3354              		.loc 1 858 0
 3355 00ea FB79     		ldrb	r3, [r7, #7]	@ zero_extendqisi2
 3356 00ec 4FF02000 		mov	r0, #32
 3357 00f0 1946     		mov	r1, r3
 3358 00f2 FFF7FEFF 		bl	xgWriteByte
 859:../LSM9DS1_Driver.c **** 
 860:../LSM9DS1_Driver.c **** 	// CTRL_REG7_XL (0x21) (Default value: 0x00)
 861:../LSM9DS1_Driver.c **** 	// [HR][DCF1][DCF0][0][0][FDS][0][HPIS1]
 862:../LSM9DS1_Driver.c **** 	// HR - High resolution mode (0: disable, 1: enable)
 863:../LSM9DS1_Driver.c **** 	// DCF[1:0] - Digital filter cutoff frequency
 864:../LSM9DS1_Driver.c **** 	// FDS - Filtered data selection
 865:../LSM9DS1_Driver.c **** 	// HPIS1 - HPF enabled for interrupt function
 866:../LSM9DS1_Driver.c **** 	tempRegValue = 0;
 3359              		.loc 1 866 0
 3360 00f6 4FF00003 		mov	r3, #0
 3361 00fa FB71     		strb	r3, [r7, #7]
 867:../LSM9DS1_Driver.c **** 	if (settings.accel.highResEnable)
 3362              		.loc 1 867 0
 3363 00fc 40F20003 		movw	r3, #:lower16:settings
 3364 0100 C0F20003 		movt	r3, #:upper16:settings
 3365 0104 5B7F     		ldrb	r3, [r3, #29]	@ zero_extendqisi2
 3366 0106 002B     		cmp	r3, #0
 3367 0108 11D0     		beq	.L120
 868:../LSM9DS1_Driver.c **** 	{
 869:../LSM9DS1_Driver.c **** 		tempRegValue |= (1<<7); // Set HR bit
 3368              		.loc 1 869 0
 3369 010a FB79     		ldrb	r3, [r7, #7]
 3370 010c 63F07F03 		orn	r3, r3, #127
 3371 0110 FB71     		strb	r3, [r7, #7]
 870:../LSM9DS1_Driver.c **** 		tempRegValue |= (settings.accel.highResBandwidth & 0x3) << 5;
 3372              		.loc 1 870 0
 3373 0112 40F20003 		movw	r3, #:lower16:settings
 3374 0116 C0F20003 		movt	r3, #:upper16:settings
 3375 011a 9B7F     		ldrb	r3, [r3, #30]	@ zero_extendqisi2
 3376 011c 03F00303 		and	r3, r3, #3
 3377 0120 4FEA4313 		lsl	r3, r3, #5
 3378 0124 DAB2     		uxtb	r2, r3
 3379 0126 FB79     		ldrb	r3, [r7, #7]	@ zero_extendqisi2
 3380 0128 1343     		orrs	r3, r3, r2
 3381 012a DBB2     		uxtb	r3, r3
 3382 012c FB71     		strb	r3, [r7, #7]
 3383              	.L120:
 871:../LSM9DS1_Driver.c **** 	}
 872:../LSM9DS1_Driver.c **** 	xgWriteByte(CTRL_REG7_XL, tempRegValue);
 3384              		.loc 1 872 0
 3385 012e FB79     		ldrb	r3, [r7, #7]	@ zero_extendqisi2
 3386 0130 4FF02100 		mov	r0, #33
 3387 0134 1946     		mov	r1, r3
 3388 0136 FFF7FEFF 		bl	xgWriteByte
 873:../LSM9DS1_Driver.c **** }
 3389              		.loc 1 873 0
 3390 013a 07F10807 		add	r7, r7, #8
 3391 013e BD46     		mov	sp, r7
 3392 0140 80BD     		pop	{r7, pc}
 3393              		.cfi_endproc
 3394              	.LFE158:
 3396 0142 00BF     		.section	.text.initMag,"ax",%progbits
 3397              		.align	2
 3398              		.global	initMag
 3399              		.thumb
 3400              		.thumb_func
 3402              	initMag:
 3403              	.LFB159:
 874:../LSM9DS1_Driver.c **** 
 875:../LSM9DS1_Driver.c **** void initMag(void)
 876:../LSM9DS1_Driver.c **** {
 3404              		.loc 1 876 0
 3405              		.cfi_startproc
 3406              		@ args = 0, pretend = 0, frame = 8
 3407              		@ frame_needed = 1, uses_anonymous_args = 0
 3408 0000 80B5     		push	{r7, lr}
 3409              	.LCFI96:
 3410              		.cfi_def_cfa_offset 8
 3411              		.cfi_offset 7, -8
 3412              		.cfi_offset 14, -4
 3413 0002 82B0     		sub	sp, sp, #8
 3414              	.LCFI97:
 3415              		.cfi_def_cfa_offset 16
 3416 0004 00AF     		add	r7, sp, #0
 3417              	.LCFI98:
 3418              		.cfi_def_cfa_register 7
 877:../LSM9DS1_Driver.c **** 	uint8_t tempRegValue = 0;
 3419              		.loc 1 877 0
 3420 0006 4FF00003 		mov	r3, #0
 3421 000a FB71     		strb	r3, [r7, #7]
 878:../LSM9DS1_Driver.c **** 
 879:../LSM9DS1_Driver.c **** 	// CTRL_REG1_M (Default value: 0x10)
 880:../LSM9DS1_Driver.c **** 	// [TEMP_COMP][OM1][OM0][DO2][DO1][DO0][0][ST]
 881:../LSM9DS1_Driver.c **** 	// TEMP_COMP - Temperature compensation
 882:../LSM9DS1_Driver.c **** 	// OM[1:0] - X & Y axes op mode selection
 883:../LSM9DS1_Driver.c **** 	//	00:low-power, 01:medium performance
 884:../LSM9DS1_Driver.c **** 	//	10: high performance, 11:ultra-high performance
 885:../LSM9DS1_Driver.c **** 	// DO[2:0] - Output data rate selection
 886:../LSM9DS1_Driver.c **** 	// ST - Self-test enable
 887:../LSM9DS1_Driver.c **** 	if (settings.mag.tempCompensationEnable) tempRegValue |= (1<<7);
 3422              		.loc 1 887 0
 3423 000c 40F20003 		movw	r3, #:lower16:settings
 3424 0010 C0F20003 		movt	r3, #:upper16:settings
 3425 0014 93F82230 		ldrb	r3, [r3, #34]	@ zero_extendqisi2
 3426 0018 002B     		cmp	r3, #0
 3427 001a 03D0     		beq	.L122
 3428              		.loc 1 887 0 is_stmt 0 discriminator 1
 3429 001c FB79     		ldrb	r3, [r7, #7]
 3430 001e 63F07F03 		orn	r3, r3, #127
 3431 0022 FB71     		strb	r3, [r7, #7]
 3432              	.L122:
 888:../LSM9DS1_Driver.c **** 	tempRegValue |= (settings.mag.XYPerformance & 0x3) << 5;
 3433              		.loc 1 888 0 is_stmt 1
 3434 0024 40F20003 		movw	r3, #:lower16:settings
 3435 0028 C0F20003 		movt	r3, #:upper16:settings
 3436 002c 93F82330 		ldrb	r3, [r3, #35]	@ zero_extendqisi2
 3437 0030 03F00303 		and	r3, r3, #3
 3438 0034 4FEA4313 		lsl	r3, r3, #5
 3439 0038 DAB2     		uxtb	r2, r3
 3440 003a FB79     		ldrb	r3, [r7, #7]	@ zero_extendqisi2
 3441 003c 1343     		orrs	r3, r3, r2
 3442 003e DBB2     		uxtb	r3, r3
 3443 0040 FB71     		strb	r3, [r7, #7]
 889:../LSM9DS1_Driver.c **** 	tempRegValue |= (settings.mag.sampleRate & 0x7) << 2;
 3444              		.loc 1 889 0
 3445 0042 40F20003 		movw	r3, #:lower16:settings
 3446 0046 C0F20003 		movt	r3, #:upper16:settings
 3447 004a 93F82130 		ldrb	r3, [r3, #33]	@ zero_extendqisi2
 3448 004e 03F00703 		and	r3, r3, #7
 3449 0052 4FEA8303 		lsl	r3, r3, #2
 3450 0056 DAB2     		uxtb	r2, r3
 3451 0058 FB79     		ldrb	r3, [r7, #7]	@ zero_extendqisi2
 3452 005a 1343     		orrs	r3, r3, r2
 3453 005c DBB2     		uxtb	r3, r3
 3454 005e FB71     		strb	r3, [r7, #7]
 890:../LSM9DS1_Driver.c **** 	mWriteByte(CTRL_REG1_M, tempRegValue);
 3455              		.loc 1 890 0
 3456 0060 FB79     		ldrb	r3, [r7, #7]	@ zero_extendqisi2
 3457 0062 4FF02000 		mov	r0, #32
 3458 0066 1946     		mov	r1, r3
 3459 0068 FFF7FEFF 		bl	mWriteByte
 891:../LSM9DS1_Driver.c **** 
 892:../LSM9DS1_Driver.c **** 	// CTRL_REG2_M (Default value 0x00)
 893:../LSM9DS1_Driver.c **** 	// [0][FS1][FS0][0][REBOOT][SOFT_RST][0][0]
 894:../LSM9DS1_Driver.c **** 	// FS[1:0] - Full-scale configuration
 895:../LSM9DS1_Driver.c **** 	// REBOOT - Reboot memory content (0:normal, 1:reboot)
 896:../LSM9DS1_Driver.c **** 	// SOFT_RST - Reset config and user registers (0:default, 1:reset)
 897:../LSM9DS1_Driver.c **** 	tempRegValue = 0;
 3460              		.loc 1 897 0
 3461 006c 4FF00003 		mov	r3, #0
 3462 0070 FB71     		strb	r3, [r7, #7]
 898:../LSM9DS1_Driver.c **** 	switch (settings.mag.scale)
 3463              		.loc 1 898 0
 3464 0072 40F20003 		movw	r3, #:lower16:settings
 3465 0076 C0F20003 		movt	r3, #:upper16:settings
 3466 007a 93F82030 		ldrb	r3, [r3, #32]	@ zero_extendqisi2
 3467 007e 0C2B     		cmp	r3, #12
 3468 0080 08D0     		beq	.L125
 3469 0082 102B     		cmp	r3, #16
 3470 0084 0BD0     		beq	.L126
 3471 0086 082B     		cmp	r3, #8
 3472 0088 0ED1     		bne	.L123
 3473              	.L124:
 899:../LSM9DS1_Driver.c **** 	{
 900:../LSM9DS1_Driver.c **** 	case 8:
 901:../LSM9DS1_Driver.c **** 		tempRegValue |= (0x1 << 5);
 3474              		.loc 1 901 0
 3475 008a FB79     		ldrb	r3, [r7, #7]
 3476 008c 43F02003 		orr	r3, r3, #32
 3477 0090 FB71     		strb	r3, [r7, #7]
 902:../LSM9DS1_Driver.c **** 		break;
 3478              		.loc 1 902 0
 3479 0092 09E0     		b	.L123
 3480              	.L125:
 903:../LSM9DS1_Driver.c **** 	case 12:
 904:../LSM9DS1_Driver.c **** 		tempRegValue |= (0x2 << 5);
 3481              		.loc 1 904 0
 3482 0094 FB79     		ldrb	r3, [r7, #7]
 3483 0096 43F04003 		orr	r3, r3, #64
 3484 009a FB71     		strb	r3, [r7, #7]
 905:../LSM9DS1_Driver.c **** 		break;
 3485              		.loc 1 905 0
 3486 009c 04E0     		b	.L123
 3487              	.L126:
 906:../LSM9DS1_Driver.c **** 	case 16:
 907:../LSM9DS1_Driver.c **** 		tempRegValue |= (0x3 << 5);
 3488              		.loc 1 907 0
 3489 009e FB79     		ldrb	r3, [r7, #7]
 3490 00a0 43F06003 		orr	r3, r3, #96
 3491 00a4 FB71     		strb	r3, [r7, #7]
 908:../LSM9DS1_Driver.c **** 		break;
 3492              		.loc 1 908 0
 3493 00a6 00BF     		nop
 3494              	.L123:
 909:../LSM9DS1_Driver.c **** 	// Otherwise we'll default to 4 gauss (00)
 910:../LSM9DS1_Driver.c **** 	}
 911:../LSM9DS1_Driver.c **** 	mWriteByte(CTRL_REG2_M, tempRegValue); // +/-4Gauss
 3495              		.loc 1 911 0
 3496 00a8 FB79     		ldrb	r3, [r7, #7]	@ zero_extendqisi2
 3497 00aa 4FF02100 		mov	r0, #33
 3498 00ae 1946     		mov	r1, r3
 3499 00b0 FFF7FEFF 		bl	mWriteByte
 912:../LSM9DS1_Driver.c **** 
 913:../LSM9DS1_Driver.c **** 	// CTRL_REG3_M (Default value: 0x03)
 914:../LSM9DS1_Driver.c **** 	// [I2C_DISABLE][0][LP][0][0][SIM][MD1][MD0]
 915:../LSM9DS1_Driver.c **** 	// I2C_DISABLE - Disable I2C interace (0:enable, 1:disable)
 916:../LSM9DS1_Driver.c **** 	// LP - Low-power mode cofiguration (1:enable)
 917:../LSM9DS1_Driver.c **** 	// SIM - SPI mode selection (0:write-only, 1:read/write enable)
 918:../LSM9DS1_Driver.c **** 	// MD[1:0] - Operating mode
 919:../LSM9DS1_Driver.c **** 	//	00:continuous conversion, 01:single-conversion,
 920:../LSM9DS1_Driver.c **** 	//  10,11: Power-down
 921:../LSM9DS1_Driver.c **** 	tempRegValue = 0;
 3500              		.loc 1 921 0
 3501 00b4 4FF00003 		mov	r3, #0
 3502 00b8 FB71     		strb	r3, [r7, #7]
 922:../LSM9DS1_Driver.c **** 	if (settings.mag.lowPowerEnable) tempRegValue |= (1<<5);
 3503              		.loc 1 922 0
 3504 00ba 40F20003 		movw	r3, #:lower16:settings
 3505 00be C0F20003 		movt	r3, #:upper16:settings
 3506 00c2 93F82530 		ldrb	r3, [r3, #37]	@ zero_extendqisi2
 3507 00c6 002B     		cmp	r3, #0
 3508 00c8 03D0     		beq	.L127
 3509              		.loc 1 922 0 is_stmt 0 discriminator 1
 3510 00ca FB79     		ldrb	r3, [r7, #7]
 3511 00cc 43F02003 		orr	r3, r3, #32
 3512 00d0 FB71     		strb	r3, [r7, #7]
 3513              	.L127:
 923:../LSM9DS1_Driver.c **** 	tempRegValue |= (settings.mag.operatingMode & 0x3);
 3514              		.loc 1 923 0 is_stmt 1
 3515 00d2 40F20003 		movw	r3, #:lower16:settings
 3516 00d6 C0F20003 		movt	r3, #:upper16:settings
 3517 00da 93F82630 		ldrb	r3, [r3, #38]	@ zero_extendqisi2
 3518 00de DBB2     		uxtb	r3, r3
 3519 00e0 03F00303 		and	r3, r3, #3
 3520 00e4 DAB2     		uxtb	r2, r3
 3521 00e6 FB79     		ldrb	r3, [r7, #7]	@ zero_extendqisi2
 3522 00e8 1343     		orrs	r3, r3, r2
 3523 00ea DBB2     		uxtb	r3, r3
 3524 00ec FB71     		strb	r3, [r7, #7]
 924:../LSM9DS1_Driver.c **** 	mWriteByte(CTRL_REG3_M, tempRegValue); // Continuous conversion mode
 3525              		.loc 1 924 0
 3526 00ee FB79     		ldrb	r3, [r7, #7]	@ zero_extendqisi2
 3527 00f0 4FF02200 		mov	r0, #34
 3528 00f4 1946     		mov	r1, r3
 3529 00f6 FFF7FEFF 		bl	mWriteByte
 925:../LSM9DS1_Driver.c **** 
 926:../LSM9DS1_Driver.c **** 	// CTRL_REG4_M (Default value: 0x00)
 927:../LSM9DS1_Driver.c **** 	// [0][0][0][0][OMZ1][OMZ0][BLE][0]
 928:../LSM9DS1_Driver.c **** 	// OMZ[1:0] - Z-axis operative mode selection
 929:../LSM9DS1_Driver.c **** 	//	00:low-power mode, 01:medium performance
 930:../LSM9DS1_Driver.c **** 	//	10:high performance, 10:ultra-high performance
 931:../LSM9DS1_Driver.c **** 	// BLE - Big/little endian data
 932:../LSM9DS1_Driver.c **** 	tempRegValue = 0;
 3530              		.loc 1 932 0
 3531 00fa 4FF00003 		mov	r3, #0
 3532 00fe FB71     		strb	r3, [r7, #7]
 933:../LSM9DS1_Driver.c **** 	tempRegValue = (settings.mag.ZPerformance & 0x3) << 2;
 3533              		.loc 1 933 0
 3534 0100 40F20003 		movw	r3, #:lower16:settings
 3535 0104 C0F20003 		movt	r3, #:upper16:settings
 3536 0108 93F82430 		ldrb	r3, [r3, #36]	@ zero_extendqisi2
 3537 010c 03F00303 		and	r3, r3, #3
 3538 0110 DBB2     		uxtb	r3, r3
 3539 0112 4FEA8303 		lsl	r3, r3, #2
 3540 0116 FB71     		strb	r3, [r7, #7]
 934:../LSM9DS1_Driver.c **** 	mWriteByte(CTRL_REG4_M, tempRegValue);
 3541              		.loc 1 934 0
 3542 0118 FB79     		ldrb	r3, [r7, #7]	@ zero_extendqisi2
 3543 011a 4FF02300 		mov	r0, #35
 3544 011e 1946     		mov	r1, r3
 3545 0120 FFF7FEFF 		bl	mWriteByte
 935:../LSM9DS1_Driver.c **** 
 936:../LSM9DS1_Driver.c **** 	// CTRL_REG5_M (Default value: 0x00)
 937:../LSM9DS1_Driver.c **** 	// [0][BDU][0][0][0][0][0][0]
 938:../LSM9DS1_Driver.c **** 	// BDU - Block data update for magnetic data
 939:../LSM9DS1_Driver.c **** 	//	0:continuous, 1:not updated until MSB/LSB are read
 940:../LSM9DS1_Driver.c **** 	tempRegValue = 0;
 3546              		.loc 1 940 0
 3547 0124 4FF00003 		mov	r3, #0
 3548 0128 FB71     		strb	r3, [r7, #7]
 941:../LSM9DS1_Driver.c **** 	mWriteByte(CTRL_REG5_M, tempRegValue);
 3549              		.loc 1 941 0
 3550 012a FB79     		ldrb	r3, [r7, #7]	@ zero_extendqisi2
 3551 012c 4FF02400 		mov	r0, #36
 3552 0130 1946     		mov	r1, r3
 3553 0132 FFF7FEFF 		bl	mWriteByte
 942:../LSM9DS1_Driver.c **** }
 3554              		.loc 1 942 0
 3555 0136 07F10807 		add	r7, r7, #8
 3556 013a BD46     		mov	sp, r7
 3557 013c 80BD     		pop	{r7, pc}
 3558              		.cfi_endproc
 3559              	.LFE159:
 3561 013e 00BF     		.section	.text.mWriteByte,"ax",%progbits
 3562              		.align	2
 3563              		.global	mWriteByte
 3564              		.thumb
 3565              		.thumb_func
 3567              	mWriteByte:
 3568              	.LFB160:
 943:../LSM9DS1_Driver.c **** 
 944:../LSM9DS1_Driver.c **** void mWriteByte(uint8_t subAddress, uint8_t data)
 945:../LSM9DS1_Driver.c **** {
 3569              		.loc 1 945 0
 3570              		.cfi_startproc
 3571              		@ args = 0, pretend = 0, frame = 8
 3572              		@ frame_needed = 1, uses_anonymous_args = 0
 3573 0000 80B5     		push	{r7, lr}
 3574              	.LCFI99:
 3575              		.cfi_def_cfa_offset 8
 3576              		.cfi_offset 7, -8
 3577              		.cfi_offset 14, -4
 3578 0002 82B0     		sub	sp, sp, #8
 3579              	.LCFI100:
 3580              		.cfi_def_cfa_offset 16
 3581 0004 00AF     		add	r7, sp, #0
 3582              	.LCFI101:
 3583              		.cfi_def_cfa_register 7
 3584 0006 0246     		mov	r2, r0
 3585 0008 0B46     		mov	r3, r1
 3586 000a FA71     		strb	r2, [r7, #7]
 3587 000c BB71     		strb	r3, [r7, #6]
 946:../LSM9DS1_Driver.c **** 	// Whether we're using I2C or SPI, write a byte using the
 947:../LSM9DS1_Driver.c **** 	// accelerometer-specific I2C address or SPI CS pin.
 948:../LSM9DS1_Driver.c **** 	if (settings.device.commInterface == IMU_MODE_I2C)
 3588              		.loc 1 948 0
 3589 000e 40F20003 		movw	r3, #:lower16:settings
 3590 0012 C0F20003 		movt	r3, #:upper16:settings
 3591 0016 1B78     		ldrb	r3, [r3, #0]	@ zero_extendqisi2
 3592 0018 012B     		cmp	r3, #1
 3593 001a 0CD1     		bne	.L128
 949:../LSM9DS1_Driver.c **** 	{
 950:../LSM9DS1_Driver.c **** 		return I2CwriteByte(_mAddress, subAddress, data);
 3594              		.loc 1 950 0
 3595 001c 40F20003 		movw	r3, #:lower16:_mAddress
 3596 0020 C0F20003 		movt	r3, #:upper16:_mAddress
 3597 0024 1978     		ldrb	r1, [r3, #0]	@ zero_extendqisi2
 3598 0026 FA79     		ldrb	r2, [r7, #7]	@ zero_extendqisi2
 3599 0028 BB79     		ldrb	r3, [r7, #6]	@ zero_extendqisi2
 3600 002a 0846     		mov	r0, r1
 3601 002c 1146     		mov	r1, r2
 3602 002e 1A46     		mov	r2, r3
 3603 0030 FFF7FEFF 		bl	I2CwriteByte
 3604 0034 00BF     		nop
 3605              	.L128:
 951:../LSM9DS1_Driver.c **** 	}
 952:../LSM9DS1_Driver.c **** }
 3606              		.loc 1 952 0
 3607 0036 07F10807 		add	r7, r7, #8
 3608 003a BD46     		mov	sp, r7
 3609 003c 80BD     		pop	{r7, pc}
 3610              		.cfi_endproc
 3611              	.LFE160:
 3613 003e 00BF     		.section	.text.enableFIFO,"ax",%progbits
 3614              		.align	2
 3615              		.global	enableFIFO
 3616              		.thumb
 3617              		.thumb_func
 3619              	enableFIFO:
 3620              	.LFB161:
 953:../LSM9DS1_Driver.c **** 
 954:../LSM9DS1_Driver.c **** void enableFIFO(bool enable)
 955:../LSM9DS1_Driver.c **** {
 3621              		.loc 1 955 0
 3622              		.cfi_startproc
 3623              		@ args = 0, pretend = 0, frame = 16
 3624              		@ frame_needed = 1, uses_anonymous_args = 0
 3625 0000 80B5     		push	{r7, lr}
 3626              	.LCFI102:
 3627              		.cfi_def_cfa_offset 8
 3628              		.cfi_offset 7, -8
 3629              		.cfi_offset 14, -4
 3630 0002 84B0     		sub	sp, sp, #16
 3631              	.LCFI103:
 3632              		.cfi_def_cfa_offset 24
 3633 0004 00AF     		add	r7, sp, #0
 3634              	.LCFI104:
 3635              		.cfi_def_cfa_register 7
 3636 0006 0346     		mov	r3, r0
 3637 0008 FB71     		strb	r3, [r7, #7]
 956:../LSM9DS1_Driver.c **** 	uint8_t temp = xgReadByte(CTRL_REG9);
 3638              		.loc 1 956 0
 3639 000a 4FF02300 		mov	r0, #35
 3640 000e FFF7FEFF 		bl	xgReadByte
 3641 0012 0346     		mov	r3, r0
 3642 0014 FB73     		strb	r3, [r7, #15]
 957:../LSM9DS1_Driver.c **** 	if(enable)
 3643              		.loc 1 957 0
 3644 0016 FB79     		ldrb	r3, [r7, #7]	@ zero_extendqisi2
 3645 0018 002B     		cmp	r3, #0
 3646 001a 04D0     		beq	.L131
 958:../LSM9DS1_Driver.c **** 	{
 959:../LSM9DS1_Driver.c **** 		temp |= (1<<1);
 3647              		.loc 1 959 0
 3648 001c FB7B     		ldrb	r3, [r7, #15]
 3649 001e 43F00203 		orr	r3, r3, #2
 3650 0022 FB73     		strb	r3, [r7, #15]
 3651 0024 03E0     		b	.L132
 3652              	.L131:
 960:../LSM9DS1_Driver.c **** 	}
 961:../LSM9DS1_Driver.c **** 	else
 962:../LSM9DS1_Driver.c **** 	{
 963:../LSM9DS1_Driver.c **** 		temp &= ~(1<<1);
 3653              		.loc 1 963 0
 3654 0026 FB7B     		ldrb	r3, [r7, #15]
 3655 0028 23F00203 		bic	r3, r3, #2
 3656 002c FB73     		strb	r3, [r7, #15]
 3657              	.L132:
 964:../LSM9DS1_Driver.c **** 	}
 965:../LSM9DS1_Driver.c **** 
 966:../LSM9DS1_Driver.c **** 	xgWriteByte(CTRL_REG9, temp);
 3658              		.loc 1 966 0
 3659 002e FB7B     		ldrb	r3, [r7, #15]	@ zero_extendqisi2
 3660 0030 4FF02300 		mov	r0, #35
 3661 0034 1946     		mov	r1, r3
 3662 0036 FFF7FEFF 		bl	xgWriteByte
 967:../LSM9DS1_Driver.c **** }
 3663              		.loc 1 967 0
 3664 003a 07F11007 		add	r7, r7, #16
 3665 003e BD46     		mov	sp, r7
 3666 0040 80BD     		pop	{r7, pc}
 3667              		.cfi_endproc
 3668              	.LFE161:
 3670 0042 00BF     		.section	.text.setFIFO,"ax",%progbits
 3671              		.align	2
 3672              		.global	setFIFO
 3673              		.thumb
 3674              		.thumb_func
 3676              	setFIFO:
 3677              	.LFB162:
 968:../LSM9DS1_Driver.c **** 
 969:../LSM9DS1_Driver.c **** void setFIFO(fifoMode_type fifoMode, uint8_t fifoThs)
 970:../LSM9DS1_Driver.c **** {
 3678              		.loc 1 970 0
 3679              		.cfi_startproc
 3680              		@ args = 0, pretend = 0, frame = 16
 3681              		@ frame_needed = 1, uses_anonymous_args = 0
 3682 0000 80B5     		push	{r7, lr}
 3683              	.LCFI105:
 3684              		.cfi_def_cfa_offset 8
 3685              		.cfi_offset 7, -8
 3686              		.cfi_offset 14, -4
 3687 0002 84B0     		sub	sp, sp, #16
 3688              	.LCFI106:
 3689              		.cfi_def_cfa_offset 24
 3690 0004 00AF     		add	r7, sp, #0
 3691              	.LCFI107:
 3692              		.cfi_def_cfa_register 7
 3693 0006 0246     		mov	r2, r0
 3694 0008 0B46     		mov	r3, r1
 3695 000a FA71     		strb	r2, [r7, #7]
 3696 000c BB71     		strb	r3, [r7, #6]
 971:../LSM9DS1_Driver.c **** 	// Limit threshold - 0x1F (31) is the maximum. If more than that was asked
 972:../LSM9DS1_Driver.c **** 	// limit it to the maximum.
 973:../LSM9DS1_Driver.c **** 	uint8_t threshold = fifoThs <= 0x1F ? fifoThs : 0x1F;
 3697              		.loc 1 973 0
 3698 000e BB79     		ldrb	r3, [r7, #6]	@ zero_extendqisi2
 3699 0010 1F2B     		cmp	r3, #31
 3700 0012 28BF     		it	cs
 3701 0014 1F23     		movcs	r3, #31
 3702 0016 FB73     		strb	r3, [r7, #15]
 974:../LSM9DS1_Driver.c **** 	xgWriteByte(FIFO_CTRL, ((fifoMode & 0x7) << 5) | (threshold & 0x1F));
 3703              		.loc 1 974 0
 3704 0018 FB79     		ldrb	r3, [r7, #7]	@ zero_extendqisi2
 3705 001a 4FEA4313 		lsl	r3, r3, #5
 3706 001e DAB2     		uxtb	r2, r3
 3707 0020 FB7B     		ldrb	r3, [r7, #15]	@ zero_extendqisi2
 3708 0022 03F01F03 		and	r3, r3, #31
 3709 0026 DBB2     		uxtb	r3, r3
 3710 0028 1343     		orrs	r3, r3, r2
 3711 002a DBB2     		uxtb	r3, r3
 3712 002c DBB2     		uxtb	r3, r3
 3713 002e 4FF02E00 		mov	r0, #46
 3714 0032 1946     		mov	r1, r3
 3715 0034 FFF7FEFF 		bl	xgWriteByte
 975:../LSM9DS1_Driver.c **** }
 3716              		.loc 1 975 0
 3717 0038 07F11007 		add	r7, r7, #16
 3718 003c BD46     		mov	sp, r7
 3719 003e 80BD     		pop	{r7, pc}
 3720              		.cfi_endproc
 3721              	.LFE162:
 3723              		.global	__aeabi_f2d
 3724              		.global	__aeabi_ddiv
 3725              		.global	__aeabi_d2iz
 3726              		.section	.text.calibrate,"ax",%progbits
 3727              		.align	2
 3728              		.global	calibrate
 3729              		.thumb
 3730              		.thumb_func
 3732              	calibrate:
 3733              	.LFB163:
 976:../LSM9DS1_Driver.c **** 
 977:../LSM9DS1_Driver.c **** void calibrate(bool autoCalc)
 978:../LSM9DS1_Driver.c **** {
 3734              		.loc 1 978 0
 3735              		.cfi_startproc
 3736              		@ args = 0, pretend = 0, frame = 48
 3737              		@ frame_needed = 1, uses_anonymous_args = 0
 3738 0000 B0B5     		push	{r4, r5, r7, lr}
 3739              	.LCFI108:
 3740              		.cfi_def_cfa_offset 16
 3741              		.cfi_offset 4, -16
 3742              		.cfi_offset 5, -12
 3743              		.cfi_offset 7, -8
 3744              		.cfi_offset 14, -4
 3745 0002 8CB0     		sub	sp, sp, #48
 3746              	.LCFI109:
 3747              		.cfi_def_cfa_offset 64
 3748 0004 00AF     		add	r7, sp, #0
 3749              	.LCFI110:
 3750              		.cfi_def_cfa_register 7
 3751 0006 0346     		mov	r3, r0
 3752 0008 FB71     		strb	r3, [r7, #7]
 979:../LSM9DS1_Driver.c **** 	uint8_t data[6] = {0, 0, 0, 0, 0, 0};
 3753              		.loc 1 979 0
 3754 000a 4FF00003 		mov	r3, #0
 3755 000e 87F82430 		strb	r3, [r7, #36]
 3756 0012 4FF00003 		mov	r3, #0
 3757 0016 87F82530 		strb	r3, [r7, #37]
 3758 001a 4FF00003 		mov	r3, #0
 3759 001e 87F82630 		strb	r3, [r7, #38]
 3760 0022 4FF00003 		mov	r3, #0
 3761 0026 87F82730 		strb	r3, [r7, #39]
 3762 002a 4FF00003 		mov	r3, #0
 3763 002e 87F82830 		strb	r3, [r7, #40]
 3764 0032 4FF00003 		mov	r3, #0
 3765 0036 87F82930 		strb	r3, [r7, #41]
 980:../LSM9DS1_Driver.c **** 	uint8_t samples = 0;
 3766              		.loc 1 980 0
 3767 003a 4FF00003 		mov	r3, #0
 3768 003e 87F82B30 		strb	r3, [r7, #43]
 981:../LSM9DS1_Driver.c **** 	int ii;
 982:../LSM9DS1_Driver.c **** 	int32_t aBiasRawTemp[3] = {0, 0, 0};
 3769              		.loc 1 982 0
 3770 0042 4FF00003 		mov	r3, #0
 3771 0046 BB61     		str	r3, [r7, #24]
 3772 0048 4FF00003 		mov	r3, #0
 3773 004c FB61     		str	r3, [r7, #28]
 3774 004e 4FF00003 		mov	r3, #0
 3775 0052 3B62     		str	r3, [r7, #32]
 983:../LSM9DS1_Driver.c **** 	int32_t gBiasRawTemp[3] = {0, 0, 0};
 3776              		.loc 1 983 0
 3777 0054 4FF00003 		mov	r3, #0
 3778 0058 FB60     		str	r3, [r7, #12]
 3779 005a 4FF00003 		mov	r3, #0
 3780 005e 3B61     		str	r3, [r7, #16]
 3781 0060 4FF00003 		mov	r3, #0
 3782 0064 7B61     		str	r3, [r7, #20]
 984:../LSM9DS1_Driver.c **** 
 985:../LSM9DS1_Driver.c **** 	// Turn on FIFO and set threshold to 32 samples
 986:../LSM9DS1_Driver.c **** 	enableFIFO(TRUE);
 3783              		.loc 1 986 0
 3784 0066 4FF00100 		mov	r0, #1
 3785 006a FFF7FEFF 		bl	enableFIFO
 987:../LSM9DS1_Driver.c **** 	setFIFO(FIFO_THS, 0x1F);
 3786              		.loc 1 987 0
 3787 006e 4FF00100 		mov	r0, #1
 3788 0072 4FF01F01 		mov	r1, #31
 3789 0076 FFF7FEFF 		bl	setFIFO
 988:../LSM9DS1_Driver.c **** 	/*while (samples < 29)
 989:../LSM9DS1_Driver.c **** 	{*/
 990:../LSM9DS1_Driver.c **** 		samples = (xgReadByte(FIFO_SRC) & 0x3F); // Read number of stored samples
 3790              		.loc 1 990 0
 3791 007a 4FF02F00 		mov	r0, #47
 3792 007e FFF7FEFF 		bl	xgReadByte
 3793 0082 0346     		mov	r3, r0
 3794 0084 03F03F03 		and	r3, r3, #63
 3795 0088 87F82B30 		strb	r3, [r7, #43]
 991:../LSM9DS1_Driver.c **** 		//samples = 10;
 992:../LSM9DS1_Driver.c **** 	//}
 993:../LSM9DS1_Driver.c **** 	for(ii = 0; ii < samples ; ii++)
 3796              		.loc 1 993 0
 3797 008c 4FF00003 		mov	r3, #0
 3798 0090 FB62     		str	r3, [r7, #44]
 3799 0092 59E0     		b	.L135
 3800              	.L136:
 994:../LSM9DS1_Driver.c **** 	{	// Read the gyro data stored in the FIFO
 995:../LSM9DS1_Driver.c **** 		readGyro1();
 3801              		.loc 1 995 0 discriminator 2
 3802 0094 FFF7FEFF 		bl	readGyro1
 996:../LSM9DS1_Driver.c **** 		gBiasRawTemp[0] += gx;
 3803              		.loc 1 996 0 discriminator 2
 3804 0098 FA68     		ldr	r2, [r7, #12]
 3805 009a 40F20003 		movw	r3, #:lower16:gx
 3806 009e C0F20003 		movt	r3, #:upper16:gx
 3807 00a2 1B88     		ldrh	r3, [r3, #0]
 3808 00a4 1BB2     		sxth	r3, r3
 3809 00a6 D318     		adds	r3, r2, r3
 3810 00a8 FB60     		str	r3, [r7, #12]
 997:../LSM9DS1_Driver.c **** 		gBiasRawTemp[1] += gy;
 3811              		.loc 1 997 0 discriminator 2
 3812 00aa 3A69     		ldr	r2, [r7, #16]
 3813 00ac 40F20003 		movw	r3, #:lower16:gy
 3814 00b0 C0F20003 		movt	r3, #:upper16:gy
 3815 00b4 1B88     		ldrh	r3, [r3, #0]
 3816 00b6 1BB2     		sxth	r3, r3
 3817 00b8 D318     		adds	r3, r2, r3
 3818 00ba 3B61     		str	r3, [r7, #16]
 998:../LSM9DS1_Driver.c **** 		gBiasRawTemp[2] += gz;
 3819              		.loc 1 998 0 discriminator 2
 3820 00bc 7A69     		ldr	r2, [r7, #20]
 3821 00be 40F20003 		movw	r3, #:lower16:gz
 3822 00c2 C0F20003 		movt	r3, #:upper16:gz
 3823 00c6 1B88     		ldrh	r3, [r3, #0]
 3824 00c8 1BB2     		sxth	r3, r3
 3825 00ca D318     		adds	r3, r2, r3
 3826 00cc 7B61     		str	r3, [r7, #20]
 999:../LSM9DS1_Driver.c **** 
1000:../LSM9DS1_Driver.c **** 		readAccel1();
 3827              		.loc 1 1000 0 discriminator 2
 3828 00ce FFF7FEFF 		bl	readAccel1
1001:../LSM9DS1_Driver.c **** 		aBiasRawTemp[0] += ax;
 3829              		.loc 1 1001 0 discriminator 2
 3830 00d2 BA69     		ldr	r2, [r7, #24]
 3831 00d4 40F20003 		movw	r3, #:lower16:ax
 3832 00d8 C0F20003 		movt	r3, #:upper16:ax
 3833 00dc 1B88     		ldrh	r3, [r3, #0]
 3834 00de 1BB2     		sxth	r3, r3
 3835 00e0 D318     		adds	r3, r2, r3
 3836 00e2 BB61     		str	r3, [r7, #24]
1002:../LSM9DS1_Driver.c **** 		aBiasRawTemp[1] += ay;
 3837              		.loc 1 1002 0 discriminator 2
 3838 00e4 FA69     		ldr	r2, [r7, #28]
 3839 00e6 40F20003 		movw	r3, #:lower16:ay
 3840 00ea C0F20003 		movt	r3, #:upper16:ay
 3841 00ee 1B88     		ldrh	r3, [r3, #0]
 3842 00f0 1BB2     		sxth	r3, r3
 3843 00f2 D318     		adds	r3, r2, r3
 3844 00f4 FB61     		str	r3, [r7, #28]
1003:../LSM9DS1_Driver.c **** 		aBiasRawTemp[2] += az - (int16_t)(1./aRes); // Assumes sensor facing up!
 3845              		.loc 1 1003 0 discriminator 2
 3846 00f6 3C6A     		ldr	r4, [r7, #32]
 3847 00f8 40F20003 		movw	r3, #:lower16:az
 3848 00fc C0F20003 		movt	r3, #:upper16:az
 3849 0100 1B88     		ldrh	r3, [r3, #0]
 3850 0102 1DB2     		sxth	r5, r3
 3851 0104 40F20003 		movw	r3, #:lower16:aRes
 3852 0108 C0F20003 		movt	r3, #:upper16:aRes
 3853 010c 1B68     		ldr	r3, [r3, #0]	@ float
 3854 010e 1846     		mov	r0, r3	@ float
 3855 0110 FFF7FEFF 		bl	__aeabi_f2d
 3856 0114 0246     		mov	r2, r0
 3857 0116 0B46     		mov	r3, r1
 3858 0118 4FF00000 		mov	r0, #0
 3859 011c 4FF00001 		mov	r1, #0
 3860 0120 C3F6F071 		movt	r1, 16368
 3861 0124 FFF7FEFF 		bl	__aeabi_ddiv
 3862 0128 0246     		mov	r2, r0
 3863 012a 0B46     		mov	r3, r1
 3864 012c 1046     		mov	r0, r2
 3865 012e 1946     		mov	r1, r3
 3866 0130 FFF7FEFF 		bl	__aeabi_d2iz
 3867 0134 0346     		mov	r3, r0
 3868 0136 9BB2     		uxth	r3, r3
 3869 0138 1BB2     		sxth	r3, r3
 3870 013a EB1A     		subs	r3, r5, r3
 3871 013c E318     		adds	r3, r4, r3
 3872 013e 3B62     		str	r3, [r7, #32]
 993:../LSM9DS1_Driver.c **** 	for(ii = 0; ii < samples ; ii++)
 3873              		.loc 1 993 0 discriminator 2
 3874 0140 FB6A     		ldr	r3, [r7, #44]
 3875 0142 03F10103 		add	r3, r3, #1
 3876 0146 FB62     		str	r3, [r7, #44]
 3877              	.L135:
 993:../LSM9DS1_Driver.c **** 	for(ii = 0; ii < samples ; ii++)
 3878              		.loc 1 993 0 is_stmt 0 discriminator 1
 3879 0148 97F82B20 		ldrb	r2, [r7, #43]	@ zero_extendqisi2
 3880 014c FB6A     		ldr	r3, [r7, #44]
 3881 014e 9A42     		cmp	r2, r3
 3882 0150 A0DC     		bgt	.L136
1004:../LSM9DS1_Driver.c **** 	}
1005:../LSM9DS1_Driver.c **** 	for (ii = 0; ii < samples/*3*/; ii++)
 3883              		.loc 1 1005 0 is_stmt 1
 3884 0152 4FF00003 		mov	r3, #0
 3885 0156 FB62     		str	r3, [r7, #44]
 3886 0158 55E0     		b	.L137
 3887              	.L138:
1006:../LSM9DS1_Driver.c **** 	{
1007:../LSM9DS1_Driver.c **** 		gBiasRaw[ii] = gBiasRawTemp[ii] / samples;
 3888              		.loc 1 1007 0 discriminator 2
 3889 015a FB6A     		ldr	r3, [r7, #44]
 3890 015c 4FEA8303 		lsl	r3, r3, #2
 3891 0160 07F13002 		add	r2, r7, #48
 3892 0164 D318     		adds	r3, r2, r3
 3893 0166 53F8242C 		ldr	r2, [r3, #-36]
 3894 016a 97F82B30 		ldrb	r3, [r7, #43]	@ zero_extendqisi2
 3895 016e 92FBF3F3 		sdiv	r3, r2, r3
 3896 0172 99B2     		uxth	r1, r3
 3897 0174 40F20003 		movw	r3, #:lower16:gBiasRaw
 3898 0178 C0F20003 		movt	r3, #:upper16:gBiasRaw
 3899 017c FA6A     		ldr	r2, [r7, #44]
 3900 017e 23F81210 		strh	r1, [r3, r2, lsl #1]	@ movhi
1008:../LSM9DS1_Driver.c **** 		gBias[ii] = calcGyro(gBiasRaw[ii]);
 3901              		.loc 1 1008 0 discriminator 2
 3902 0182 40F20003 		movw	r3, #:lower16:gBiasRaw
 3903 0186 C0F20003 		movt	r3, #:upper16:gBiasRaw
 3904 018a FA6A     		ldr	r2, [r7, #44]
 3905 018c 33F81230 		ldrh	r3, [r3, r2, lsl #1]
 3906 0190 1BB2     		sxth	r3, r3
 3907 0192 1846     		mov	r0, r3
 3908 0194 FFF7FEFF 		bl	calcGyro
 3909 0198 0246     		mov	r2, r0	@ float
 3910 019a 40F20003 		movw	r3, #:lower16:gBias
 3911 019e C0F20003 		movt	r3, #:upper16:gBias
 3912 01a2 F96A     		ldr	r1, [r7, #44]
 3913 01a4 4FEA8101 		lsl	r1, r1, #2
 3914 01a8 5B18     		adds	r3, r3, r1
 3915 01aa 1A60     		str	r2, [r3, #0]	@ float
1009:../LSM9DS1_Driver.c **** 		aBiasRaw[ii] = aBiasRawTemp[ii] / samples;
 3916              		.loc 1 1009 0 discriminator 2
 3917 01ac FB6A     		ldr	r3, [r7, #44]
 3918 01ae 4FEA8303 		lsl	r3, r3, #2
 3919 01b2 07F13002 		add	r2, r7, #48
 3920 01b6 D318     		adds	r3, r2, r3
 3921 01b8 53F8182C 		ldr	r2, [r3, #-24]
 3922 01bc 97F82B30 		ldrb	r3, [r7, #43]	@ zero_extendqisi2
 3923 01c0 92FBF3F3 		sdiv	r3, r2, r3
 3924 01c4 99B2     		uxth	r1, r3
 3925 01c6 40F20003 		movw	r3, #:lower16:aBiasRaw
 3926 01ca C0F20003 		movt	r3, #:upper16:aBiasRaw
 3927 01ce FA6A     		ldr	r2, [r7, #44]
 3928 01d0 23F81210 		strh	r1, [r3, r2, lsl #1]	@ movhi
1010:../LSM9DS1_Driver.c **** 		aBias[ii] = calcAccel(aBiasRaw[ii]);
 3929              		.loc 1 1010 0 discriminator 2
 3930 01d4 40F20003 		movw	r3, #:lower16:aBiasRaw
 3931 01d8 C0F20003 		movt	r3, #:upper16:aBiasRaw
 3932 01dc FA6A     		ldr	r2, [r7, #44]
 3933 01de 33F81230 		ldrh	r3, [r3, r2, lsl #1]
 3934 01e2 1BB2     		sxth	r3, r3
 3935 01e4 1846     		mov	r0, r3
 3936 01e6 FFF7FEFF 		bl	calcAccel
 3937 01ea 0246     		mov	r2, r0	@ float
 3938 01ec 40F20003 		movw	r3, #:lower16:aBias
 3939 01f0 C0F20003 		movt	r3, #:upper16:aBias
 3940 01f4 F96A     		ldr	r1, [r7, #44]
 3941 01f6 4FEA8101 		lsl	r1, r1, #2
 3942 01fa 5B18     		adds	r3, r3, r1
 3943 01fc 1A60     		str	r2, [r3, #0]	@ float
1005:../LSM9DS1_Driver.c **** 	for (ii = 0; ii < samples/*3*/; ii++)
 3944              		.loc 1 1005 0 discriminator 2
 3945 01fe FB6A     		ldr	r3, [r7, #44]
 3946 0200 03F10103 		add	r3, r3, #1
 3947 0204 FB62     		str	r3, [r7, #44]
 3948              	.L137:
1005:../LSM9DS1_Driver.c **** 	for (ii = 0; ii < samples/*3*/; ii++)
 3949              		.loc 1 1005 0 is_stmt 0 discriminator 1
 3950 0206 97F82B20 		ldrb	r2, [r7, #43]	@ zero_extendqisi2
 3951 020a FB6A     		ldr	r3, [r7, #44]
 3952 020c 9A42     		cmp	r2, r3
 3953 020e A4DC     		bgt	.L138
1011:../LSM9DS1_Driver.c **** 	}
1012:../LSM9DS1_Driver.c **** 
1013:../LSM9DS1_Driver.c **** 	enableFIFO(FALSE);
 3954              		.loc 1 1013 0 is_stmt 1
 3955 0210 4FF00000 		mov	r0, #0
 3956 0214 FFF7FEFF 		bl	enableFIFO
1014:../LSM9DS1_Driver.c **** 	setFIFO(FIFO_OFF, 0x00);
 3957              		.loc 1 1014 0
 3958 0218 4FF00000 		mov	r0, #0
 3959 021c 4FF00001 		mov	r1, #0
 3960 0220 FFF7FEFF 		bl	setFIFO
1015:../LSM9DS1_Driver.c **** 
1016:../LSM9DS1_Driver.c **** 	if (autoCalc) _autoCalc = TRUE;
 3961              		.loc 1 1016 0
 3962 0224 FB79     		ldrb	r3, [r7, #7]	@ zero_extendqisi2
 3963 0226 002B     		cmp	r3, #0
 3964 0228 06D0     		beq	.L134
 3965              		.loc 1 1016 0 is_stmt 0 discriminator 1
 3966 022a 40F20003 		movw	r3, #:lower16:_autoCalc
 3967 022e C0F20003 		movt	r3, #:upper16:_autoCalc
 3968 0232 4FF00102 		mov	r2, #1
 3969 0236 1A70     		strb	r2, [r3, #0]
 3970              	.L134:
1017:../LSM9DS1_Driver.c **** }
 3971              		.loc 1 1017 0 is_stmt 1
 3972 0238 07F13007 		add	r7, r7, #48
 3973 023c BD46     		mov	sp, r7
 3974 023e B0BD     		pop	{r4, r5, r7, pc}
 3975              		.cfi_endproc
 3976              	.LFE163:
 3978              		.section	.text.xgReadBytes,"ax",%progbits
 3979              		.align	2
 3980              		.global	xgReadBytes
 3981              		.thumb
 3982              		.thumb_func
 3984              	xgReadBytes:
 3985              	.LFB164:
1018:../LSM9DS1_Driver.c **** 
1019:../LSM9DS1_Driver.c **** 
1020:../LSM9DS1_Driver.c **** void xgReadBytes(uint8_t subAddress, uint8_t * dest, uint8_t count)
1021:../LSM9DS1_Driver.c **** {
 3986              		.loc 1 1021 0
 3987              		.cfi_startproc
 3988              		@ args = 0, pretend = 0, frame = 8
 3989              		@ frame_needed = 1, uses_anonymous_args = 0
 3990 0000 80B5     		push	{r7, lr}
 3991              	.LCFI111:
 3992              		.cfi_def_cfa_offset 8
 3993              		.cfi_offset 7, -8
 3994              		.cfi_offset 14, -4
 3995 0002 82B0     		sub	sp, sp, #8
 3996              	.LCFI112:
 3997              		.cfi_def_cfa_offset 16
 3998 0004 00AF     		add	r7, sp, #0
 3999              	.LCFI113:
 4000              		.cfi_def_cfa_register 7
 4001 0006 3960     		str	r1, [r7, #0]
 4002 0008 1346     		mov	r3, r2
 4003 000a 0246     		mov	r2, r0
 4004 000c FA71     		strb	r2, [r7, #7]
 4005 000e BB71     		strb	r3, [r7, #6]
1022:../LSM9DS1_Driver.c **** 	// Whether we're using I2C or SPI, read multiple bytes using the
1023:../LSM9DS1_Driver.c **** 	// gyro-specific I2C address or SPI CS pin.
1024:../LSM9DS1_Driver.c **** 	if (settings.device.commInterface == IMU_MODE_I2C)
 4006              		.loc 1 1024 0
 4007 0010 40F20003 		movw	r3, #:lower16:settings
 4008 0014 C0F20003 		movt	r3, #:upper16:settings
 4009 0018 1B78     		ldrb	r3, [r3, #0]	@ zero_extendqisi2
 4010 001a 012B     		cmp	r3, #1
 4011 001c 0CD1     		bne	.L141
1025:../LSM9DS1_Driver.c **** 		I2CreadBytes(_xgAddress, subAddress, dest, count);
 4012              		.loc 1 1025 0
 4013 001e 40F20003 		movw	r3, #:lower16:_xgAddress
 4014 0022 C0F20003 		movt	r3, #:upper16:_xgAddress
 4015 0026 1978     		ldrb	r1, [r3, #0]	@ zero_extendqisi2
 4016 0028 FA79     		ldrb	r2, [r7, #7]	@ zero_extendqisi2
 4017 002a BB79     		ldrb	r3, [r7, #6]	@ zero_extendqisi2
 4018 002c 0846     		mov	r0, r1
 4019 002e 1146     		mov	r1, r2
 4020 0030 3A68     		ldr	r2, [r7, #0]
 4021 0032 FFF7FEFF 		bl	I2CreadBytes
 4022 0036 12E0     		b	.L140
 4023              	.L141:
1026:../LSM9DS1_Driver.c **** 		//I2CreadBytes1(_xgAddress, subAddress, dest, count);
1027:../LSM9DS1_Driver.c **** 	else if (settings.device.commInterface == IMU_MODE_SPI)
 4024              		.loc 1 1027 0
 4025 0038 40F20003 		movw	r3, #:lower16:settings
 4026 003c C0F20003 		movt	r3, #:upper16:settings
 4027 0040 1B78     		ldrb	r3, [r3, #0]	@ zero_extendqisi2
 4028 0042 002B     		cmp	r3, #0
 4029 0044 0BD1     		bne	.L140
1028:../LSM9DS1_Driver.c **** 		SPIreadBytes(_xgAddress, subAddress, dest, count);
 4030              		.loc 1 1028 0
 4031 0046 40F20003 		movw	r3, #:lower16:_xgAddress
 4032 004a C0F20003 		movt	r3, #:upper16:_xgAddress
 4033 004e 1978     		ldrb	r1, [r3, #0]	@ zero_extendqisi2
 4034 0050 FA79     		ldrb	r2, [r7, #7]	@ zero_extendqisi2
 4035 0052 BB79     		ldrb	r3, [r7, #6]	@ zero_extendqisi2
 4036 0054 0846     		mov	r0, r1
 4037 0056 1146     		mov	r1, r2
 4038 0058 3A68     		ldr	r2, [r7, #0]
 4039 005a FFF7FEFF 		bl	SPIreadBytes
 4040              	.L140:
1029:../LSM9DS1_Driver.c **** }
 4041              		.loc 1 1029 0
 4042 005e 07F10807 		add	r7, r7, #8
 4043 0062 BD46     		mov	sp, r7
 4044 0064 80BD     		pop	{r7, pc}
 4045              		.cfi_endproc
 4046              	.LFE164:
 4048              		.section	.text.SPIreadBytes,"ax",%progbits
 4049              		.align	2
 4050              		.global	SPIreadBytes
 4051              		.thumb
 4052              		.thumb_func
 4054              	SPIreadBytes:
 4055              	.LFB165:
1030:../LSM9DS1_Driver.c **** 
1031:../LSM9DS1_Driver.c **** void SPIreadBytes(uint8_t csPin, uint8_t subAddress, uint8_t * dest, uint8_t count)
1032:../LSM9DS1_Driver.c **** {
 4056              		.loc 1 1032 0
 4057              		.cfi_startproc
 4058              		@ args = 0, pretend = 0, frame = 8
 4059              		@ frame_needed = 1, uses_anonymous_args = 0
 4060              		@ link register save eliminated.
 4061 0000 80B4     		push	{r7}
 4062              	.LCFI114:
 4063              		.cfi_def_cfa_offset 4
 4064              		.cfi_offset 7, -4
 4065 0002 83B0     		sub	sp, sp, #12
 4066              	.LCFI115:
 4067              		.cfi_def_cfa_offset 16
 4068 0004 00AF     		add	r7, sp, #0
 4069              	.LCFI116:
 4070              		.cfi_def_cfa_register 7
 4071 0006 3A60     		str	r2, [r7, #0]
 4072 0008 0246     		mov	r2, r0
 4073 000a FA71     		strb	r2, [r7, #7]
 4074 000c 0A46     		mov	r2, r1
 4075 000e BA71     		strb	r2, [r7, #6]
 4076 0010 7B71     		strb	r3, [r7, #5]
1033:../LSM9DS1_Driver.c **** 	;
1034:../LSM9DS1_Driver.c **** }
 4077              		.loc 1 1034 0
 4078 0012 07F10C07 		add	r7, r7, #12
 4079 0016 BD46     		mov	sp, r7
 4080 0018 80BC     		pop	{r7}
 4081 001a 7047     		bx	lr
 4082              		.cfi_endproc
 4083              	.LFE165:
 4085              		.section	.text.readGyro1,"ax",%progbits
 4086              		.align	2
 4087              		.global	readGyro1
 4088              		.thumb
 4089              		.thumb_func
 4091              	readGyro1:
 4092              	.LFB166:
1035:../LSM9DS1_Driver.c **** 
1036:../LSM9DS1_Driver.c **** void readGyro1(void)
1037:../LSM9DS1_Driver.c **** {
 4093              		.loc 1 1037 0
 4094              		.cfi_startproc
 4095              		@ args = 0, pretend = 0, frame = 8
 4096              		@ frame_needed = 1, uses_anonymous_args = 0
 4097 0000 90B5     		push	{r4, r7, lr}
 4098              	.LCFI117:
 4099              		.cfi_def_cfa_offset 12
 4100              		.cfi_offset 4, -12
 4101              		.cfi_offset 7, -8
 4102              		.cfi_offset 14, -4
 4103 0002 83B0     		sub	sp, sp, #12
 4104              	.LCFI118:
 4105              		.cfi_def_cfa_offset 24
 4106 0004 00AF     		add	r7, sp, #0
 4107              	.LCFI119:
 4108              		.cfi_def_cfa_register 7
1038:../LSM9DS1_Driver.c **** 	uint8_t i = 0; //licznik dla czytania
 4109              		.loc 1 1038 0
 4110 0006 4FF00003 		mov	r3, #0
 4111 000a FB71     		strb	r3, [r7, #7]
1039:../LSM9DS1_Driver.c **** 	uint8_t temp[6]; // We'll read six bytes from the gyro into temp
1040:../LSM9DS1_Driver.c **** 	uint8_t subAddr = OUT_X_L_G;
 4112              		.loc 1 1040 0
 4113 000c 4FF01803 		mov	r3, #24
 4114 0010 BB71     		strb	r3, [r7, #6]
1041:../LSM9DS1_Driver.c **** 
1042:../LSM9DS1_Driver.c **** 
1043:../LSM9DS1_Driver.c **** 	while(i < 6)
 4115              		.loc 1 1043 0
 4116 0012 24E0     		b	.L145
 4117              	.L146:
1044:../LSM9DS1_Driver.c **** 	{
1045:../LSM9DS1_Driver.c **** 		subAddr = OUT_X_L_G;
 4118              		.loc 1 1045 0
 4119 0014 4FF01803 		mov	r3, #24
 4120 0018 BB71     		strb	r3, [r7, #6]
1046:../LSM9DS1_Driver.c **** 		subAddr = subAddr + i;
 4121              		.loc 1 1046 0
 4122 001a BA79     		ldrb	r2, [r7, #6]
 4123 001c FB79     		ldrb	r3, [r7, #7]
 4124 001e D318     		adds	r3, r2, r3
 4125 0020 BB71     		strb	r3, [r7, #6]
1047:../LSM9DS1_Driver.c **** 		temp[i] = I2CreadBytes(_xgAddress, subAddr, NULL, 0);
 4126              		.loc 1 1047 0
 4127 0022 FC79     		ldrb	r4, [r7, #7]	@ zero_extendqisi2
 4128 0024 40F20003 		movw	r3, #:lower16:_xgAddress
 4129 0028 C0F20003 		movt	r3, #:upper16:_xgAddress
 4130 002c 1A78     		ldrb	r2, [r3, #0]	@ zero_extendqisi2
 4131 002e BB79     		ldrb	r3, [r7, #6]	@ zero_extendqisi2
 4132 0030 1046     		mov	r0, r2
 4133 0032 1946     		mov	r1, r3
 4134 0034 4FF00002 		mov	r2, #0
 4135 0038 4FF00003 		mov	r3, #0
 4136 003c FFF7FEFF 		bl	I2CreadBytes
 4137 0040 0346     		mov	r3, r0
 4138 0042 1A46     		mov	r2, r3
 4139 0044 07F10801 		add	r1, r7, #8
 4140 0048 0B19     		adds	r3, r1, r4
 4141 004a 03F8082C 		strb	r2, [r3, #-8]
1048:../LSM9DS1_Driver.c **** 		delay(DELAY);
 4142              		.loc 1 1048 0
 4143 004e 4FF49660 		mov	r0, #1200
 4144 0052 FFF7FEFF 		bl	delay
1049:../LSM9DS1_Driver.c **** 		i++;
 4145              		.loc 1 1049 0
 4146 0056 FB79     		ldrb	r3, [r7, #7]
 4147 0058 03F10103 		add	r3, r3, #1
 4148 005c FB71     		strb	r3, [r7, #7]
 4149              	.L145:
1043:../LSM9DS1_Driver.c **** 	while(i < 6)
 4150              		.loc 1 1043 0 discriminator 1
 4151 005e FB79     		ldrb	r3, [r7, #7]	@ zero_extendqisi2
 4152 0060 052B     		cmp	r3, #5
 4153 0062 D7D9     		bls	.L146
1050:../LSM9DS1_Driver.c **** 	}
1051:../LSM9DS1_Driver.c **** 
1052:../LSM9DS1_Driver.c **** 	gx = ((int8_t)temp[1] << 8) | (int8_t)temp[0]; // Store x-axis values into gx
 4154              		.loc 1 1052 0
 4155 0064 7B78     		ldrb	r3, [r7, #1]	@ zero_extendqisi2
 4156 0066 DBB2     		uxtb	r3, r3
 4157 0068 5BB2     		sxtb	r3, r3
 4158 006a 4FEA0323 		lsl	r3, r3, #8
 4159 006e 9AB2     		uxth	r2, r3
 4160 0070 3B78     		ldrb	r3, [r7, #0]	@ zero_extendqisi2
 4161 0072 DBB2     		uxtb	r3, r3
 4162 0074 5BB2     		sxtb	r3, r3
 4163 0076 9BB2     		uxth	r3, r3
 4164 0078 1343     		orrs	r3, r3, r2
 4165 007a 9AB2     		uxth	r2, r3
 4166 007c 40F20003 		movw	r3, #:lower16:gx
 4167 0080 C0F20003 		movt	r3, #:upper16:gx
 4168 0084 1A80     		strh	r2, [r3, #0]	@ movhi
1053:../LSM9DS1_Driver.c **** 
1054:../LSM9DS1_Driver.c **** 	gy = (temp[3] << 8) | temp[2]; // Store y-axis values into gy
 4169              		.loc 1 1054 0
 4170 0086 FB78     		ldrb	r3, [r7, #3]	@ zero_extendqisi2
 4171 0088 4FEA0323 		lsl	r3, r3, #8
 4172 008c 9AB2     		uxth	r2, r3
 4173 008e BB78     		ldrb	r3, [r7, #2]	@ zero_extendqisi2
 4174 0090 1343     		orrs	r3, r3, r2
 4175 0092 9AB2     		uxth	r2, r3
 4176 0094 40F20003 		movw	r3, #:lower16:gy
 4177 0098 C0F20003 		movt	r3, #:upper16:gy
 4178 009c 1A80     		strh	r2, [r3, #0]	@ movhi
1055:../LSM9DS1_Driver.c **** 
1056:../LSM9DS1_Driver.c **** 	gz = (temp[5] << 8) | temp[4]; // Store z-axis values into gz
 4179              		.loc 1 1056 0
 4180 009e 7B79     		ldrb	r3, [r7, #5]	@ zero_extendqisi2
 4181 00a0 4FEA0323 		lsl	r3, r3, #8
 4182 00a4 9AB2     		uxth	r2, r3
 4183 00a6 3B79     		ldrb	r3, [r7, #4]	@ zero_extendqisi2
 4184 00a8 1343     		orrs	r3, r3, r2
 4185 00aa 9AB2     		uxth	r2, r3
 4186 00ac 40F20003 		movw	r3, #:lower16:gz
 4187 00b0 C0F20003 		movt	r3, #:upper16:gz
 4188 00b4 1A80     		strh	r2, [r3, #0]	@ movhi
1057:../LSM9DS1_Driver.c **** 
1058:../LSM9DS1_Driver.c **** 
1059:../LSM9DS1_Driver.c **** 
1060:../LSM9DS1_Driver.c **** 	if (_autoCalc) //kalibracja
 4189              		.loc 1 1060 0
 4190 00b6 40F20003 		movw	r3, #:lower16:_autoCalc
 4191 00ba C0F20003 		movt	r3, #:upper16:_autoCalc
 4192 00be 1B78     		ldrb	r3, [r3, #0]	@ zero_extendqisi2
 4193 00c0 002B     		cmp	r3, #0
 4194 00c2 3BD0     		beq	.L144
1061:../LSM9DS1_Driver.c **** 	{
1062:../LSM9DS1_Driver.c **** 		gx -= gBiasRaw[X_AXIS];
 4195              		.loc 1 1062 0
 4196 00c4 40F20003 		movw	r3, #:lower16:gx
 4197 00c8 C0F20003 		movt	r3, #:upper16:gx
 4198 00cc 1B88     		ldrh	r3, [r3, #0]
 4199 00ce 9AB2     		uxth	r2, r3
 4200 00d0 40F20003 		movw	r3, #:lower16:gBiasRaw
 4201 00d4 C0F20003 		movt	r3, #:upper16:gBiasRaw
 4202 00d8 1B88     		ldrh	r3, [r3, #0]
 4203 00da 9BB2     		uxth	r3, r3
 4204 00dc D31A     		subs	r3, r2, r3
 4205 00de 9BB2     		uxth	r3, r3
 4206 00e0 9AB2     		uxth	r2, r3
 4207 00e2 40F20003 		movw	r3, #:lower16:gx
 4208 00e6 C0F20003 		movt	r3, #:upper16:gx
 4209 00ea 1A80     		strh	r2, [r3, #0]	@ movhi
1063:../LSM9DS1_Driver.c **** 		gy -= gBiasRaw[Y_AXIS];
 4210              		.loc 1 1063 0
 4211 00ec 40F20003 		movw	r3, #:lower16:gy
 4212 00f0 C0F20003 		movt	r3, #:upper16:gy
 4213 00f4 1B88     		ldrh	r3, [r3, #0]
 4214 00f6 9AB2     		uxth	r2, r3
 4215 00f8 40F20003 		movw	r3, #:lower16:gBiasRaw
 4216 00fc C0F20003 		movt	r3, #:upper16:gBiasRaw
 4217 0100 5B88     		ldrh	r3, [r3, #2]
 4218 0102 9BB2     		uxth	r3, r3
 4219 0104 D31A     		subs	r3, r2, r3
 4220 0106 9BB2     		uxth	r3, r3
 4221 0108 9AB2     		uxth	r2, r3
 4222 010a 40F20003 		movw	r3, #:lower16:gy
 4223 010e C0F20003 		movt	r3, #:upper16:gy
 4224 0112 1A80     		strh	r2, [r3, #0]	@ movhi
1064:../LSM9DS1_Driver.c **** 		gz -= gBiasRaw[Z_AXIS];
 4225              		.loc 1 1064 0
 4226 0114 40F20003 		movw	r3, #:lower16:gz
 4227 0118 C0F20003 		movt	r3, #:upper16:gz
 4228 011c 1B88     		ldrh	r3, [r3, #0]
 4229 011e 9AB2     		uxth	r2, r3
 4230 0120 40F20003 		movw	r3, #:lower16:gBiasRaw
 4231 0124 C0F20003 		movt	r3, #:upper16:gBiasRaw
 4232 0128 9B88     		ldrh	r3, [r3, #4]
 4233 012a 9BB2     		uxth	r3, r3
 4234 012c D31A     		subs	r3, r2, r3
 4235 012e 9BB2     		uxth	r3, r3
 4236 0130 9AB2     		uxth	r2, r3
 4237 0132 40F20003 		movw	r3, #:lower16:gz
 4238 0136 C0F20003 		movt	r3, #:upper16:gz
 4239 013a 1A80     		strh	r2, [r3, #0]	@ movhi
 4240              	.L144:
1065:../LSM9DS1_Driver.c **** 	}
1066:../LSM9DS1_Driver.c **** 	/*gx = calcGyro(gx);
1067:../LSM9DS1_Driver.c **** 	gy = calcGyro(gy);
1068:../LSM9DS1_Driver.c **** 	gz = calcGyro(gz);*/
1069:../LSM9DS1_Driver.c **** }
 4241              		.loc 1 1069 0
 4242 013c 07F10C07 		add	r7, r7, #12
 4243 0140 BD46     		mov	sp, r7
 4244 0142 90BD     		pop	{r4, r7, pc}
 4245              		.cfi_endproc
 4246              	.LFE166:
 4248              		.section	.text.readAccel1,"ax",%progbits
 4249              		.align	2
 4250              		.global	readAccel1
 4251              		.thumb
 4252              		.thumb_func
 4254              	readAccel1:
 4255              	.LFB167:
1070:../LSM9DS1_Driver.c **** 
1071:../LSM9DS1_Driver.c **** void readAccel1(void)
1072:../LSM9DS1_Driver.c **** {
 4256              		.loc 1 1072 0
 4257              		.cfi_startproc
 4258              		@ args = 0, pretend = 0, frame = 8
 4259              		@ frame_needed = 1, uses_anonymous_args = 0
 4260 0000 90B5     		push	{r4, r7, lr}
 4261              	.LCFI120:
 4262              		.cfi_def_cfa_offset 12
 4263              		.cfi_offset 4, -12
 4264              		.cfi_offset 7, -8
 4265              		.cfi_offset 14, -4
 4266 0002 83B0     		sub	sp, sp, #12
 4267              	.LCFI121:
 4268              		.cfi_def_cfa_offset 24
 4269 0004 00AF     		add	r7, sp, #0
 4270              	.LCFI122:
 4271              		.cfi_def_cfa_register 7
1073:../LSM9DS1_Driver.c **** 	uint8_t i = 0; //licznik dla czytania
 4272              		.loc 1 1073 0
 4273 0006 4FF00003 		mov	r3, #0
 4274 000a FB71     		strb	r3, [r7, #7]
1074:../LSM9DS1_Driver.c **** 	uint8_t temp[6]; // We'll read six bytes from the gyro into temp
1075:../LSM9DS1_Driver.c **** 	uint8_t subAddr = OUT_X_L_XL;
 4275              		.loc 1 1075 0
 4276 000c 4FF02803 		mov	r3, #40
 4277 0010 BB71     		strb	r3, [r7, #6]
1076:../LSM9DS1_Driver.c **** 
1077:../LSM9DS1_Driver.c **** 	while(i < 6)
 4278              		.loc 1 1077 0
 4279 0012 20E0     		b	.L149
 4280              	.L150:
1078:../LSM9DS1_Driver.c **** 	{
1079:../LSM9DS1_Driver.c **** 		subAddr = OUT_X_L_XL;
 4281              		.loc 1 1079 0
 4282 0014 4FF02803 		mov	r3, #40
 4283 0018 BB71     		strb	r3, [r7, #6]
1080:../LSM9DS1_Driver.c **** 		subAddr = subAddr + i;
 4284              		.loc 1 1080 0
 4285 001a BA79     		ldrb	r2, [r7, #6]
 4286 001c FB79     		ldrb	r3, [r7, #7]
 4287 001e D318     		adds	r3, r2, r3
 4288 0020 BB71     		strb	r3, [r7, #6]
1081:../LSM9DS1_Driver.c **** 		temp[i] = I2CreadBytes(_xgAddress, subAddr, NULL, 0);
 4289              		.loc 1 1081 0
 4290 0022 FC79     		ldrb	r4, [r7, #7]	@ zero_extendqisi2
 4291 0024 40F20003 		movw	r3, #:lower16:_xgAddress
 4292 0028 C0F20003 		movt	r3, #:upper16:_xgAddress
 4293 002c 1A78     		ldrb	r2, [r3, #0]	@ zero_extendqisi2
 4294 002e BB79     		ldrb	r3, [r7, #6]	@ zero_extendqisi2
 4295 0030 1046     		mov	r0, r2
 4296 0032 1946     		mov	r1, r3
 4297 0034 4FF00002 		mov	r2, #0
 4298 0038 4FF00003 		mov	r3, #0
 4299 003c FFF7FEFF 		bl	I2CreadBytes
 4300 0040 0346     		mov	r3, r0
 4301 0042 1A46     		mov	r2, r3
 4302 0044 07F10801 		add	r1, r7, #8
 4303 0048 0B19     		adds	r3, r1, r4
 4304 004a 03F8082C 		strb	r2, [r3, #-8]
1082:../LSM9DS1_Driver.c **** 		i++;
 4305              		.loc 1 1082 0
 4306 004e FB79     		ldrb	r3, [r7, #7]
 4307 0050 03F10103 		add	r3, r3, #1
 4308 0054 FB71     		strb	r3, [r7, #7]
 4309              	.L149:
1077:../LSM9DS1_Driver.c **** 	while(i < 6)
 4310              		.loc 1 1077 0 discriminator 1
 4311 0056 FB79     		ldrb	r3, [r7, #7]	@ zero_extendqisi2
 4312 0058 052B     		cmp	r3, #5
 4313 005a DBD9     		bls	.L150
1083:../LSM9DS1_Driver.c **** 	}
1084:../LSM9DS1_Driver.c **** 
1085:../LSM9DS1_Driver.c **** 	ax = (temp[1] << 8) | temp[0]; // Store x-axis values into ax
 4314              		.loc 1 1085 0
 4315 005c 7B78     		ldrb	r3, [r7, #1]	@ zero_extendqisi2
 4316 005e 4FEA0323 		lsl	r3, r3, #8
 4317 0062 9AB2     		uxth	r2, r3
 4318 0064 3B78     		ldrb	r3, [r7, #0]	@ zero_extendqisi2
 4319 0066 1343     		orrs	r3, r3, r2
 4320 0068 9AB2     		uxth	r2, r3
 4321 006a 40F20003 		movw	r3, #:lower16:ax
 4322 006e C0F20003 		movt	r3, #:upper16:ax
 4323 0072 1A80     		strh	r2, [r3, #0]	@ movhi
1086:../LSM9DS1_Driver.c **** 	ay = (temp[3] << 8) | temp[2]; // Store y-axis values into ay
 4324              		.loc 1 1086 0
 4325 0074 FB78     		ldrb	r3, [r7, #3]	@ zero_extendqisi2
 4326 0076 4FEA0323 		lsl	r3, r3, #8
 4327 007a 9AB2     		uxth	r2, r3
 4328 007c BB78     		ldrb	r3, [r7, #2]	@ zero_extendqisi2
 4329 007e 1343     		orrs	r3, r3, r2
 4330 0080 9AB2     		uxth	r2, r3
 4331 0082 40F20003 		movw	r3, #:lower16:ay
 4332 0086 C0F20003 		movt	r3, #:upper16:ay
 4333 008a 1A80     		strh	r2, [r3, #0]	@ movhi
1087:../LSM9DS1_Driver.c **** 	az = (temp[5] << 8) | temp[4]; // Store z-axis values into az
 4334              		.loc 1 1087 0
 4335 008c 7B79     		ldrb	r3, [r7, #5]	@ zero_extendqisi2
 4336 008e 4FEA0323 		lsl	r3, r3, #8
 4337 0092 9AB2     		uxth	r2, r3
 4338 0094 3B79     		ldrb	r3, [r7, #4]	@ zero_extendqisi2
 4339 0096 1343     		orrs	r3, r3, r2
 4340 0098 9AB2     		uxth	r2, r3
 4341 009a 40F20003 		movw	r3, #:lower16:az
 4342 009e C0F20003 		movt	r3, #:upper16:az
 4343 00a2 1A80     		strh	r2, [r3, #0]	@ movhi
1088:../LSM9DS1_Driver.c **** 
1089:../LSM9DS1_Driver.c **** 	if (_autoCalc) //kalibracja
 4344              		.loc 1 1089 0
 4345 00a4 40F20003 		movw	r3, #:lower16:_autoCalc
 4346 00a8 C0F20003 		movt	r3, #:upper16:_autoCalc
 4347 00ac 1B78     		ldrb	r3, [r3, #0]	@ zero_extendqisi2
 4348 00ae 002B     		cmp	r3, #0
 4349 00b0 3BD0     		beq	.L148
1090:../LSM9DS1_Driver.c **** 	{
1091:../LSM9DS1_Driver.c **** 		ax -= aBiasRaw[X_AXIS];
 4350              		.loc 1 1091 0
 4351 00b2 40F20003 		movw	r3, #:lower16:ax
 4352 00b6 C0F20003 		movt	r3, #:upper16:ax
 4353 00ba 1B88     		ldrh	r3, [r3, #0]
 4354 00bc 9AB2     		uxth	r2, r3
 4355 00be 40F20003 		movw	r3, #:lower16:aBiasRaw
 4356 00c2 C0F20003 		movt	r3, #:upper16:aBiasRaw
 4357 00c6 1B88     		ldrh	r3, [r3, #0]
 4358 00c8 9BB2     		uxth	r3, r3
 4359 00ca D31A     		subs	r3, r2, r3
 4360 00cc 9BB2     		uxth	r3, r3
 4361 00ce 9AB2     		uxth	r2, r3
 4362 00d0 40F20003 		movw	r3, #:lower16:ax
 4363 00d4 C0F20003 		movt	r3, #:upper16:ax
 4364 00d8 1A80     		strh	r2, [r3, #0]	@ movhi
1092:../LSM9DS1_Driver.c **** 		ay -= aBiasRaw[Y_AXIS];
 4365              		.loc 1 1092 0
 4366 00da 40F20003 		movw	r3, #:lower16:ay
 4367 00de C0F20003 		movt	r3, #:upper16:ay
 4368 00e2 1B88     		ldrh	r3, [r3, #0]
 4369 00e4 9AB2     		uxth	r2, r3
 4370 00e6 40F20003 		movw	r3, #:lower16:aBiasRaw
 4371 00ea C0F20003 		movt	r3, #:upper16:aBiasRaw
 4372 00ee 5B88     		ldrh	r3, [r3, #2]
 4373 00f0 9BB2     		uxth	r3, r3
 4374 00f2 D31A     		subs	r3, r2, r3
 4375 00f4 9BB2     		uxth	r3, r3
 4376 00f6 9AB2     		uxth	r2, r3
 4377 00f8 40F20003 		movw	r3, #:lower16:ay
 4378 00fc C0F20003 		movt	r3, #:upper16:ay
 4379 0100 1A80     		strh	r2, [r3, #0]	@ movhi
1093:../LSM9DS1_Driver.c **** 		az -= aBiasRaw[Z_AXIS];
 4380              		.loc 1 1093 0
 4381 0102 40F20003 		movw	r3, #:lower16:az
 4382 0106 C0F20003 		movt	r3, #:upper16:az
 4383 010a 1B88     		ldrh	r3, [r3, #0]
 4384 010c 9AB2     		uxth	r2, r3
 4385 010e 40F20003 		movw	r3, #:lower16:aBiasRaw
 4386 0112 C0F20003 		movt	r3, #:upper16:aBiasRaw
 4387 0116 9B88     		ldrh	r3, [r3, #4]
 4388 0118 9BB2     		uxth	r3, r3
 4389 011a D31A     		subs	r3, r2, r3
 4390 011c 9BB2     		uxth	r3, r3
 4391 011e 9AB2     		uxth	r2, r3
 4392 0120 40F20003 		movw	r3, #:lower16:az
 4393 0124 C0F20003 		movt	r3, #:upper16:az
 4394 0128 1A80     		strh	r2, [r3, #0]	@ movhi
 4395              	.L148:
1094:../LSM9DS1_Driver.c **** 	}
1095:../LSM9DS1_Driver.c **** 
1096:../LSM9DS1_Driver.c **** 	/*ax = calcAccel(ax);
1097:../LSM9DS1_Driver.c **** 	ay = calcAccel(ay);
1098:../LSM9DS1_Driver.c **** 	az = calcAccel(az);*/
1099:../LSM9DS1_Driver.c **** }
 4396              		.loc 1 1099 0
 4397 012a 07F10C07 		add	r7, r7, #12
 4398 012e BD46     		mov	sp, r7
 4399 0130 90BD     		pop	{r4, r7, pc}
 4400              		.cfi_endproc
 4401              	.LFE167:
 4403 0132 00BF     		.section	.text.readAccelToSensor,"ax",%progbits
 4404              		.align	2
 4405              		.global	readAccelToSensor
 4406              		.thumb
 4407              		.thumb_func
 4409              	readAccelToSensor:
 4410              	.LFB168:
1100:../LSM9DS1_Driver.c **** 
1101:../LSM9DS1_Driver.c **** void readAccelToSensor(accel *pomiar)
1102:../LSM9DS1_Driver.c **** {
 4411              		.loc 1 1102 0
 4412              		.cfi_startproc
 4413              		@ args = 0, pretend = 0, frame = 16
 4414              		@ frame_needed = 1, uses_anonymous_args = 0
 4415 0000 90B5     		push	{r4, r7, lr}
 4416              	.LCFI123:
 4417              		.cfi_def_cfa_offset 12
 4418              		.cfi_offset 4, -12
 4419              		.cfi_offset 7, -8
 4420              		.cfi_offset 14, -4
 4421 0002 85B0     		sub	sp, sp, #20
 4422              	.LCFI124:
 4423              		.cfi_def_cfa_offset 32
 4424 0004 00AF     		add	r7, sp, #0
 4425              	.LCFI125:
 4426              		.cfi_def_cfa_register 7
 4427 0006 7860     		str	r0, [r7, #4]
1103:../LSM9DS1_Driver.c **** 	uint8_t i = 0; //licznik dla czytania
 4428              		.loc 1 1103 0
 4429 0008 4FF00003 		mov	r3, #0
 4430 000c FB73     		strb	r3, [r7, #15]
1104:../LSM9DS1_Driver.c **** 	uint8_t temp[6]; // We'll read six bytes from the gyro into temp
1105:../LSM9DS1_Driver.c **** 	uint8_t subAddr = OUT_X_L_XL;
 4431              		.loc 1 1105 0
 4432 000e 4FF02803 		mov	r3, #40
 4433 0012 BB73     		strb	r3, [r7, #14]
1106:../LSM9DS1_Driver.c **** 
1107:../LSM9DS1_Driver.c **** 	while(i < 6)
 4434              		.loc 1 1107 0
 4435 0014 20E0     		b	.L153
 4436              	.L154:
1108:../LSM9DS1_Driver.c **** 	{
1109:../LSM9DS1_Driver.c **** 		subAddr = OUT_X_L_XL;
 4437              		.loc 1 1109 0
 4438 0016 4FF02803 		mov	r3, #40
 4439 001a BB73     		strb	r3, [r7, #14]
1110:../LSM9DS1_Driver.c **** 		subAddr = subAddr + i;
 4440              		.loc 1 1110 0
 4441 001c BA7B     		ldrb	r2, [r7, #14]
 4442 001e FB7B     		ldrb	r3, [r7, #15]
 4443 0020 D318     		adds	r3, r2, r3
 4444 0022 BB73     		strb	r3, [r7, #14]
1111:../LSM9DS1_Driver.c **** 		temp[i] = I2CreadBytes(_xgAddress, subAddr, NULL, 0);
 4445              		.loc 1 1111 0
 4446 0024 FC7B     		ldrb	r4, [r7, #15]	@ zero_extendqisi2
 4447 0026 40F20003 		movw	r3, #:lower16:_xgAddress
 4448 002a C0F20003 		movt	r3, #:upper16:_xgAddress
 4449 002e 1A78     		ldrb	r2, [r3, #0]	@ zero_extendqisi2
 4450 0030 BB7B     		ldrb	r3, [r7, #14]	@ zero_extendqisi2
 4451 0032 1046     		mov	r0, r2
 4452 0034 1946     		mov	r1, r3
 4453 0036 4FF00002 		mov	r2, #0
 4454 003a 4FF00003 		mov	r3, #0
 4455 003e FFF7FEFF 		bl	I2CreadBytes
 4456 0042 0346     		mov	r3, r0
 4457 0044 1A46     		mov	r2, r3
 4458 0046 07F11001 		add	r1, r7, #16
 4459 004a 0B19     		adds	r3, r1, r4
 4460 004c 03F8082C 		strb	r2, [r3, #-8]
1112:../LSM9DS1_Driver.c **** 		i++;
 4461              		.loc 1 1112 0
 4462 0050 FB7B     		ldrb	r3, [r7, #15]
 4463 0052 03F10103 		add	r3, r3, #1
 4464 0056 FB73     		strb	r3, [r7, #15]
 4465              	.L153:
1107:../LSM9DS1_Driver.c **** 	while(i < 6)
 4466              		.loc 1 1107 0 discriminator 1
 4467 0058 FB7B     		ldrb	r3, [r7, #15]	@ zero_extendqisi2
 4468 005a 052B     		cmp	r3, #5
 4469 005c DBD9     		bls	.L154
1113:../LSM9DS1_Driver.c **** 	}
1114:../LSM9DS1_Driver.c **** 
1115:../LSM9DS1_Driver.c **** 	ax = (temp[1] << 8) | temp[0]; // Store x-axis values into ax
 4470              		.loc 1 1115 0
 4471 005e 7B7A     		ldrb	r3, [r7, #9]	@ zero_extendqisi2
 4472 0060 4FEA0323 		lsl	r3, r3, #8
 4473 0064 9AB2     		uxth	r2, r3
 4474 0066 3B7A     		ldrb	r3, [r7, #8]	@ zero_extendqisi2
 4475 0068 1343     		orrs	r3, r3, r2
 4476 006a 9AB2     		uxth	r2, r3
 4477 006c 40F20003 		movw	r3, #:lower16:ax
 4478 0070 C0F20003 		movt	r3, #:upper16:ax
 4479 0074 1A80     		strh	r2, [r3, #0]	@ movhi
1116:../LSM9DS1_Driver.c **** 	ay = (temp[3] << 8) | temp[2]; // Store y-axis values into ay
 4480              		.loc 1 1116 0
 4481 0076 FB7A     		ldrb	r3, [r7, #11]	@ zero_extendqisi2
 4482 0078 4FEA0323 		lsl	r3, r3, #8
 4483 007c 9AB2     		uxth	r2, r3
 4484 007e BB7A     		ldrb	r3, [r7, #10]	@ zero_extendqisi2
 4485 0080 1343     		orrs	r3, r3, r2
 4486 0082 9AB2     		uxth	r2, r3
 4487 0084 40F20003 		movw	r3, #:lower16:ay
 4488 0088 C0F20003 		movt	r3, #:upper16:ay
 4489 008c 1A80     		strh	r2, [r3, #0]	@ movhi
1117:../LSM9DS1_Driver.c **** 	az = (temp[5] << 8) | temp[4]; // Store z-axis values into az
 4490              		.loc 1 1117 0
 4491 008e 7B7B     		ldrb	r3, [r7, #13]	@ zero_extendqisi2
 4492 0090 4FEA0323 		lsl	r3, r3, #8
 4493 0094 9AB2     		uxth	r2, r3
 4494 0096 3B7B     		ldrb	r3, [r7, #12]	@ zero_extendqisi2
 4495 0098 1343     		orrs	r3, r3, r2
 4496 009a 9AB2     		uxth	r2, r3
 4497 009c 40F20003 		movw	r3, #:lower16:az
 4498 00a0 C0F20003 		movt	r3, #:upper16:az
 4499 00a4 1A80     		strh	r2, [r3, #0]	@ movhi
1118:../LSM9DS1_Driver.c **** 
1119:../LSM9DS1_Driver.c **** 	if (_autoCalc) //kalibracja
 4500              		.loc 1 1119 0
 4501 00a6 40F20003 		movw	r3, #:lower16:_autoCalc
 4502 00aa C0F20003 		movt	r3, #:upper16:_autoCalc
 4503 00ae 1B78     		ldrb	r3, [r3, #0]	@ zero_extendqisi2
 4504 00b0 002B     		cmp	r3, #0
 4505 00b2 3BD0     		beq	.L155
1120:../LSM9DS1_Driver.c **** 	{
1121:../LSM9DS1_Driver.c **** 		ax -= aBiasRaw[X_AXIS];
 4506              		.loc 1 1121 0
 4507 00b4 40F20003 		movw	r3, #:lower16:ax
 4508 00b8 C0F20003 		movt	r3, #:upper16:ax
 4509 00bc 1B88     		ldrh	r3, [r3, #0]
 4510 00be 9AB2     		uxth	r2, r3
 4511 00c0 40F20003 		movw	r3, #:lower16:aBiasRaw
 4512 00c4 C0F20003 		movt	r3, #:upper16:aBiasRaw
 4513 00c8 1B88     		ldrh	r3, [r3, #0]
 4514 00ca 9BB2     		uxth	r3, r3
 4515 00cc D31A     		subs	r3, r2, r3
 4516 00ce 9BB2     		uxth	r3, r3
 4517 00d0 9AB2     		uxth	r2, r3
 4518 00d2 40F20003 		movw	r3, #:lower16:ax
 4519 00d6 C0F20003 		movt	r3, #:upper16:ax
 4520 00da 1A80     		strh	r2, [r3, #0]	@ movhi
1122:../LSM9DS1_Driver.c **** 		ay -= aBiasRaw[Y_AXIS];
 4521              		.loc 1 1122 0
 4522 00dc 40F20003 		movw	r3, #:lower16:ay
 4523 00e0 C0F20003 		movt	r3, #:upper16:ay
 4524 00e4 1B88     		ldrh	r3, [r3, #0]
 4525 00e6 9AB2     		uxth	r2, r3
 4526 00e8 40F20003 		movw	r3, #:lower16:aBiasRaw
 4527 00ec C0F20003 		movt	r3, #:upper16:aBiasRaw
 4528 00f0 5B88     		ldrh	r3, [r3, #2]
 4529 00f2 9BB2     		uxth	r3, r3
 4530 00f4 D31A     		subs	r3, r2, r3
 4531 00f6 9BB2     		uxth	r3, r3
 4532 00f8 9AB2     		uxth	r2, r3
 4533 00fa 40F20003 		movw	r3, #:lower16:ay
 4534 00fe C0F20003 		movt	r3, #:upper16:ay
 4535 0102 1A80     		strh	r2, [r3, #0]	@ movhi
1123:../LSM9DS1_Driver.c **** 		az -= aBiasRaw[Z_AXIS];
 4536              		.loc 1 1123 0
 4537 0104 40F20003 		movw	r3, #:lower16:az
 4538 0108 C0F20003 		movt	r3, #:upper16:az
 4539 010c 1B88     		ldrh	r3, [r3, #0]
 4540 010e 9AB2     		uxth	r2, r3
 4541 0110 40F20003 		movw	r3, #:lower16:aBiasRaw
 4542 0114 C0F20003 		movt	r3, #:upper16:aBiasRaw
 4543 0118 9B88     		ldrh	r3, [r3, #4]
 4544 011a 9BB2     		uxth	r3, r3
 4545 011c D31A     		subs	r3, r2, r3
 4546 011e 9BB2     		uxth	r3, r3
 4547 0120 9AB2     		uxth	r2, r3
 4548 0122 40F20003 		movw	r3, #:lower16:az
 4549 0126 C0F20003 		movt	r3, #:upper16:az
 4550 012a 1A80     		strh	r2, [r3, #0]	@ movhi
 4551              	.L155:
1124:../LSM9DS1_Driver.c **** 	}
1125:../LSM9DS1_Driver.c **** 
1126:../LSM9DS1_Driver.c **** 	ax = calcAccel(ax);
 4552              		.loc 1 1126 0
 4553 012c 40F20003 		movw	r3, #:lower16:ax
 4554 0130 C0F20003 		movt	r3, #:upper16:ax
 4555 0134 1B88     		ldrh	r3, [r3, #0]
 4556 0136 1BB2     		sxth	r3, r3
 4557 0138 1846     		mov	r0, r3
 4558 013a FFF7FEFF 		bl	calcAccel
 4559 013e 07EE900A 		fmsr	s15, r0
 4560 0142 FDEEE77A 		ftosizs	s15, s15
 4561 0146 17EE903A 		fmrs	r3, s15	@ int
 4562 014a 9AB2     		uxth	r2, r3
 4563 014c 40F20003 		movw	r3, #:lower16:ax
 4564 0150 C0F20003 		movt	r3, #:upper16:ax
 4565 0154 1A80     		strh	r2, [r3, #0]	@ movhi
1127:../LSM9DS1_Driver.c **** 	ay = calcAccel(ay);
 4566              		.loc 1 1127 0
 4567 0156 40F20003 		movw	r3, #:lower16:ay
 4568 015a C0F20003 		movt	r3, #:upper16:ay
 4569 015e 1B88     		ldrh	r3, [r3, #0]
 4570 0160 1BB2     		sxth	r3, r3
 4571 0162 1846     		mov	r0, r3
 4572 0164 FFF7FEFF 		bl	calcAccel
 4573 0168 07EE900A 		fmsr	s15, r0
 4574 016c FDEEE77A 		ftosizs	s15, s15
 4575 0170 17EE903A 		fmrs	r3, s15	@ int
 4576 0174 9AB2     		uxth	r2, r3
 4577 0176 40F20003 		movw	r3, #:lower16:ay
 4578 017a C0F20003 		movt	r3, #:upper16:ay
 4579 017e 1A80     		strh	r2, [r3, #0]	@ movhi
1128:../LSM9DS1_Driver.c **** 	az = calcAccel(az);
 4580              		.loc 1 1128 0
 4581 0180 40F20003 		movw	r3, #:lower16:az
 4582 0184 C0F20003 		movt	r3, #:upper16:az
 4583 0188 1B88     		ldrh	r3, [r3, #0]
 4584 018a 1BB2     		sxth	r3, r3
 4585 018c 1846     		mov	r0, r3
 4586 018e FFF7FEFF 		bl	calcAccel
 4587 0192 07EE900A 		fmsr	s15, r0
 4588 0196 FDEEE77A 		ftosizs	s15, s15
 4589 019a 17EE903A 		fmrs	r3, s15	@ int
 4590 019e 9AB2     		uxth	r2, r3
 4591 01a0 40F20003 		movw	r3, #:lower16:az
 4592 01a4 C0F20003 		movt	r3, #:upper16:az
 4593 01a8 1A80     		strh	r2, [r3, #0]	@ movhi
1129:../LSM9DS1_Driver.c **** 
1130:../LSM9DS1_Driver.c **** 	pomiar->ax = ax;
 4594              		.loc 1 1130 0
 4595 01aa 40F20003 		movw	r3, #:lower16:ax
 4596 01ae C0F20003 		movt	r3, #:upper16:ax
 4597 01b2 1A88     		ldrh	r2, [r3, #0]
 4598 01b4 7B68     		ldr	r3, [r7, #4]
 4599 01b6 1A80     		strh	r2, [r3, #0]	@ movhi
1131:../LSM9DS1_Driver.c **** 	pomiar->ay = ay;
 4600              		.loc 1 1131 0
 4601 01b8 40F20003 		movw	r3, #:lower16:ay
 4602 01bc C0F20003 		movt	r3, #:upper16:ay
 4603 01c0 1A88     		ldrh	r2, [r3, #0]
 4604 01c2 7B68     		ldr	r3, [r7, #4]
 4605 01c4 5A80     		strh	r2, [r3, #2]	@ movhi
1132:../LSM9DS1_Driver.c **** 	pomiar->az = az;
 4606              		.loc 1 1132 0
 4607 01c6 40F20003 		movw	r3, #:lower16:az
 4608 01ca C0F20003 		movt	r3, #:upper16:az
 4609 01ce 1A88     		ldrh	r2, [r3, #0]
 4610 01d0 7B68     		ldr	r3, [r7, #4]
 4611 01d2 9A80     		strh	r2, [r3, #4]	@ movhi
1133:../LSM9DS1_Driver.c **** }
 4612              		.loc 1 1133 0
 4613 01d4 07F11407 		add	r7, r7, #20
 4614 01d8 BD46     		mov	sp, r7
 4615 01da 90BD     		pop	{r4, r7, pc}
 4616              		.cfi_endproc
 4617              	.LFE168:
 4619              		.section	.text.I2CreadBytes,"ax",%progbits
 4620              		.align	2
 4621              		.global	I2CreadBytes
 4622              		.thumb
 4623              		.thumb_func
 4625              	I2CreadBytes:
 4626              	.LFB169:
1134:../LSM9DS1_Driver.c **** 
1135:../LSM9DS1_Driver.c **** uint8_t I2CreadBytes(uint8_t address, uint8_t subAddress, uint8_t * dest, uint8_t count)
1136:../LSM9DS1_Driver.c **** {
 4627              		.loc 1 1136 0
 4628              		.cfi_startproc
 4629              		@ args = 0, pretend = 0, frame = 40
 4630              		@ frame_needed = 1, uses_anonymous_args = 0
 4631 0000 80B5     		push	{r7, lr}
 4632              	.LCFI126:
 4633              		.cfi_def_cfa_offset 8
 4634              		.cfi_offset 7, -8
 4635              		.cfi_offset 14, -4
 4636 0002 8AB0     		sub	sp, sp, #40
 4637              	.LCFI127:
 4638              		.cfi_def_cfa_offset 48
 4639 0004 00AF     		add	r7, sp, #0
 4640              	.LCFI128:
 4641              		.cfi_def_cfa_register 7
 4642 0006 3A60     		str	r2, [r7, #0]
 4643 0008 0246     		mov	r2, r0
 4644 000a FA71     		strb	r2, [r7, #7]
 4645 000c 0A46     		mov	r2, r1
 4646 000e BA71     		strb	r2, [r7, #6]
 4647 0010 7B71     		strb	r3, [r7, #5]
1137:../LSM9DS1_Driver.c **** 		USIC_CH_TypeDef* I2CRegs = I2C001_Handle0.I2CRegs;
 4648              		.loc 1 1137 0
 4649 0012 40F20003 		movw	r3, #:lower16:I2C001_Handle0
 4650 0016 C0F20003 		movt	r3, #:upper16:I2C001_Handle0
 4651 001a 5B68     		ldr	r3, [r3, #4]
 4652 001c 3B62     		str	r3, [r7, #32]
1138:../LSM9DS1_Driver.c **** 
1139:../LSM9DS1_Driver.c **** 		I2C001_DataType data1;
1140:../LSM9DS1_Driver.c **** 		data1.Data1.TDF_Type = I2C_TDF_MStart;
 4653              		.loc 1 1140 0
 4654 001e 4FF00403 		mov	r3, #4
 4655 0022 7B77     		strb	r3, [r7, #29]
1141:../LSM9DS1_Driver.c **** 		data1.Data1.Data = ((address<<1) | I2C_WRITE);
 4656              		.loc 1 1141 0
 4657 0024 FB79     		ldrb	r3, [r7, #7]
 4658 0026 4FEA4303 		lsl	r3, r3, #1
 4659 002a DBB2     		uxtb	r3, r3
 4660 002c 3B77     		strb	r3, [r7, #28]
1142:../LSM9DS1_Driver.c **** 		/*while(!*/I2C001_WriteData(&I2C001_Handle0,&data1);/*);*/
 4661              		.loc 1 1142 0
 4662 002e 07F11C03 		add	r3, r7, #28
 4663 0032 40F20000 		movw	r0, #:lower16:I2C001_Handle0
 4664 0036 C0F20000 		movt	r0, #:upper16:I2C001_Handle0
 4665 003a 1946     		mov	r1, r3
 4666 003c FFF7FEFF 		bl	I2C001_WriteData
1143:../LSM9DS1_Driver.c **** 		/*{
1144:../LSM9DS1_Driver.c **** 			USIC_FlushTxFIFO(I2CRegs);
1145:../LSM9DS1_Driver.c **** 		}*/
1146:../LSM9DS1_Driver.c **** 		delay(DELAY);
 4667              		.loc 1 1146 0
 4668 0040 4FF49660 		mov	r0, #1200
 4669 0044 FFF7FEFF 		bl	delay
1147:../LSM9DS1_Driver.c **** 
1148:../LSM9DS1_Driver.c **** 		I2C001_DataType data2;
1149:../LSM9DS1_Driver.c **** 		data2.Data1.TDF_Type = I2C_TDF_MTxData;
 4670              		.loc 1 1149 0
 4671 0048 4FF00003 		mov	r3, #0
 4672 004c 7B76     		strb	r3, [r7, #25]
1150:../LSM9DS1_Driver.c **** 		data2.Data1.Data = (subAddress);
 4673              		.loc 1 1150 0
 4674 004e BB79     		ldrb	r3, [r7, #6]
 4675 0050 3B76     		strb	r3, [r7, #24]
1151:../LSM9DS1_Driver.c **** 		/*while(!*/I2C001_WriteData(&I2C001_Handle0,&data2);/*);*/
 4676              		.loc 1 1151 0
 4677 0052 07F11803 		add	r3, r7, #24
 4678 0056 40F20000 		movw	r0, #:lower16:I2C001_Handle0
 4679 005a C0F20000 		movt	r0, #:upper16:I2C001_Handle0
 4680 005e 1946     		mov	r1, r3
 4681 0060 FFF7FEFF 		bl	I2C001_WriteData
1152:../LSM9DS1_Driver.c **** 		/*{
1153:../LSM9DS1_Driver.c **** 			USIC_FlushTxFIFO(I2CRegs);
1154:../LSM9DS1_Driver.c **** 		}*/
1155:../LSM9DS1_Driver.c **** 		delay(DELAY);
 4682              		.loc 1 1155 0
 4683 0064 4FF49660 		mov	r0, #1200
 4684 0068 FFF7FEFF 		bl	delay
1156:../LSM9DS1_Driver.c **** 
1157:../LSM9DS1_Driver.c **** 		I2C001_DataType data3;
1158:../LSM9DS1_Driver.c **** 		data3.Data1.TDF_Type = I2C_TDF_MRStart;
 4685              		.loc 1 1158 0
 4686 006c 4FF00503 		mov	r3, #5
 4687 0070 7B75     		strb	r3, [r7, #21]
1159:../LSM9DS1_Driver.c **** 		data3.Data1.Data = ((address<<1) | I2C_READ);
 4688              		.loc 1 1159 0
 4689 0072 FB79     		ldrb	r3, [r7, #7]
 4690 0074 4FEA4303 		lsl	r3, r3, #1
 4691 0078 DBB2     		uxtb	r3, r3
 4692 007a 43F00103 		orr	r3, r3, #1
 4693 007e DBB2     		uxtb	r3, r3
 4694 0080 3B75     		strb	r3, [r7, #20]
1160:../LSM9DS1_Driver.c **** 		/*while(!*/I2C001_WriteData(&I2C001_Handle0,&data3);/*);*/
 4695              		.loc 1 1160 0
 4696 0082 07F11403 		add	r3, r7, #20
 4697 0086 40F20000 		movw	r0, #:lower16:I2C001_Handle0
 4698 008a C0F20000 		movt	r0, #:upper16:I2C001_Handle0
 4699 008e 1946     		mov	r1, r3
 4700 0090 FFF7FEFF 		bl	I2C001_WriteData
1161:../LSM9DS1_Driver.c **** 		/*{
1162:../LSM9DS1_Driver.c **** 			USIC_FlushTxFIFO(I2CRegs);
1163:../LSM9DS1_Driver.c **** 		}*/
1164:../LSM9DS1_Driver.c **** 		delay(DELAY);
 4701              		.loc 1 1164 0
 4702 0094 4FF49660 		mov	r0, #1200
 4703 0098 FFF7FEFF 		bl	delay
1165:../LSM9DS1_Driver.c **** 
1166:../LSM9DS1_Driver.c **** 		I2C001_DataType data4;
1167:../LSM9DS1_Driver.c **** 		data4.Data1.TDF_Type = I2C_TDF_MRxAck1;
 4704              		.loc 1 1167 0
 4705 009c 4FF00303 		mov	r3, #3
 4706 00a0 7B74     		strb	r3, [r7, #17]
1168:../LSM9DS1_Driver.c **** 		data4.Data1.Data = ubyteFF;
 4707              		.loc 1 1168 0
 4708 00a2 4FF0FF03 		mov	r3, #255
 4709 00a6 3B74     		strb	r3, [r7, #16]
1169:../LSM9DS1_Driver.c **** 		/*while(!*/I2C001_WriteData(&I2C001_Handle0,&data4);/*);*/
 4710              		.loc 1 1169 0
 4711 00a8 07F11003 		add	r3, r7, #16
 4712 00ac 40F20000 		movw	r0, #:lower16:I2C001_Handle0
 4713 00b0 C0F20000 		movt	r0, #:upper16:I2C001_Handle0
 4714 00b4 1946     		mov	r1, r3
 4715 00b6 FFF7FEFF 		bl	I2C001_WriteData
1170:../LSM9DS1_Driver.c **** 		/*{
1171:../LSM9DS1_Driver.c **** 			USIC_FlushTxFIFO(I2CRegs);
1172:../LSM9DS1_Driver.c **** 		}*/
1173:../LSM9DS1_Driver.c **** 		delay(DELAY);
 4716              		.loc 1 1173 0
 4717 00ba 4FF49660 		mov	r0, #1200
 4718 00be FFF7FEFF 		bl	delay
1174:../LSM9DS1_Driver.c **** 
1175:../LSM9DS1_Driver.c **** 		I2C001_DataType data5;
1176:../LSM9DS1_Driver.c **** 		data5.Data1.TDF_Type = I2C_TDF_MStop;
 4719              		.loc 1 1176 0
 4720 00c2 4FF00603 		mov	r3, #6
 4721 00c6 7B73     		strb	r3, [r7, #13]
1177:../LSM9DS1_Driver.c **** 		data5.Data1.Data = ubyteFF;
 4722              		.loc 1 1177 0
 4723 00c8 4FF0FF03 		mov	r3, #255
 4724 00cc 3B73     		strb	r3, [r7, #12]
1178:../LSM9DS1_Driver.c **** 		/*while(!*/I2C001_WriteData(&I2C001_Handle0,&data5);/*);*/
 4725              		.loc 1 1178 0
 4726 00ce 07F10C03 		add	r3, r7, #12
 4727 00d2 40F20000 		movw	r0, #:lower16:I2C001_Handle0
 4728 00d6 C0F20000 		movt	r0, #:upper16:I2C001_Handle0
 4729 00da 1946     		mov	r1, r3
 4730 00dc FFF7FEFF 		bl	I2C001_WriteData
1179:../LSM9DS1_Driver.c **** 		/*{
1180:../LSM9DS1_Driver.c **** 			USIC_FlushTxFIFO(I2CRegs);
1181:../LSM9DS1_Driver.c **** 		}*/
1182:../LSM9DS1_Driver.c **** 		delay(DELAY * 100);
 4731              		.loc 1 1182 0
 4732 00e0 4DF2C040 		movw	r0, #54464
 4733 00e4 C0F20100 		movt	r0, 1
 4734 00e8 FFF7FEFF 		bl	delay
1183:../LSM9DS1_Driver.c **** 
1184:../LSM9DS1_Driver.c **** 		int k = 0;
 4735              		.loc 1 1184 0
 4736 00ec 4FF00003 		mov	r3, #0
 4737 00f0 7B62     		str	r3, [r7, #36]
1185:../LSM9DS1_Driver.c **** 
1186:../LSM9DS1_Driver.c **** 		uint16_t buffer = 0;
 4738              		.loc 1 1186 0
 4739 00f2 4FF00003 		mov	r3, #0
 4740 00f6 FB83     		strh	r3, [r7, #30]	@ movhi
1187:../LSM9DS1_Driver.c **** 
1188:../LSM9DS1_Driver.c **** 		while(0 == received){ k++; if(k > 4000) break; }
 4741              		.loc 1 1188 0
 4742 00f8 07E0     		b	.L157
 4743              	.L159:
 4744              		.loc 1 1188 0 is_stmt 0 discriminator 2
 4745 00fa 7B6A     		ldr	r3, [r7, #36]
 4746 00fc 03F10103 		add	r3, r3, #1
 4747 0100 7B62     		str	r3, [r7, #36]
 4748 0102 7B6A     		ldr	r3, [r7, #36]
 4749 0104 B3F57A6F 		cmp	r3, #4000
 4750 0108 07DC     		bgt	.L161
 4751              	.L157:
 4752              		.loc 1 1188 0 discriminator 1
 4753 010a 40F20003 		movw	r3, #:lower16:received
 4754 010e C0F20003 		movt	r3, #:upper16:received
 4755 0112 1B78     		ldrb	r3, [r3, #0]	@ zero_extendqisi2
 4756 0114 002B     		cmp	r3, #0
 4757 0116 F0D0     		beq	.L159
 4758 0118 00E0     		b	.L158
 4759              	.L161:
 4760              		.loc 1 1188 0
 4761 011a 00BF     		nop
 4762              	.L158:
1189:../LSM9DS1_Driver.c **** 		received = 0;
 4763              		.loc 1 1189 0 is_stmt 1
 4764 011c 40F20003 		movw	r3, #:lower16:received
 4765 0120 C0F20003 		movt	r3, #:upper16:received
 4766 0124 4FF00002 		mov	r2, #0
 4767 0128 1A70     		strb	r2, [r3, #0]
1190:../LSM9DS1_Driver.c **** 
1191:../LSM9DS1_Driver.c **** 		buffer = DataReceive1;
 4768              		.loc 1 1191 0
 4769 012a 40F20003 		movw	r3, #:lower16:DataReceive1
 4770 012e C0F20003 		movt	r3, #:upper16:DataReceive1
 4771 0132 1B88     		ldrh	r3, [r3, #0]	@ movhi
 4772 0134 FB83     		strh	r3, [r7, #30]	@ movhi
1192:../LSM9DS1_Driver.c **** 		/*if(I2C001_ReadData(&I2C001_Handle0,&buffer))
1193:../LSM9DS1_Driver.c **** 		{
1194:../LSM9DS1_Driver.c **** 			delay(DELAY);
1195:../LSM9DS1_Driver.c **** 			k++;
1196:../LSM9DS1_Driver.c **** 		}
1197:../LSM9DS1_Driver.c **** 		else
1198:../LSM9DS1_Driver.c **** 		{
1199:../LSM9DS1_Driver.c **** 			k--;
1200:../LSM9DS1_Driver.c **** 		}*/
1201:../LSM9DS1_Driver.c **** 		delay(DELAY);
 4773              		.loc 1 1201 0
 4774 0136 4FF49660 		mov	r0, #1200
 4775 013a FFF7FEFF 		bl	delay
1202:../LSM9DS1_Driver.c **** 		return (uint8_t)buffer;
 4776              		.loc 1 1202 0
 4777 013e FB8B     		ldrh	r3, [r7, #30]	@ movhi
 4778 0140 DBB2     		uxtb	r3, r3
1203:../LSM9DS1_Driver.c **** }
 4779              		.loc 1 1203 0
 4780 0142 1846     		mov	r0, r3
 4781 0144 07F12807 		add	r7, r7, #40
 4782 0148 BD46     		mov	sp, r7
 4783 014a 80BD     		pop	{r7, pc}
 4784              		.cfi_endproc
 4785              	.LFE169:
 4787              		.section	.text.magAvailable,"ax",%progbits
 4788              		.align	2
 4789              		.global	magAvailable
 4790              		.thumb
 4791              		.thumb_func
 4793              	magAvailable:
 4794              	.LFB170:
1204:../LSM9DS1_Driver.c **** 
1205:../LSM9DS1_Driver.c **** uint8_t magAvailable(lsm9ds1_axis axis)
1206:../LSM9DS1_Driver.c **** {
 4795              		.loc 1 1206 0
 4796              		.cfi_startproc
 4797              		@ args = 0, pretend = 0, frame = 16
 4798              		@ frame_needed = 1, uses_anonymous_args = 0
 4799 0000 80B5     		push	{r7, lr}
 4800              	.LCFI129:
 4801              		.cfi_def_cfa_offset 8
 4802              		.cfi_offset 7, -8
 4803              		.cfi_offset 14, -4
 4804 0002 84B0     		sub	sp, sp, #16
 4805              	.LCFI130:
 4806              		.cfi_def_cfa_offset 24
 4807 0004 00AF     		add	r7, sp, #0
 4808              	.LCFI131:
 4809              		.cfi_def_cfa_register 7
 4810 0006 0346     		mov	r3, r0
 4811 0008 FB71     		strb	r3, [r7, #7]
1207:../LSM9DS1_Driver.c **** 	uint8_t status;
1208:../LSM9DS1_Driver.c **** 	status = mReadByte(STATUS_REG_M);
 4812              		.loc 1 1208 0
 4813 000a 4FF02700 		mov	r0, #39
 4814 000e FFF7FEFF 		bl	mReadByte
